
fm.dll:     file format pei-i386


Disassembly of section .text:

10001000 <.text>:
10001000:	55                   	push   %ebp
10001001:	8b ec                	mov    %esp,%ebp
10001003:	ff 75 0c             	pushl  0xc(%ebp)
10001006:	e8 41 53 00 00       	call   0x1000634c
1000100b:	50                   	push   %eax
1000100c:	ff 75 08             	pushl  0x8(%ebp)
1000100f:	e8 28 58 00 00       	call   0x1000683c
10001014:	83 c4 0c             	add    $0xc,%esp
10001017:	5d                   	pop    %ebp
10001018:	c3                   	ret    
10001019:	55                   	push   %ebp
1000101a:	8b ec                	mov    %esp,%ebp
1000101c:	ff 75 0c             	pushl  0xc(%ebp)
1000101f:	e8 43 4f 00 00       	call   0x10005f67
10001024:	59                   	pop    %ecx
10001025:	85 c0                	test   %eax,%eax
10001027:	74 40                	je     0x10001069
10001029:	56                   	push   %esi
1000102a:	57                   	push   %edi
1000102b:	50                   	push   %eax
1000102c:	e8 41 53 00 00       	call   0x10006372
10001031:	6a 08                	push   $0x8
10001033:	8b f8                	mov    %eax,%edi
10001035:	e8 4e 3a 00 00       	call   0x10004a88
1000103a:	8b f0                	mov    %eax,%esi
1000103c:	59                   	pop    %ecx
1000103d:	59                   	pop    %ecx
1000103e:	85 f6                	test   %esi,%esi
10001040:	74 25                	je     0x10001067
10001042:	8b 55 08             	mov    0x8(%ebp),%edx
10001045:	83 66 04 00          	andl   $0x0,0x4(%esi)
10001049:	89 3e                	mov    %edi,(%esi)
1000104b:	8b 0a                	mov    (%edx),%ecx
1000104d:	0b 4a 04             	or     0x4(%edx),%ecx
10001050:	74 08                	je     0x1000105a
10001052:	8b 42 0c             	mov    0xc(%edx),%eax
10001055:	89 70 04             	mov    %esi,0x4(%eax)
10001058:	eb 03                	jmp    0x1000105d
1000105a:	89 72 08             	mov    %esi,0x8(%edx)
1000105d:	83 02 01             	addl   $0x1,(%edx)
10001060:	89 72 0c             	mov    %esi,0xc(%edx)
10001063:	83 52 04 00          	adcl   $0x0,0x4(%edx)
10001067:	5f                   	pop    %edi
10001068:	5e                   	pop    %esi
10001069:	5d                   	pop    %ebp
1000106a:	c3                   	ret    
1000106b:	55                   	push   %ebp
1000106c:	8b ec                	mov    %esp,%ebp
1000106e:	8b 45 08             	mov    0x8(%ebp),%eax
10001071:	8b 40 08             	mov    0x8(%eax),%eax
10001074:	a3 d4 32 01 10       	mov    %eax,0x100132d4
10001079:	33 c0                	xor    %eax,%eax
1000107b:	40                   	inc    %eax
1000107c:	5d                   	pop    %ebp
1000107d:	c3                   	ret    
1000107e:	55                   	push   %ebp
1000107f:	8b ec                	mov    %esp,%ebp
10001081:	8b 45 08             	mov    0x8(%ebp),%eax
10001084:	8b 40 08             	mov    0x8(%eax),%eax
10001087:	a3 b4 32 01 10       	mov    %eax,0x100132b4
1000108c:	33 c0                	xor    %eax,%eax
1000108e:	40                   	inc    %eax
1000108f:	5d                   	pop    %ebp
10001090:	c3                   	ret    
10001091:	55                   	push   %ebp
10001092:	8b ec                	mov    %esp,%ebp
10001094:	8b 45 08             	mov    0x8(%ebp),%eax
10001097:	ff 70 0c             	pushl  0xc(%eax)
1000109a:	e8 c8 4e 00 00       	call   0x10005f67
1000109f:	59                   	pop    %ecx
100010a0:	33 c9                	xor    %ecx,%ecx
100010a2:	a3 18 32 01 10       	mov    %eax,0x10013218
100010a7:	85 c0                	test   %eax,%eax
100010a9:	0f 95 c1             	setne  %cl
100010ac:	8b c1                	mov    %ecx,%eax
100010ae:	5d                   	pop    %ebp
100010af:	c3                   	ret    
100010b0:	55                   	push   %ebp
100010b1:	8b ec                	mov    %esp,%ebp
100010b3:	8b 45 08             	mov    0x8(%ebp),%eax
100010b6:	8b 40 08             	mov    0x8(%eax),%eax
100010b9:	a3 98 32 01 10       	mov    %eax,0x10013298
100010be:	33 c0                	xor    %eax,%eax
100010c0:	40                   	inc    %eax
100010c1:	5d                   	pop    %ebp
100010c2:	c3                   	ret    
100010c3:	55                   	push   %ebp
100010c4:	8b ec                	mov    %esp,%ebp
100010c6:	8b 45 08             	mov    0x8(%ebp),%eax
100010c9:	8b 40 08             	mov    0x8(%eax),%eax
100010cc:	a3 b8 32 01 10       	mov    %eax,0x100132b8
100010d1:	33 c0                	xor    %eax,%eax
100010d3:	40                   	inc    %eax
100010d4:	5d                   	pop    %ebp
100010d5:	c3                   	ret    
100010d6:	55                   	push   %ebp
100010d7:	8b ec                	mov    %esp,%ebp
100010d9:	8b 45 08             	mov    0x8(%ebp),%eax
100010dc:	56                   	push   %esi
100010dd:	ff 70 0c             	pushl  0xc(%eax)
100010e0:	e8 82 4e 00 00       	call   0x10005f67
100010e5:	8b f0                	mov    %eax,%esi
100010e7:	59                   	pop    %ecx
100010e8:	85 f6                	test   %esi,%esi
100010ea:	74 27                	je     0x10001113
100010ec:	83 65 08 00          	andl   $0x0,0x8(%ebp)
100010f0:	8d 45 08             	lea    0x8(%ebp),%eax
100010f3:	50                   	push   %eax
100010f4:	56                   	push   %esi
100010f5:	e8 bf 4e 00 00       	call   0x10005fb9
100010fa:	56                   	push   %esi
100010fb:	a3 24 32 01 10       	mov    %eax,0x10013224
10001100:	e8 d0 39 00 00       	call   0x10004ad5
10001105:	33 c0                	xor    %eax,%eax
10001107:	83 c4 0c             	add    $0xc,%esp
1000110a:	39 05 24 32 01 10    	cmp    %eax,0x10013224
10001110:	0f 95 c0             	setne  %al
10001113:	5e                   	pop    %esi
10001114:	5d                   	pop    %ebp
10001115:	c3                   	ret    
10001116:	55                   	push   %ebp
10001117:	8b ec                	mov    %esp,%ebp
10001119:	8b 45 08             	mov    0x8(%ebp),%eax
1000111c:	8b 40 08             	mov    0x8(%eax),%eax
1000111f:	a3 b0 32 01 10       	mov    %eax,0x100132b0
10001124:	33 c0                	xor    %eax,%eax
10001126:	40                   	inc    %eax
10001127:	5d                   	pop    %ebp
10001128:	c3                   	ret    
10001129:	55                   	push   %ebp
1000112a:	8b ec                	mov    %esp,%ebp
1000112c:	8b 45 08             	mov    0x8(%ebp),%eax
1000112f:	56                   	push   %esi
10001130:	ff 70 0c             	pushl  0xc(%eax)
10001133:	e8 2f 4e 00 00       	call   0x10005f67
10001138:	8b f0                	mov    %eax,%esi
1000113a:	59                   	pop    %ecx
1000113b:	85 f6                	test   %esi,%esi
1000113d:	74 27                	je     0x10001166
1000113f:	83 65 08 00          	andl   $0x0,0x8(%ebp)
10001143:	8d 45 08             	lea    0x8(%ebp),%eax
10001146:	50                   	push   %eax
10001147:	56                   	push   %esi
10001148:	e8 6c 4e 00 00       	call   0x10005fb9
1000114d:	56                   	push   %esi
1000114e:	a3 1c 32 01 10       	mov    %eax,0x1001321c
10001153:	e8 7d 39 00 00       	call   0x10004ad5
10001158:	33 c0                	xor    %eax,%eax
1000115a:	83 c4 0c             	add    $0xc,%esp
1000115d:	39 05 1c 32 01 10    	cmp    %eax,0x1001321c
10001163:	0f 95 c0             	setne  %al
10001166:	5e                   	pop    %esi
10001167:	5d                   	pop    %ebp
10001168:	c3                   	ret    
10001169:	55                   	push   %ebp
1000116a:	8b ec                	mov    %esp,%ebp
1000116c:	8b 45 08             	mov    0x8(%ebp),%eax
1000116f:	ff 70 0c             	pushl  0xc(%eax)
10001172:	e8 f0 4d 00 00       	call   0x10005f67
10001177:	59                   	pop    %ecx
10001178:	33 c9                	xor    %ecx,%ecx
1000117a:	a3 20 32 01 10       	mov    %eax,0x10013220
1000117f:	85 c0                	test   %eax,%eax
10001181:	0f 95 c1             	setne  %cl
10001184:	8b c1                	mov    %ecx,%eax
10001186:	5d                   	pop    %ebp
10001187:	c3                   	ret    
10001188:	55                   	push   %ebp
10001189:	8b ec                	mov    %esp,%ebp
1000118b:	8b 45 08             	mov    0x8(%ebp),%eax
1000118e:	ff 70 0c             	pushl  0xc(%eax)
10001191:	e8 d1 4d 00 00       	call   0x10005f67
10001196:	59                   	pop    %ecx
10001197:	33 c9                	xor    %ecx,%ecx
10001199:	a3 10 32 01 10       	mov    %eax,0x10013210
1000119e:	85 c0                	test   %eax,%eax
100011a0:	0f 95 c1             	setne  %cl
100011a3:	8b c1                	mov    %ecx,%eax
100011a5:	5d                   	pop    %ebp
100011a6:	c3                   	ret    
100011a7:	55                   	push   %ebp
100011a8:	8b ec                	mov    %esp,%ebp
100011aa:	8b 45 08             	mov    0x8(%ebp),%eax
100011ad:	56                   	push   %esi
100011ae:	ff 70 0c             	pushl  0xc(%eax)
100011b1:	e8 b1 4d 00 00       	call   0x10005f67
100011b6:	8b f0                	mov    %eax,%esi
100011b8:	59                   	pop    %ecx
100011b9:	85 f6                	test   %esi,%esi
100011bb:	74 44                	je     0x10001201
100011bd:	53                   	push   %ebx
100011be:	57                   	push   %edi
100011bf:	8d 45 08             	lea    0x8(%ebp),%eax
100011c2:	33 ff                	xor    %edi,%edi
100011c4:	50                   	push   %eax
100011c5:	56                   	push   %esi
100011c6:	89 7d 08             	mov    %edi,0x8(%ebp)
100011c9:	e8 eb 4d 00 00       	call   0x10005fb9
100011ce:	56                   	push   %esi
100011cf:	8b d8                	mov    %eax,%ebx
100011d1:	e8 ff 38 00 00       	call   0x10004ad5
100011d6:	83 c4 0c             	add    $0xc,%esp
100011d9:	85 db                	test   %ebx,%ebx
100011db:	75 04                	jne    0x100011e1
100011dd:	33 c0                	xor    %eax,%eax
100011df:	eb 1e                	jmp    0x100011ff
100011e1:	83 7d 08 20          	cmpl   $0x20,0x8(%ebp)
100011e5:	75 0f                	jne    0x100011f6
100011e7:	6a 08                	push   $0x8
100011e9:	59                   	pop    %ecx
100011ea:	8b f3                	mov    %ebx,%esi
100011ec:	bf 20 31 01 10       	mov    $0x10013120,%edi
100011f1:	f3 a5                	rep movsl %ds:(%esi),%es:(%edi)
100011f3:	33 ff                	xor    %edi,%edi
100011f5:	47                   	inc    %edi
100011f6:	53                   	push   %ebx
100011f7:	e8 d9 38 00 00       	call   0x10004ad5
100011fc:	59                   	pop    %ecx
100011fd:	8b c7                	mov    %edi,%eax
100011ff:	5f                   	pop    %edi
10001200:	5b                   	pop    %ebx
10001201:	5e                   	pop    %esi
10001202:	5d                   	pop    %ebp
10001203:	c3                   	ret    
10001204:	55                   	push   %ebp
10001205:	8b ec                	mov    %esp,%ebp
10001207:	68 19 10 00 10       	push   $0x10001019
1000120c:	33 c0                	xor    %eax,%eax
1000120e:	68 78 32 01 10       	push   $0x10013278
10001213:	ff 75 08             	pushl  0x8(%ebp)
10001216:	a3 84 32 01 10       	mov    %eax,0x10013284
1000121b:	a3 80 32 01 10       	mov    %eax,0x10013280
10001220:	a3 78 32 01 10       	mov    %eax,0x10013278
10001225:	a3 7c 32 01 10       	mov    %eax,0x1001327c
1000122a:	e8 57 57 00 00       	call   0x10006986
1000122f:	83 c4 0c             	add    $0xc,%esp
10001232:	5d                   	pop    %ebp
10001233:	c3                   	ret    
10001234:	55                   	push   %ebp
10001235:	8b ec                	mov    %esp,%ebp
10001237:	8b 45 08             	mov    0x8(%ebp),%eax
1000123a:	8b 40 08             	mov    0x8(%eax),%eax
1000123d:	a3 a0 32 01 10       	mov    %eax,0x100132a0
10001242:	33 c0                	xor    %eax,%eax
10001244:	40                   	inc    %eax
10001245:	5d                   	pop    %ebp
10001246:	c3                   	ret    
10001247:	55                   	push   %ebp
10001248:	8b ec                	mov    %esp,%ebp
1000124a:	68 19 10 00 10       	push   $0x10001019
1000124f:	33 c0                	xor    %eax,%eax
10001251:	68 88 32 01 10       	push   $0x10013288
10001256:	ff 75 08             	pushl  0x8(%ebp)
10001259:	a3 94 32 01 10       	mov    %eax,0x10013294
1000125e:	a3 90 32 01 10       	mov    %eax,0x10013290
10001263:	a3 88 32 01 10       	mov    %eax,0x10013288
10001268:	a3 8c 32 01 10       	mov    %eax,0x1001328c
1000126d:	e8 14 57 00 00       	call   0x10006986
10001272:	83 c4 0c             	add    $0xc,%esp
10001275:	5d                   	pop    %ebp
10001276:	c3                   	ret    
10001277:	55                   	push   %ebp
10001278:	8b ec                	mov    %esp,%ebp
1000127a:	8b 45 08             	mov    0x8(%ebp),%eax
1000127d:	8b 40 08             	mov    0x8(%eax),%eax
10001280:	a3 9c 32 01 10       	mov    %eax,0x1001329c
10001285:	33 c0                	xor    %eax,%eax
10001287:	40                   	inc    %eax
10001288:	5d                   	pop    %ebp
10001289:	c3                   	ret    
1000128a:	55                   	push   %ebp
1000128b:	8b ec                	mov    %esp,%ebp
1000128d:	8b 45 08             	mov    0x8(%ebp),%eax
10001290:	ff 70 0c             	pushl  0xc(%eax)
10001293:	e8 cf 4c 00 00       	call   0x10005f67
10001298:	59                   	pop    %ecx
10001299:	33 c9                	xor    %ecx,%ecx
1000129b:	a3 14 32 01 10       	mov    %eax,0x10013214
100012a0:	85 c0                	test   %eax,%eax
100012a2:	0f 95 c1             	setne  %cl
100012a5:	8b c1                	mov    %ecx,%eax
100012a7:	5d                   	pop    %ebp
100012a8:	c3                   	ret    
100012a9:	55                   	push   %ebp
100012aa:	8b ec                	mov    %esp,%ebp
100012ac:	56                   	push   %esi
100012ad:	8b 75 08             	mov    0x8(%ebp),%esi
100012b0:	57                   	push   %edi
100012b1:	bf 6c 32 01 10       	mov    $0x1001326c,%edi
100012b6:	ff 76 08             	pushl  0x8(%esi)
100012b9:	6a 00                	push   $0x0
100012bb:	57                   	push   %edi
100012bc:	e8 1b 55 00 00       	call   0x100067dc
100012c1:	83 c4 0c             	add    $0xc,%esp
100012c4:	85 c0                	test   %eax,%eax
100012c6:	74 0f                	je     0x100012d7
100012c8:	68 00 10 00 10       	push   $0x10001000
100012cd:	57                   	push   %edi
100012ce:	56                   	push   %esi
100012cf:	e8 b2 56 00 00       	call   0x10006986
100012d4:	83 c4 0c             	add    $0xc,%esp
100012d7:	5f                   	pop    %edi
100012d8:	5e                   	pop    %esi
100012d9:	5d                   	pop    %ebp
100012da:	c3                   	ret    
100012db:	55                   	push   %ebp
100012dc:	8b ec                	mov    %esp,%ebp
100012de:	56                   	push   %esi
100012df:	8b 75 08             	mov    0x8(%ebp),%esi
100012e2:	57                   	push   %edi
100012e3:	bf 60 32 01 10       	mov    $0x10013260,%edi
100012e8:	ff 76 08             	pushl  0x8(%esi)
100012eb:	6a 00                	push   $0x0
100012ed:	57                   	push   %edi
100012ee:	e8 e9 54 00 00       	call   0x100067dc
100012f3:	83 c4 0c             	add    $0xc,%esp
100012f6:	85 c0                	test   %eax,%eax
100012f8:	74 0f                	je     0x10001309
100012fa:	68 00 10 00 10       	push   $0x10001000
100012ff:	57                   	push   %edi
10001300:	56                   	push   %esi
10001301:	e8 80 56 00 00       	call   0x10006986
10001306:	83 c4 0c             	add    $0xc,%esp
10001309:	5f                   	pop    %edi
1000130a:	5e                   	pop    %esi
1000130b:	5d                   	pop    %ebp
1000130c:	c3                   	ret    
1000130d:	55                   	push   %ebp
1000130e:	8b ec                	mov    %esp,%ebp
10001310:	56                   	push   %esi
10001311:	8b 75 08             	mov    0x8(%ebp),%esi
10001314:	57                   	push   %edi
10001315:	bf 54 32 01 10       	mov    $0x10013254,%edi
1000131a:	ff 76 08             	pushl  0x8(%esi)
1000131d:	6a 00                	push   $0x0
1000131f:	57                   	push   %edi
10001320:	e8 b7 54 00 00       	call   0x100067dc
10001325:	83 c4 0c             	add    $0xc,%esp
10001328:	85 c0                	test   %eax,%eax
1000132a:	74 0f                	je     0x1000133b
1000132c:	68 00 10 00 10       	push   $0x10001000
10001331:	57                   	push   %edi
10001332:	56                   	push   %esi
10001333:	e8 4e 56 00 00       	call   0x10006986
10001338:	83 c4 0c             	add    $0xc,%esp
1000133b:	5f                   	pop    %edi
1000133c:	5e                   	pop    %esi
1000133d:	5d                   	pop    %ebp
1000133e:	c3                   	ret    
1000133f:	55                   	push   %ebp
10001340:	8b ec                	mov    %esp,%ebp
10001342:	83 ec 30             	sub    $0x30,%esp
10001345:	56                   	push   %esi
10001346:	8d 45 fc             	lea    -0x4(%ebp),%eax
10001349:	be 70 12 01 10       	mov    $0x10011270,%esi
1000134e:	50                   	push   %eax
1000134f:	6a 03                	push   $0x3
10001351:	6a 0c                	push   $0xc
10001353:	68 cb 01 00 00       	push   $0x1cb
10001358:	56                   	push   %esi
10001359:	e8 5f 4d 00 00       	call   0x100060bd
1000135e:	8d 45 f8             	lea    -0x8(%ebp),%eax
10001361:	c6 45 ff 00          	movb   $0x0,-0x1(%ebp)
10001365:	50                   	push   %eax
10001366:	6a 03                	push   $0x3
10001368:	6a 05                	push   $0x5
1000136a:	68 e2 02 00 00       	push   $0x2e2
1000136f:	56                   	push   %esi
10001370:	e8 48 4d 00 00       	call   0x100060bd
10001375:	8d 45 f4             	lea    -0xc(%ebp),%eax
10001378:	c6 45 fb 00          	movb   $0x0,-0x5(%ebp)
1000137c:	50                   	push   %eax
1000137d:	6a 03                	push   $0x3
1000137f:	6a 0e                	push   $0xe
10001381:	68 6d 09 00 00       	push   $0x96d
10001386:	56                   	push   %esi
10001387:	e8 31 4d 00 00       	call   0x100060bd
1000138c:	8d 45 fc             	lea    -0x4(%ebp),%eax
1000138f:	c6 45 f7 00          	movb   $0x0,-0x9(%ebp)
10001393:	89 45 d0             	mov    %eax,-0x30(%ebp)
10001396:	8d 45 f8             	lea    -0x8(%ebp),%eax
10001399:	6a 02                	push   $0x2
1000139b:	59                   	pop    %ecx
1000139c:	89 45 dc             	mov    %eax,-0x24(%ebp)
1000139f:	8d 45 f4             	lea    -0xc(%ebp),%eax
100013a2:	89 45 e8             	mov    %eax,-0x18(%ebp)
100013a5:	8d 45 d0             	lea    -0x30(%ebp),%eax
100013a8:	6a 03                	push   $0x3
100013aa:	50                   	push   %eax
100013ab:	ff 75 08             	pushl  0x8(%ebp)
100013ae:	89 4d d4             	mov    %ecx,-0x2c(%ebp)
100013b1:	c7 45 d8 0d 13 00 10 	movl   $0x1000130d,-0x28(%ebp)
100013b8:	89 4d e0             	mov    %ecx,-0x20(%ebp)
100013bb:	c7 45 e4 db 12 00 10 	movl   $0x100012db,-0x1c(%ebp)
100013c2:	89 4d ec             	mov    %ecx,-0x14(%ebp)
100013c5:	c7 45 f0 a9 12 00 10 	movl   $0x100012a9,-0x10(%ebp)
100013cc:	e8 f0 55 00 00       	call   0x100069c1
100013d1:	83 c4 48             	add    $0x48,%esp
100013d4:	5e                   	pop    %esi
100013d5:	8b e5                	mov    %ebp,%esp
100013d7:	5d                   	pop    %ebp
100013d8:	c3                   	ret    
100013d9:	55                   	push   %ebp
100013da:	8b ec                	mov    %esp,%ebp
100013dc:	51                   	push   %ecx
100013dd:	53                   	push   %ebx
100013de:	56                   	push   %esi
100013df:	8d 45 fc             	lea    -0x4(%ebp),%eax
100013e2:	33 f6                	xor    %esi,%esi
100013e4:	50                   	push   %eax
100013e5:	e8 36 3a 00 00       	call   0x10004e20
100013ea:	8b d8                	mov    %eax,%ebx
100013ec:	59                   	pop    %ecx
100013ed:	85 db                	test   %ebx,%ebx
100013ef:	74 31                	je     0x10001422
100013f1:	57                   	push   %edi
100013f2:	33 ff                	xor    %edi,%edi
100013f4:	47                   	inc    %edi
100013f5:	39 7d fc             	cmp    %edi,-0x4(%ebp)
100013f8:	7e 1e                	jle    0x10001418
100013fa:	ff 75 08             	pushl  0x8(%ebp)
100013fd:	ff 34 bb             	pushl  (%ebx,%edi,4)
10001400:	e8 1c 50 00 00       	call   0x10006421
10001405:	8b f0                	mov    %eax,%esi
10001407:	f7 de                	neg    %esi
10001409:	59                   	pop    %ecx
1000140a:	1b f6                	sbb    %esi,%esi
1000140c:	59                   	pop    %ecx
1000140d:	83 c6 01             	add    $0x1,%esi
10001410:	75 06                	jne    0x10001418
10001412:	47                   	inc    %edi
10001413:	3b 7d fc             	cmp    -0x4(%ebp),%edi
10001416:	7c e2                	jl     0x100013fa
10001418:	53                   	push   %ebx
10001419:	e8 f4 39 00 00       	call   0x10004e12
1000141e:	59                   	pop    %ecx
1000141f:	8b c6                	mov    %esi,%eax
10001421:	5f                   	pop    %edi
10001422:	5e                   	pop    %esi
10001423:	5b                   	pop    %ebx
10001424:	8b e5                	mov    %ebp,%esp
10001426:	5d                   	pop    %ebp
10001427:	c3                   	ret    
10001428:	55                   	push   %ebp
10001429:	8b ec                	mov    %esp,%ebp
1000142b:	83 ec 50             	sub    $0x50,%esp
1000142e:	56                   	push   %esi
1000142f:	33 f6                	xor    %esi,%esi
10001431:	c7 45 f4 54 32 01 10 	movl   $0x10013254,-0xc(%ebp)
10001438:	57                   	push   %edi
10001439:	c7 45 f8 60 32 01 10 	movl   $0x10013260,-0x8(%ebp)
10001440:	8b fe                	mov    %esi,%edi
10001442:	c7 45 fc 6c 32 01 10 	movl   $0x1001326c,-0x4(%ebp)
10001449:	ff 74 bd f4          	pushl  -0xc(%ebp,%edi,4)
1000144d:	e8 9f 52 00 00       	call   0x100066f1
10001452:	47                   	inc    %edi
10001453:	59                   	pop    %ecx
10001454:	83 ff 03             	cmp    $0x3,%edi
10001457:	72 f0                	jb     0x10001449
10001459:	68 78 32 01 10       	push   $0x10013278
1000145e:	e8 24 0b 00 00       	call   0x10001f87
10001463:	c7 04 24 88 32 01 10 	movl   $0x10013288,(%esp)
1000146a:	e8 18 0b 00 00       	call   0x10001f87
1000146f:	a1 10 32 01 10       	mov    0x10013210,%eax
10001474:	89 45 b0             	mov    %eax,-0x50(%ebp)
10001477:	a1 14 32 01 10       	mov    0x10013214,%eax
1000147c:	89 45 b4             	mov    %eax,-0x4c(%ebp)
1000147f:	a1 18 32 01 10       	mov    0x10013218,%eax
10001484:	89 45 b8             	mov    %eax,-0x48(%ebp)
10001487:	a1 1c 32 01 10       	mov    0x1001321c,%eax
1000148c:	89 45 bc             	mov    %eax,-0x44(%ebp)
1000148f:	a1 20 32 01 10       	mov    0x10013220,%eax
10001494:	89 45 c0             	mov    %eax,-0x40(%ebp)
10001497:	a1 24 32 01 10       	mov    0x10013224,%eax
1000149c:	89 45 c4             	mov    %eax,-0x3c(%ebp)
1000149f:	a1 28 32 01 10       	mov    0x10013228,%eax
100014a4:	89 45 c8             	mov    %eax,-0x38(%ebp)
100014a7:	a1 2c 32 01 10       	mov    0x1001322c,%eax
100014ac:	89 45 cc             	mov    %eax,-0x34(%ebp)
100014af:	a1 30 32 01 10       	mov    0x10013230,%eax
100014b4:	89 45 d0             	mov    %eax,-0x30(%ebp)
100014b7:	a1 34 32 01 10       	mov    0x10013234,%eax
100014bc:	89 45 d4             	mov    %eax,-0x2c(%ebp)
100014bf:	a1 38 32 01 10       	mov    0x10013238,%eax
100014c4:	89 45 d8             	mov    %eax,-0x28(%ebp)
100014c7:	a1 3c 32 01 10       	mov    0x1001323c,%eax
100014cc:	89 45 dc             	mov    %eax,-0x24(%ebp)
100014cf:	a1 40 32 01 10       	mov    0x10013240,%eax
100014d4:	89 45 e0             	mov    %eax,-0x20(%ebp)
100014d7:	a1 44 32 01 10       	mov    0x10013244,%eax
100014dc:	89 45 e4             	mov    %eax,-0x1c(%ebp)
100014df:	a1 48 32 01 10       	mov    0x10013248,%eax
100014e4:	89 45 e8             	mov    %eax,-0x18(%ebp)
100014e7:	a1 4c 32 01 10       	mov    0x1001324c,%eax
100014ec:	89 45 ec             	mov    %eax,-0x14(%ebp)
100014ef:	a1 50 32 01 10       	mov    0x10013250,%eax
100014f4:	59                   	pop    %ecx
100014f5:	89 45 f0             	mov    %eax,-0x10(%ebp)
100014f8:	8b 44 b5 b0          	mov    -0x50(%ebp,%esi,4),%eax
100014fc:	85 c0                	test   %eax,%eax
100014fe:	74 07                	je     0x10001507
10001500:	50                   	push   %eax
10001501:	e8 cf 35 00 00       	call   0x10004ad5
10001506:	59                   	pop    %ecx
10001507:	46                   	inc    %esi
10001508:	83 fe 11             	cmp    $0x11,%esi
1000150b:	72 eb                	jb     0x100014f8
1000150d:	5f                   	pop    %edi
1000150e:	5e                   	pop    %esi
1000150f:	8b e5                	mov    %ebp,%esp
10001511:	5d                   	pop    %ebp
10001512:	c3                   	ret    
10001513:	55                   	push   %ebp
10001514:	8b ec                	mov    %esp,%ebp
10001516:	81 ec bc 01 00 00    	sub    $0x1bc,%esp
1000151c:	53                   	push   %ebx
1000151d:	56                   	push   %esi
1000151e:	57                   	push   %edi
1000151f:	ff 35 24 40 01 10    	pushl  0x10014024
10001525:	be 28 40 01 10       	mov    $0x10014028,%esi
1000152a:	56                   	push   %esi
1000152b:	6a 00                	push   $0x0
1000152d:	e8 0e 57 00 00       	call   0x10006c40
10001532:	83 c4 0c             	add    $0xc,%esp
10001535:	3b 05 20 40 01 10    	cmp    0x10014020,%eax
1000153b:	75 75                	jne    0x100015b2
1000153d:	ff 35 24 40 01 10    	pushl  0x10014024
10001543:	e8 40 35 00 00       	call   0x10004a88
10001548:	8b d8                	mov    %eax,%ebx
1000154a:	59                   	pop    %ecx
1000154b:	85 db                	test   %ebx,%ebx
1000154d:	74 63                	je     0x100015b2
1000154f:	53                   	push   %ebx
10001550:	ff 35 24 40 01 10    	pushl  0x10014024
10001556:	56                   	push   %esi
10001557:	6a 20                	push   $0x20
10001559:	68 00 40 01 10       	push   $0x10014000
1000155e:	e8 90 58 00 00       	call   0x10006df3
10001563:	83 a5 78 fe ff ff 00 	andl   $0x0,-0x188(%ebp)
1000156a:	8d bd 7c fe ff ff    	lea    -0x184(%ebp),%edi
10001570:	33 c0                	xor    %eax,%eax
10001572:	ab                   	stos   %eax,%es:(%edi)
10001573:	53                   	push   %ebx
10001574:	ab                   	stos   %eax,%es:(%edi)
10001575:	ab                   	stos   %eax,%es:(%edi)
10001576:	ab                   	stos   %eax,%es:(%edi)
10001577:	ab                   	stos   %eax,%es:(%edi)
10001578:	c7 85 80 fe ff ff 88 	movl   $0x10004a88,-0x180(%ebp)
1000157f:	4a 00 10 
10001582:	c7 85 84 fe ff ff d5 	movl   $0x10004ad5,-0x17c(%ebp)
10001589:	4a 00 10 
1000158c:	e8 87 4f 00 00       	call   0x10006518
10001591:	50                   	push   %eax
10001592:	8d 85 78 fe ff ff    	lea    -0x188(%ebp),%eax
10001598:	53                   	push   %ebx
10001599:	50                   	push   %eax
1000159a:	e8 f6 a3 00 00       	call   0x1000b995
1000159f:	8b f0                	mov    %eax,%esi
100015a1:	83 c4 24             	add    $0x24,%esp
100015a4:	89 75 bc             	mov    %esi,-0x44(%ebp)
100015a7:	85 f6                	test   %esi,%esi
100015a9:	75 10                	jne    0x100015bb
100015ab:	53                   	push   %ebx
100015ac:	e8 24 35 00 00       	call   0x10004ad5
100015b1:	59                   	pop    %ecx
100015b2:	33 c0                	xor    %eax,%eax
100015b4:	5f                   	pop    %edi
100015b5:	5e                   	pop    %esi
100015b6:	5b                   	pop    %ebx
100015b7:	8b e5                	mov    %ebp,%esp
100015b9:	5d                   	pop    %ebp
100015ba:	c3                   	ret    
100015bb:	8d 45 fc             	lea    -0x4(%ebp),%eax
100015be:	50                   	push   %eax
100015bf:	6a 02                	push   $0x2
100015c1:	6a 09                	push   $0x9
100015c3:	68 fa 02 00 00       	push   $0x2fa
100015c8:	68 70 12 01 10       	push   $0x10011270
100015cd:	e8 eb 4a 00 00       	call   0x100060bd
100015d2:	8d 45 e8             	lea    -0x18(%ebp),%eax
100015d5:	c6 45 fe 00          	movb   $0x0,-0x2(%ebp)
100015d9:	50                   	push   %eax
100015da:	6a 03                	push   $0x3
100015dc:	5f                   	pop    %edi
100015dd:	57                   	push   %edi
100015de:	6a 09                	push   $0x9
100015e0:	68 4d 07 00 00       	push   $0x74d
100015e5:	68 70 12 01 10       	push   $0x10011270
100015ea:	e8 ce 4a 00 00       	call   0x100060bd
100015ef:	8d 45 e4             	lea    -0x1c(%ebp),%eax
100015f2:	c6 45 eb 00          	movb   $0x0,-0x15(%ebp)
100015f6:	50                   	push   %eax
100015f7:	57                   	push   %edi
100015f8:	6a 0a                	push   $0xa
100015fa:	68 11 02 00 00       	push   $0x211
100015ff:	68 70 12 01 10       	push   $0x10011270
10001604:	e8 b4 4a 00 00       	call   0x100060bd
10001609:	8d 45 e0             	lea    -0x20(%ebp),%eax
1000160c:	c6 45 e7 00          	movb   $0x0,-0x19(%ebp)
10001610:	50                   	push   %eax
10001611:	57                   	push   %edi
10001612:	6a 04                	push   $0x4
10001614:	68 d8 03 00 00       	push   $0x3d8
10001619:	68 70 12 01 10       	push   $0x10011270
1000161e:	e8 9a 4a 00 00       	call   0x100060bd
10001623:	83 c4 50             	add    $0x50,%esp
10001626:	c6 45 e3 00          	movb   $0x0,-0x1d(%ebp)
1000162a:	8d 45 dc             	lea    -0x24(%ebp),%eax
1000162d:	50                   	push   %eax
1000162e:	57                   	push   %edi
1000162f:	6a 08                	push   $0x8
10001631:	68 86 04 00 00       	push   $0x486
10001636:	68 70 12 01 10       	push   $0x10011270
1000163b:	e8 7d 4a 00 00       	call   0x100060bd
10001640:	8d 45 d8             	lea    -0x28(%ebp),%eax
10001643:	c6 45 df 00          	movb   $0x0,-0x21(%ebp)
10001647:	50                   	push   %eax
10001648:	57                   	push   %edi
10001649:	6a 0e                	push   $0xe
1000164b:	68 8c 0b 00 00       	push   $0xb8c
10001650:	68 70 12 01 10       	push   $0x10011270
10001655:	e8 63 4a 00 00       	call   0x100060bd
1000165a:	8d 45 d4             	lea    -0x2c(%ebp),%eax
1000165d:	c6 45 db 00          	movb   $0x0,-0x25(%ebp)
10001661:	50                   	push   %eax
10001662:	57                   	push   %edi
10001663:	6a 04                	push   $0x4
10001665:	68 85 09 00 00       	push   $0x985
1000166a:	68 70 12 01 10       	push   $0x10011270
1000166f:	e8 49 4a 00 00       	call   0x100060bd
10001674:	8d 45 d0             	lea    -0x30(%ebp),%eax
10001677:	c6 45 d7 00          	movb   $0x0,-0x29(%ebp)
1000167b:	50                   	push   %eax
1000167c:	57                   	push   %edi
1000167d:	6a 10                	push   $0x10
1000167f:	68 00 0a 00 00       	push   $0xa00
10001684:	68 70 12 01 10       	push   $0x10011270
10001689:	e8 2f 4a 00 00       	call   0x100060bd
1000168e:	83 c4 50             	add    $0x50,%esp
10001691:	c6 45 d3 00          	movb   $0x0,-0x2d(%ebp)
10001695:	8d 45 cc             	lea    -0x34(%ebp),%eax
10001698:	50                   	push   %eax
10001699:	57                   	push   %edi
1000169a:	6a 0a                	push   $0xa
1000169c:	68 a0 04 00 00       	push   $0x4a0
100016a1:	68 70 12 01 10       	push   $0x10011270
100016a6:	e8 12 4a 00 00       	call   0x100060bd
100016ab:	8d 45 b0             	lea    -0x50(%ebp),%eax
100016ae:	c6 45 cf 00          	movb   $0x0,-0x31(%ebp)
100016b2:	50                   	push   %eax
100016b3:	6a 05                	push   $0x5
100016b5:	6a 0e                	push   $0xe
100016b7:	68 60 04 00 00       	push   $0x460
100016bc:	68 70 12 01 10       	push   $0x10011270
100016c1:	e8 f7 49 00 00       	call   0x100060bd
100016c6:	8d 45 a8             	lea    -0x58(%ebp),%eax
100016c9:	c6 45 b5 00          	movb   $0x0,-0x4b(%ebp)
100016cd:	50                   	push   %eax
100016ce:	6a 05                	push   $0x5
100016d0:	6a 0d                	push   $0xd
100016d2:	68 d9 06 00 00       	push   $0x6d9
100016d7:	68 70 12 01 10       	push   $0x10011270
100016dc:	e8 dc 49 00 00       	call   0x100060bd
100016e1:	8d 45 c8             	lea    -0x38(%ebp),%eax
100016e4:	c6 45 ad 00          	movb   $0x0,-0x53(%ebp)
100016e8:	50                   	push   %eax
100016e9:	57                   	push   %edi
100016ea:	6a 0e                	push   $0xe
100016ec:	68 10 01 00 00       	push   $0x110
100016f1:	bf 70 12 01 10       	mov    $0x10011270,%edi
100016f6:	57                   	push   %edi
100016f7:	e8 c1 49 00 00       	call   0x100060bd
100016fc:	83 c4 50             	add    $0x50,%esp
100016ff:	c6 45 cb 00          	movb   $0x0,-0x35(%ebp)
10001703:	8d 45 f8             	lea    -0x8(%ebp),%eax
10001706:	50                   	push   %eax
10001707:	6a 02                	push   $0x2
10001709:	6a 09                	push   $0x9
1000170b:	68 cc 0c 00 00       	push   $0xccc
10001710:	57                   	push   %edi
10001711:	e8 a7 49 00 00       	call   0x100060bd
10001716:	8d 45 a0             	lea    -0x60(%ebp),%eax
10001719:	c6 45 fa 00          	movb   $0x0,-0x6(%ebp)
1000171d:	50                   	push   %eax
1000171e:	6a 06                	push   $0x6
10001720:	5f                   	pop    %edi
10001721:	57                   	push   %edi
10001722:	6a 10                	push   $0x10
10001724:	68 bc 00 00 00       	push   $0xbc
10001729:	68 70 12 01 10       	push   $0x10011270
1000172e:	e8 8a 49 00 00       	call   0x100060bd
10001733:	8d 45 c4             	lea    -0x3c(%ebp),%eax
10001736:	c6 45 a6 00          	movb   $0x0,-0x5a(%ebp)
1000173a:	50                   	push   %eax
1000173b:	6a 03                	push   $0x3
1000173d:	6a 09                	push   $0x9
1000173f:	68 07 0d 00 00       	push   $0xd07
10001744:	68 70 12 01 10       	push   $0x10011270
10001749:	e8 6f 49 00 00       	call   0x100060bd
1000174e:	8d 45 98             	lea    -0x68(%ebp),%eax
10001751:	c6 45 c7 00          	movb   $0x0,-0x39(%ebp)
10001755:	50                   	push   %eax
10001756:	57                   	push   %edi
10001757:	6a 09                	push   $0x9
10001759:	68 1d 0a 00 00       	push   $0xa1d
1000175e:	68 70 12 01 10       	push   $0x10011270
10001763:	e8 55 49 00 00       	call   0x100060bd
10001768:	83 c4 50             	add    $0x50,%esp
1000176b:	c6 45 9e 00          	movb   $0x0,-0x62(%ebp)
1000176f:	8d 45 c0             	lea    -0x40(%ebp),%eax
10001772:	50                   	push   %eax
10001773:	6a 03                	push   $0x3
10001775:	6a 04                	push   $0x4
10001777:	68 02 01 00 00       	push   $0x102
1000177c:	68 70 12 01 10       	push   $0x10011270
10001781:	e8 37 49 00 00       	call   0x100060bd
10001786:	8d 45 fc             	lea    -0x4(%ebp),%eax
10001789:	c6 45 c3 00          	movb   $0x0,-0x3d(%ebp)
1000178d:	89 85 c0 fe ff ff    	mov    %eax,-0x140(%ebp)
10001793:	8d 45 e8             	lea    -0x18(%ebp),%eax
10001796:	89 85 cc fe ff ff    	mov    %eax,-0x134(%ebp)
1000179c:	8d 45 e4             	lea    -0x1c(%ebp),%eax
1000179f:	6a 05                	push   $0x5
100017a1:	5a                   	pop    %edx
100017a2:	89 85 d8 fe ff ff    	mov    %eax,-0x128(%ebp)
100017a8:	8d 45 e0             	lea    -0x20(%ebp),%eax
100017ab:	89 95 c4 fe ff ff    	mov    %edx,-0x13c(%ebp)
100017b1:	c7 85 c8 fe ff ff a7 	movl   $0x100011a7,-0x138(%ebp)
100017b8:	11 00 10 
100017bb:	89 95 d0 fe ff ff    	mov    %edx,-0x130(%ebp)
100017c1:	c7 85 d4 fe ff ff 88 	movl   $0x10001188,-0x12c(%ebp)
100017c8:	11 00 10 
100017cb:	89 95 dc fe ff ff    	mov    %edx,-0x124(%ebp)
100017d1:	c7 85 e0 fe ff ff 8a 	movl   $0x1000128a,-0x120(%ebp)
100017d8:	12 00 10 
100017db:	89 85 e4 fe ff ff    	mov    %eax,-0x11c(%ebp)
100017e1:	89 bd e8 fe ff ff    	mov    %edi,-0x118(%ebp)
100017e7:	8d 45 dc             	lea    -0x24(%ebp),%eax
100017ea:	89 95 18 ff ff ff    	mov    %edx,-0xe8(%ebp)
100017f0:	89 85 f0 fe ff ff    	mov    %eax,-0x110(%ebp)
100017f6:	33 ff                	xor    %edi,%edi
100017f8:	8d 45 d8             	lea    -0x28(%ebp),%eax
100017fb:	89 95 30 ff ff ff    	mov    %edx,-0xd0(%ebp)
10001801:	89 85 fc fe ff ff    	mov    %eax,-0x104(%ebp)
10001807:	47                   	inc    %edi
10001808:	8d 45 d4             	lea    -0x2c(%ebp),%eax
1000180b:	89 95 3c ff ff ff    	mov    %edx,-0xc4(%ebp)
10001811:	89 85 08 ff ff ff    	mov    %eax,-0xf8(%ebp)
10001817:	8d 45 d0             	lea    -0x30(%ebp),%eax
1000181a:	89 85 14 ff ff ff    	mov    %eax,-0xec(%ebp)
10001820:	8d 45 cc             	lea    -0x34(%ebp),%eax
10001823:	89 85 20 ff ff ff    	mov    %eax,-0xe0(%ebp)
10001829:	8d 45 b0             	lea    -0x50(%ebp),%eax
1000182c:	89 85 2c ff ff ff    	mov    %eax,-0xd4(%ebp)
10001832:	8d 45 a8             	lea    -0x58(%ebp),%eax
10001835:	89 85 38 ff ff ff    	mov    %eax,-0xc8(%ebp)
1000183b:	8d 45 c8             	lea    -0x38(%ebp),%eax
1000183e:	89 85 44 ff ff ff    	mov    %eax,-0xbc(%ebp)
10001844:	8d 45 f8             	lea    -0x8(%ebp),%eax
10001847:	6a 02                	push   $0x2
10001849:	59                   	pop    %ecx
1000184a:	89 85 50 ff ff ff    	mov    %eax,-0xb0(%ebp)
10001850:	8d 45 a0             	lea    -0x60(%ebp),%eax
10001853:	89 85 5c ff ff ff    	mov    %eax,-0xa4(%ebp)
10001859:	8d 45 c4             	lea    -0x3c(%ebp),%eax
1000185c:	6a 06                	push   $0x6
1000185e:	89 85 68 ff ff ff    	mov    %eax,-0x98(%ebp)
10001864:	8d 45 c0             	lea    -0x40(%ebp),%eax
10001867:	89 8d 00 ff ff ff    	mov    %ecx,-0x100(%ebp)
1000186d:	89 8d 0c ff ff ff    	mov    %ecx,-0xf4(%ebp)
10001873:	59                   	pop    %ecx
10001874:	6a 03                	push   $0x3
10001876:	89 85 74 ff ff ff    	mov    %eax,-0x8c(%ebp)
1000187c:	8d 45 98             	lea    -0x68(%ebp),%eax
1000187f:	89 95 48 ff ff ff    	mov    %edx,-0xb8(%ebp)
10001885:	5a                   	pop    %edx
10001886:	89 45 80             	mov    %eax,-0x80(%ebp)
10001889:	8d 85 c0 fe ff ff    	lea    -0x140(%ebp),%eax
1000188f:	6a 11                	push   $0x11
10001891:	50                   	push   %eax
10001892:	56                   	push   %esi
10001893:	c7 85 ec fe ff ff 7e 	movl   $0x1000107e,-0x114(%ebp)
1000189a:	10 00 10 
1000189d:	89 bd f4 fe ff ff    	mov    %edi,-0x10c(%ebp)
100018a3:	c7 85 f8 fe ff ff 3f 	movl   $0x1000133f,-0x108(%ebp)
100018aa:	13 00 10 
100018ad:	c7 85 04 ff ff ff 04 	movl   $0x10001204,-0xfc(%ebp)
100018b4:	12 00 10 
100018b7:	c7 85 10 ff ff ff 47 	movl   $0x10001247,-0xf0(%ebp)
100018be:	12 00 10 
100018c1:	c7 85 1c ff ff ff 91 	movl   $0x10001091,-0xe4(%ebp)
100018c8:	10 00 10 
100018cb:	89 8d 24 ff ff ff    	mov    %ecx,-0xdc(%ebp)
100018d1:	c7 85 28 ff ff ff 16 	movl   $0x10001116,-0xd8(%ebp)
100018d8:	11 00 10 
100018db:	c7 85 34 ff ff ff 29 	movl   $0x10001129,-0xcc(%ebp)
100018e2:	11 00 10 
100018e5:	c7 85 40 ff ff ff 69 	movl   $0x10001169,-0xc0(%ebp)
100018ec:	11 00 10 
100018ef:	c7 85 4c ff ff ff d6 	movl   $0x100010d6,-0xb4(%ebp)
100018f6:	10 00 10 
100018f9:	89 95 54 ff ff ff    	mov    %edx,-0xac(%ebp)
100018ff:	c7 85 58 ff ff ff b0 	movl   $0x100010b0,-0xa8(%ebp)
10001906:	10 00 10 
10001909:	89 95 60 ff ff ff    	mov    %edx,-0xa0(%ebp)
1000190f:	c7 85 64 ff ff ff 77 	movl   $0x10001277,-0x9c(%ebp)
10001916:	12 00 10 
10001919:	89 8d 6c ff ff ff    	mov    %ecx,-0x94(%ebp)
1000191f:	c7 85 70 ff ff ff 6b 	movl   $0x1000106b,-0x90(%ebp)
10001926:	10 00 10 
10001929:	89 8d 78 ff ff ff    	mov    %ecx,-0x88(%ebp)
1000192f:	c7 85 7c ff ff ff c3 	movl   $0x100010c3,-0x84(%ebp)
10001936:	10 00 10 
10001939:	89 55 84             	mov    %edx,-0x7c(%ebp)
1000193c:	c7 45 88 34 12 00 10 	movl   $0x10001234,-0x78(%ebp)
10001943:	e8 79 50 00 00       	call   0x100069c1
10001948:	ff 75 bc             	pushl  -0x44(%ebp)
1000194b:	8b f0                	mov    %eax,%esi
1000194d:	8d 85 78 fe ff ff    	lea    -0x188(%ebp),%eax
10001953:	50                   	push   %eax
10001954:	e8 86 ac 00 00       	call   0x1000c5df
10001959:	53                   	push   %ebx
1000195a:	e8 76 31 00 00       	call   0x10004ad5
1000195f:	83 c4 2c             	add    $0x2c,%esp
10001962:	85 f6                	test   %esi,%esi
10001964:	0f 84 48 fc ff ff    	je     0x100015b2
1000196a:	e8 48 09 00 00       	call   0x100022b7
1000196f:	a3 34 32 01 10       	mov    %eax,0x10013234
10001974:	bb 70 12 01 10       	mov    $0x10011270,%ebx
10001979:	8d 45 ec             	lea    -0x14(%ebp),%eax
1000197c:	50                   	push   %eax
1000197d:	6a 08                	push   $0x8
1000197f:	6a 0e                	push   $0xe
10001981:	68 a6 01 00 00       	push   $0x1a6
10001986:	53                   	push   %ebx
10001987:	e8 31 47 00 00       	call   0x100060bd
1000198c:	33 c0                	xor    %eax,%eax
1000198e:	66 89 45 f4          	mov    %ax,-0xc(%ebp)
10001992:	8d 45 8c             	lea    -0x74(%ebp),%eax
10001995:	50                   	push   %eax
10001996:	6a 08                	push   $0x8
10001998:	6a 04                	push   $0x4
1000199a:	68 e2 00 00 00       	push   $0xe2
1000199f:	53                   	push   %ebx
100019a0:	e8 18 47 00 00       	call   0x100060bd
100019a5:	33 c0                	xor    %eax,%eax
100019a7:	66 89 45 94          	mov    %ax,-0x6c(%ebp)
100019ab:	8d 85 b4 fe ff ff    	lea    -0x14c(%ebp),%eax
100019b1:	50                   	push   %eax
100019b2:	6a 0a                	push   $0xa
100019b4:	6a 08                	push   $0x8
100019b6:	68 8c 01 00 00       	push   $0x18c
100019bb:	53                   	push   %ebx
100019bc:	e8 fc 46 00 00       	call   0x100060bd
100019c1:	33 c0                	xor    %eax,%eax
100019c3:	50                   	push   %eax
100019c4:	6a 20                	push   $0x20
100019c6:	68 20 31 01 10       	push   $0x10013120
100019cb:	66 89 85 be fe ff ff 	mov    %ax,-0x142(%ebp)
100019d2:	e8 43 46 00 00       	call   0x1000601a
100019d7:	83 c4 48             	add    $0x48,%esp
100019da:	a3 2c 32 01 10       	mov    %eax,0x1001322c
100019df:	e8 18 38 00 00       	call   0x100051fc
100019e4:	a3 30 32 01 10       	mov    %eax,0x10013230
100019e9:	85 c0                	test   %eax,%eax
100019eb:	75 0f                	jne    0x100019fc
100019ed:	8d 45 ec             	lea    -0x14(%ebp),%eax
100019f0:	50                   	push   %eax
100019f1:	e8 e7 4a 00 00       	call   0x100064dd
100019f6:	59                   	pop    %ecx
100019f7:	a3 30 32 01 10       	mov    %eax,0x10013230
100019fc:	e8 b8 02 00 00       	call   0x10001cb9
10001a01:	a3 28 32 01 10       	mov    %eax,0x10013228
10001a06:	e8 2e 39 00 00       	call   0x10005339
10001a0b:	a3 38 32 01 10       	mov    %eax,0x10013238
10001a10:	85 c0                	test   %eax,%eax
10001a12:	75 0f                	jne    0x10001a23
10001a14:	8d 45 ec             	lea    -0x14(%ebp),%eax
10001a17:	50                   	push   %eax
10001a18:	e8 c0 4a 00 00       	call   0x100064dd
10001a1d:	59                   	pop    %ecx
10001a1e:	a3 38 32 01 10       	mov    %eax,0x10013238
10001a23:	e8 7d 34 00 00       	call   0x10004ea5
10001a28:	a3 3c 32 01 10       	mov    %eax,0x1001323c
10001a2d:	85 c0                	test   %eax,%eax
10001a2f:	75 0f                	jne    0x10001a40
10001a31:	8d 45 ec             	lea    -0x14(%ebp),%eax
10001a34:	50                   	push   %eax
10001a35:	e8 a3 4a 00 00       	call   0x100064dd
10001a3a:	59                   	pop    %ecx
10001a3b:	a3 3c 32 01 10       	mov    %eax,0x1001323c
10001a40:	e8 c6 35 00 00       	call   0x1000500b
10001a45:	a3 40 32 01 10       	mov    %eax,0x10013240
10001a4a:	85 c0                	test   %eax,%eax
10001a4c:	75 0f                	jne    0x10001a5d
10001a4e:	8d 45 ec             	lea    -0x14(%ebp),%eax
10001a51:	50                   	push   %eax
10001a52:	e8 86 4a 00 00       	call   0x100064dd
10001a57:	59                   	pop    %ecx
10001a58:	a3 40 32 01 10       	mov    %eax,0x10013240
10001a5d:	e8 c5 36 00 00       	call   0x10005127
10001a62:	a3 44 32 01 10       	mov    %eax,0x10013244
10001a67:	85 c0                	test   %eax,%eax
10001a69:	75 0f                	jne    0x10001a7a
10001a6b:	8d 45 ec             	lea    -0x14(%ebp),%eax
10001a6e:	50                   	push   %eax
10001a6f:	e8 69 4a 00 00       	call   0x100064dd
10001a74:	59                   	pop    %ecx
10001a75:	a3 44 32 01 10       	mov    %eax,0x10013244
10001a7a:	e8 9a 39 00 00       	call   0x10005419
10001a7f:	85 c0                	test   %eax,%eax
10001a81:	8d 95 b4 fe ff ff    	lea    -0x14c(%ebp),%edx
10001a87:	8d 4d 8c             	lea    -0x74(%ebp),%ecx
10001a8a:	0f 44 ca             	cmove  %edx,%ecx
10001a8d:	51                   	push   %ecx
10001a8e:	e8 4a 4a 00 00       	call   0x100064dd
10001a93:	59                   	pop    %ecx
10001a94:	a3 48 32 01 10       	mov    %eax,0x10013248
10001a99:	e8 25 38 00 00       	call   0x100052c3
10001a9e:	a3 4c 32 01 10       	mov    %eax,0x1001324c
10001aa3:	85 c0                	test   %eax,%eax
10001aa5:	75 0f                	jne    0x10001ab6
10001aa7:	8d 45 ec             	lea    -0x14(%ebp),%eax
10001aaa:	50                   	push   %eax
10001aab:	e8 2d 4a 00 00       	call   0x100064dd
10001ab0:	59                   	pop    %ecx
10001ab1:	a3 4c 32 01 10       	mov    %eax,0x1001324c
10001ab6:	8d 45 b8             	lea    -0x48(%ebp),%eax
10001ab9:	50                   	push   %eax
10001aba:	e8 25 34 00 00       	call   0x10004ee4
10001abf:	6b 4d b8 16          	imul   $0x16,-0x48(%ebp),%ecx
10001ac3:	8b f0                	mov    %eax,%esi
10001ac5:	6a 00                	push   $0x0
10001ac7:	51                   	push   %ecx
10001ac8:	56                   	push   %esi
10001ac9:	e8 4c 45 00 00       	call   0x1000601a
10001ace:	56                   	push   %esi
10001acf:	a3 50 32 01 10       	mov    %eax,0x10013250
10001ad4:	e8 fc 2f 00 00       	call   0x10004ad5
10001ad9:	e8 5e 3a 00 00       	call   0x1000553c
10001ade:	f7 d8                	neg    %eax
10001ae0:	1b c0                	sbb    %eax,%eax
10001ae2:	83 e0 ea             	and    $0xffffffea,%eax
10001ae5:	83 c0 56             	add    $0x56,%eax
10001ae8:	a3 ac 32 01 10       	mov    %eax,0x100132ac
10001aed:	e8 4f 06 00 00       	call   0x10002141
10001af2:	e8 34 07 00 00       	call   0x1000222b
10001af7:	e8 bb 04 00 00       	call   0x10001fb7
10001afc:	8d 85 68 fe ff ff    	lea    -0x198(%ebp),%eax
10001b02:	50                   	push   %eax
10001b03:	6a 0c                	push   $0xc
10001b05:	6a 0f                	push   $0xf
10001b07:	68 0c 06 00 00       	push   $0x60c
10001b0c:	53                   	push   %ebx
10001b0d:	e8 ab 45 00 00       	call   0x100060bd
10001b12:	33 c0                	xor    %eax,%eax
10001b14:	66 89 85 74 fe ff ff 	mov    %ax,-0x18c(%ebp)
10001b1b:	8d 85 44 fe ff ff    	lea    -0x1bc(%ebp),%eax
10001b21:	50                   	push   %eax
10001b22:	6a 10                	push   $0x10
10001b24:	6a 10                	push   $0x10
10001b26:	68 47 0b 00 00       	push   $0xb47
10001b2b:	53                   	push   %ebx
10001b2c:	e8 8c 45 00 00       	call   0x100060bd
10001b31:	33 c0                	xor    %eax,%eax
10001b33:	66 89 85 54 fe ff ff 	mov    %ax,-0x1ac(%ebp)
10001b3a:	8d 85 a8 fe ff ff    	lea    -0x158(%ebp),%eax
10001b40:	50                   	push   %eax
10001b41:	6a 0a                	push   $0xa
10001b43:	6a 07                	push   $0x7
10001b45:	68 6d 0b 00 00       	push   $0xb6d
10001b4a:	53                   	push   %ebx
10001b4b:	e8 6d 45 00 00       	call   0x100060bd
10001b50:	83 c4 50             	add    $0x50,%esp
10001b53:	33 c0                	xor    %eax,%eax
10001b55:	66 89 85 b2 fe ff ff 	mov    %ax,-0x14e(%ebp)
10001b5c:	8d 85 58 fe ff ff    	lea    -0x1a8(%ebp),%eax
10001b62:	50                   	push   %eax
10001b63:	6a 0e                	push   $0xe
10001b65:	6a 04                	push   $0x4
10001b67:	68 51 03 00 00       	push   $0x351
10001b6c:	53                   	push   %ebx
10001b6d:	e8 4b 45 00 00       	call   0x100060bd
10001b72:	33 c0                	xor    %eax,%eax
10001b74:	66 89 85 66 fe ff ff 	mov    %ax,-0x19a(%ebp)
10001b7b:	8d 85 68 fe ff ff    	lea    -0x198(%ebp),%eax
10001b81:	50                   	push   %eax
10001b82:	e8 52 f8 ff ff       	call   0x100013d9
10001b87:	f7 d8                	neg    %eax
10001b89:	1b c0                	sbb    %eax,%eax
10001b8b:	40                   	inc    %eax
10001b8c:	a3 c4 32 01 10       	mov    %eax,0x100132c4
10001b91:	8d 85 44 fe ff ff    	lea    -0x1bc(%ebp),%eax
10001b97:	50                   	push   %eax
10001b98:	e8 3c f8 ff ff       	call   0x100013d9
10001b9d:	f7 d8                	neg    %eax
10001b9f:	1b c0                	sbb    %eax,%eax
10001ba1:	40                   	inc    %eax
10001ba2:	a3 c8 32 01 10       	mov    %eax,0x100132c8
10001ba7:	8d 85 a8 fe ff ff    	lea    -0x158(%ebp),%eax
10001bad:	50                   	push   %eax
10001bae:	e8 26 f8 ff ff       	call   0x100013d9
10001bb3:	a3 cc 32 01 10       	mov    %eax,0x100132cc
10001bb8:	8d 85 58 fe ff ff    	lea    -0x1a8(%ebp),%eax
10001bbe:	50                   	push   %eax
10001bbf:	e8 15 f8 ff ff       	call   0x100013d9
10001bc4:	f7 d8                	neg    %eax
10001bc6:	1b c0                	sbb    %eax,%eax
10001bc8:	40                   	inc    %eax
10001bc9:	a3 d0 32 01 10       	mov    %eax,0x100132d0
10001bce:	8d 85 9c fe ff ff    	lea    -0x164(%ebp),%eax
10001bd4:	50                   	push   %eax
10001bd5:	6a 0a                	push   $0xa
10001bd7:	6a 0c                	push   $0xc
10001bd9:	68 4c 01 00 00       	push   $0x14c
10001bde:	53                   	push   %ebx
10001bdf:	e8 d9 44 00 00       	call   0x100060bd
10001be4:	33 c0                	xor    %eax,%eax
10001be6:	66 89 85 a6 fe ff ff 	mov    %ax,-0x15a(%ebp)
10001bed:	8d 85 9c fe ff ff    	lea    -0x164(%ebp),%eax
10001bf3:	50                   	push   %eax
10001bf4:	e8 e0 f7 ff ff       	call   0x100013d9
10001bf9:	a3 bc 32 01 10       	mov    %eax,0x100132bc
10001bfe:	8d 85 90 fe ff ff    	lea    -0x170(%ebp),%eax
10001c04:	50                   	push   %eax
10001c05:	6a 0a                	push   $0xa
10001c07:	6a 0e                	push   $0xe
10001c09:	68 29 02 00 00       	push   $0x229
10001c0e:	53                   	push   %ebx
10001c0f:	e8 a9 44 00 00       	call   0x100060bd
10001c14:	33 c0                	xor    %eax,%eax
10001c16:	83 c4 50             	add    $0x50,%esp
10001c19:	66 89 85 9a fe ff ff 	mov    %ax,-0x166(%ebp)
10001c20:	8d 85 90 fe ff ff    	lea    -0x170(%ebp),%eax
10001c26:	50                   	push   %eax
10001c27:	e8 ad f7 ff ff       	call   0x100013d9
10001c2c:	83 3d 2c 32 01 10 00 	cmpl   $0x0,0x1001322c
10001c33:	59                   	pop    %ecx
10001c34:	a3 c0 32 01 10       	mov    %eax,0x100132c0
10001c39:	74 75                	je     0x10001cb0
10001c3b:	83 3d 30 32 01 10 00 	cmpl   $0x0,0x10013230
10001c42:	74 6c                	je     0x10001cb0
10001c44:	83 3d 34 32 01 10 00 	cmpl   $0x0,0x10013234
10001c4b:	74 63                	je     0x10001cb0
10001c4d:	83 3d 28 32 01 10 00 	cmpl   $0x0,0x10013228
10001c54:	74 5a                	je     0x10001cb0
10001c56:	83 3d 38 32 01 10 00 	cmpl   $0x0,0x10013238
10001c5d:	74 51                	je     0x10001cb0
10001c5f:	83 3d 3c 32 01 10 00 	cmpl   $0x0,0x1001323c
10001c66:	74 48                	je     0x10001cb0
10001c68:	83 3d 40 32 01 10 00 	cmpl   $0x0,0x10013240
10001c6f:	74 3f                	je     0x10001cb0
10001c71:	83 3d 44 32 01 10 00 	cmpl   $0x0,0x10013244
10001c78:	74 36                	je     0x10001cb0
10001c7a:	83 3d 48 32 01 10 00 	cmpl   $0x0,0x10013248
10001c81:	74 2d                	je     0x10001cb0
10001c83:	83 3d 4c 32 01 10 00 	cmpl   $0x0,0x1001324c
10001c8a:	74 24                	je     0x10001cb0
10001c8c:	83 3d 50 32 01 10 00 	cmpl   $0x0,0x10013250
10001c93:	74 1b                	je     0x10001cb0
10001c95:	83 3d 1c 32 01 10 00 	cmpl   $0x0,0x1001321c
10001c9c:	74 12                	je     0x10001cb0
10001c9e:	83 3d 20 32 01 10 00 	cmpl   $0x0,0x10013220
10001ca5:	74 09                	je     0x10001cb0
10001ca7:	83 3d 24 32 01 10 00 	cmpl   $0x0,0x10013224
10001cae:	75 02                	jne    0x10001cb2
10001cb0:	33 ff                	xor    %edi,%edi
10001cb2:	8b c7                	mov    %edi,%eax
10001cb4:	e9 fb f8 ff ff       	jmp    0x100015b4
10001cb9:	55                   	push   %ebp
10001cba:	8b ec                	mov    %esp,%ebp
10001cbc:	83 ec 4c             	sub    $0x4c,%esp
10001cbf:	53                   	push   %ebx
10001cc0:	56                   	push   %esi
10001cc1:	57                   	push   %edi
10001cc2:	8d 45 b4             	lea    -0x4c(%ebp),%eax
10001cc5:	be 70 12 01 10       	mov    $0x10011270,%esi
10001cca:	50                   	push   %eax
10001ccb:	6a 32                	push   $0x32
10001ccd:	6a 07                	push   $0x7
10001ccf:	6a 74                	push   $0x74
10001cd1:	56                   	push   %esi
10001cd2:	e8 e6 43 00 00       	call   0x100060bd
10001cd7:	33 c0                	xor    %eax,%eax
10001cd9:	66 89 45 e6          	mov    %ax,-0x1a(%ebp)
10001cdd:	8d 45 e8             	lea    -0x18(%ebp),%eax
10001ce0:	50                   	push   %eax
10001ce1:	6a 0e                	push   $0xe
10001ce3:	6a 08                	push   $0x8
10001ce5:	68 e8 03 00 00       	push   $0x3e8
10001cea:	56                   	push   %esi
10001ceb:	e8 cd 43 00 00       	call   0x100060bd
10001cf0:	33 c0                	xor    %eax,%eax
10001cf2:	66 89 45 f6          	mov    %ax,-0xa(%ebp)
10001cf6:	8d 45 fc             	lea    -0x4(%ebp),%eax
10001cf9:	50                   	push   %eax
10001cfa:	8d 45 f8             	lea    -0x8(%ebp),%eax
10001cfd:	50                   	push   %eax
10001cfe:	8d 45 e8             	lea    -0x18(%ebp),%eax
10001d01:	50                   	push   %eax
10001d02:	8d 45 b4             	lea    -0x4c(%ebp),%eax
10001d05:	50                   	push   %eax
10001d06:	68 02 00 00 80       	push   $0x80000002
10001d0b:	e8 d4 3a 00 00       	call   0x100057e4
10001d10:	8b f0                	mov    %eax,%esi
10001d12:	83 c4 3c             	add    $0x3c,%esp
10001d15:	bf 6c 32 01 10       	mov    $0x1001326c,%edi
10001d1a:	bb 01 00 00 80       	mov    $0x80000001,%ebx
10001d1f:	85 f6                	test   %esi,%esi
10001d21:	75 1f                	jne    0x10001d42
10001d23:	8d 45 fc             	lea    -0x4(%ebp),%eax
10001d26:	50                   	push   %eax
10001d27:	8d 45 f8             	lea    -0x8(%ebp),%eax
10001d2a:	50                   	push   %eax
10001d2b:	8d 45 e8             	lea    -0x18(%ebp),%eax
10001d2e:	50                   	push   %eax
10001d2f:	8d 45 b4             	lea    -0x4c(%ebp),%eax
10001d32:	50                   	push   %eax
10001d33:	53                   	push   %ebx
10001d34:	e8 ab 3a 00 00       	call   0x100057e4
10001d39:	8b f0                	mov    %eax,%esi
10001d3b:	83 c4 14             	add    $0x14,%esp
10001d3e:	85 f6                	test   %esi,%esi
10001d40:	74 15                	je     0x10001d57
10001d42:	83 7d f8 01          	cmpl   $0x1,-0x8(%ebp)
10001d46:	0f 84 85 00 00 00    	je     0x10001dd1
10001d4c:	85 f6                	test   %esi,%esi
10001d4e:	74 07                	je     0x10001d57
10001d50:	56                   	push   %esi
10001d51:	e8 7f 2d 00 00       	call   0x10004ad5
10001d56:	59                   	pop    %ecx
10001d57:	6a 0a                	push   $0xa
10001d59:	6a 05                	push   $0x5
10001d5b:	e8 66 09 00 00       	call   0x100026c6
10001d60:	59                   	pop    %ecx
10001d61:	59                   	pop    %ecx
10001d62:	eb 22                	jmp    0x10001d86
10001d64:	8d 46 02             	lea    0x2(%esi),%eax
10001d67:	50                   	push   %eax
10001d68:	57                   	push   %edi
10001d69:	e8 2f 4a 00 00       	call   0x1000679d
10001d6e:	59                   	pop    %ecx
10001d6f:	59                   	pop    %ecx
10001d70:	56                   	push   %esi
10001d71:	85 c0                	test   %eax,%eax
10001d73:	74 19                	je     0x10001d8e
10001d75:	e8 5b 2d 00 00       	call   0x10004ad5
10001d7a:	6a 0a                	push   $0xa
10001d7c:	6a 05                	push   $0x5
10001d7e:	e8 43 09 00 00       	call   0x100026c6
10001d83:	83 c4 0c             	add    $0xc,%esp
10001d86:	8b f0                	mov    %eax,%esi
10001d88:	85 f6                	test   %esi,%esi
10001d8a:	75 d8                	jne    0x10001d64
10001d8c:	eb 51                	jmp    0x10001ddf
10001d8e:	e8 98 47 00 00       	call   0x1000652b
10001d93:	8d 04 45 02 00 00 00 	lea    0x2(,%eax,2),%eax
10001d9a:	50                   	push   %eax
10001d9b:	56                   	push   %esi
10001d9c:	89 45 fc             	mov    %eax,-0x4(%ebp)
10001d9f:	8d 45 e8             	lea    -0x18(%ebp),%eax
10001da2:	6a 01                	push   $0x1
10001da4:	50                   	push   %eax
10001da5:	8d 45 b4             	lea    -0x4c(%ebp),%eax
10001da8:	50                   	push   %eax
10001da9:	68 02 00 00 80       	push   $0x80000002
10001dae:	e8 b0 3a 00 00       	call   0x10005863
10001db3:	83 c4 1c             	add    $0x1c,%esp
10001db6:	85 c0                	test   %eax,%eax
10001db8:	75 17                	jne    0x10001dd1
10001dba:	ff 75 fc             	pushl  -0x4(%ebp)
10001dbd:	8d 45 e8             	lea    -0x18(%ebp),%eax
10001dc0:	56                   	push   %esi
10001dc1:	6a 01                	push   $0x1
10001dc3:	50                   	push   %eax
10001dc4:	8d 45 b4             	lea    -0x4c(%ebp),%eax
10001dc7:	50                   	push   %eax
10001dc8:	53                   	push   %ebx
10001dc9:	e8 95 3a 00 00       	call   0x10005863
10001dce:	83 c4 18             	add    $0x18,%esp
10001dd1:	8d 46 02             	lea    0x2(%esi),%eax
10001dd4:	50                   	push   %eax
10001dd5:	57                   	push   %edi
10001dd6:	e8 06 4b 00 00       	call   0x100068e1
10001ddb:	59                   	pop    %ecx
10001ddc:	59                   	pop    %ecx
10001ddd:	8b c6                	mov    %esi,%eax
10001ddf:	5f                   	pop    %edi
10001de0:	5e                   	pop    %esi
10001de1:	5b                   	pop    %ebx
10001de2:	8b e5                	mov    %ebp,%esp
10001de4:	5d                   	pop    %ebp
10001de5:	c3                   	ret    
10001de6:	55                   	push   %ebp
10001de7:	8b ec                	mov    %esp,%ebp
10001de9:	81 ec 88 01 00 00    	sub    $0x188,%esp
10001def:	53                   	push   %ebx
10001df0:	56                   	push   %esi
10001df1:	57                   	push   %edi
10001df2:	8d 45 b4             	lea    -0x4c(%ebp),%eax
10001df5:	bb 70 12 01 10       	mov    $0x10011270,%ebx
10001dfa:	50                   	push   %eax
10001dfb:	6a 32                	push   $0x32
10001dfd:	6a 07                	push   $0x7
10001dff:	6a 74                	push   $0x74
10001e01:	53                   	push   %ebx
10001e02:	e8 b6 42 00 00       	call   0x100060bd
10001e07:	33 c0                	xor    %eax,%eax
10001e09:	66 89 45 e6          	mov    %ax,-0x1a(%ebp)
10001e0d:	8d 45 e8             	lea    -0x18(%ebp),%eax
10001e10:	50                   	push   %eax
10001e11:	6a 10                	push   $0x10
10001e13:	6a 04                	push   $0x4
10001e15:	68 54 09 00 00       	push   $0x954
10001e1a:	53                   	push   %ebx
10001e1b:	e8 9d 42 00 00       	call   0x100060bd
10001e20:	8b 7d 08             	mov    0x8(%ebp),%edi
10001e23:	33 c0                	xor    %eax,%eax
10001e25:	66 89 45 f8          	mov    %ax,-0x8(%ebp)
10001e29:	8d 45 fc             	lea    -0x4(%ebp),%eax
10001e2c:	57                   	push   %edi
10001e2d:	50                   	push   %eax
10001e2e:	8d 45 e8             	lea    -0x18(%ebp),%eax
10001e31:	50                   	push   %eax
10001e32:	8d 45 b4             	lea    -0x4c(%ebp),%eax
10001e35:	50                   	push   %eax
10001e36:	68 02 00 00 80       	push   $0x80000002
10001e3b:	e8 a4 39 00 00       	call   0x100057e4
10001e40:	8b f0                	mov    %eax,%esi
10001e42:	83 c4 3c             	add    $0x3c,%esp
10001e45:	85 f6                	test   %esi,%esi
10001e47:	75 20                	jne    0x10001e69
10001e49:	57                   	push   %edi
10001e4a:	8d 45 fc             	lea    -0x4(%ebp),%eax
10001e4d:	50                   	push   %eax
10001e4e:	8d 45 e8             	lea    -0x18(%ebp),%eax
10001e51:	50                   	push   %eax
10001e52:	8d 45 b4             	lea    -0x4c(%ebp),%eax
10001e55:	50                   	push   %eax
10001e56:	68 01 00 00 80       	push   $0x80000001
10001e5b:	e8 84 39 00 00       	call   0x100057e4
10001e60:	8b f0                	mov    %eax,%esi
10001e62:	83 c4 14             	add    $0x14,%esp
10001e65:	85 f6                	test   %esi,%esi
10001e67:	74 0a                	je     0x10001e73
10001e69:	83 7d fc 03          	cmpl   $0x3,-0x4(%ebp)
10001e6d:	0f 84 0b 01 00 00    	je     0x10001f7e
10001e73:	be 00 00 02 00       	mov    $0x20000,%esi
10001e78:	56                   	push   %esi
10001e79:	e8 0a 2c 00 00       	call   0x10004a88
10001e7e:	8b d8                	mov    %eax,%ebx
10001e80:	59                   	pop    %ecx
10001e81:	85 db                	test   %ebx,%ebx
10001e83:	75 07                	jne    0x10001e8c
10001e85:	33 c0                	xor    %eax,%eax
10001e87:	e9 f4 00 00 00       	jmp    0x10001f80
10001e8c:	8d 85 78 fe ff ff    	lea    -0x188(%ebp),%eax
10001e92:	50                   	push   %eax
10001e93:	68 3a 01 00 00       	push   $0x13a
10001e98:	6a 0a                	push   $0xa
10001e9a:	68 bc 04 00 00       	push   $0x4bc
10001e9f:	68 70 12 01 10       	push   $0x10011270
10001ea4:	e8 14 42 00 00       	call   0x100060bd
10001ea9:	33 c0                	xor    %eax,%eax
10001eab:	66 89 45 b2          	mov    %ax,-0x4e(%ebp)
10001eaf:	a1 28 32 01 10       	mov    0x10013228,%eax
10001eb4:	83 c0 02             	add    $0x2,%eax
10001eb7:	50                   	push   %eax
10001eb8:	ff 35 50 32 01 10    	pushl  0x10013250
10001ebe:	8d 85 78 fe ff ff    	lea    -0x188(%ebp),%eax
10001ec4:	ff 35 ac 32 01 10    	pushl  0x100132ac
10001eca:	ff 35 4c 32 01 10    	pushl  0x1001324c
10001ed0:	ff 35 48 32 01 10    	pushl  0x10013248
10001ed6:	ff 35 44 32 01 10    	pushl  0x10013244
10001edc:	ff 35 40 32 01 10    	pushl  0x10013240
10001ee2:	ff 35 3c 32 01 10    	pushl  0x1001323c
10001ee8:	ff 35 38 32 01 10    	pushl  0x10013238
10001eee:	ff 35 34 32 01 10    	pushl  0x10013234
10001ef4:	ff 35 30 32 01 10    	pushl  0x10013230
10001efa:	ff 35 2c 32 01 10    	pushl  0x1001322c
10001f00:	ff 35 14 32 01 10    	pushl  0x10013214
10001f06:	ff 35 10 32 01 10    	pushl  0x10013210
10001f0c:	68 04 02 00 00       	push   $0x204
10001f11:	50                   	push   %eax
10001f12:	56                   	push   %esi
10001f13:	53                   	push   %ebx
10001f14:	ff 15 90 21 01 10    	call   *0x10012190
10001f1a:	83 c4 5c             	add    $0x5c,%esp
10001f1d:	57                   	push   %edi
10001f1e:	53                   	push   %ebx
10001f1f:	e8 07 46 00 00       	call   0x1000652b
10001f24:	59                   	pop    %ecx
10001f25:	03 c0                	add    %eax,%eax
10001f27:	50                   	push   %eax
10001f28:	53                   	push   %ebx
10001f29:	68 00 10 01 10       	push   $0x10011000
10001f2e:	e8 0f 4f 00 00       	call   0x10006e42
10001f33:	53                   	push   %ebx
10001f34:	8b f0                	mov    %eax,%esi
10001f36:	e8 9a 2b 00 00       	call   0x10004ad5
10001f3b:	83 c4 14             	add    $0x14,%esp
10001f3e:	85 f6                	test   %esi,%esi
10001f40:	0f 84 3f ff ff ff    	je     0x10001e85
10001f46:	ff 37                	pushl  (%edi)
10001f48:	8d 45 e8             	lea    -0x18(%ebp),%eax
10001f4b:	56                   	push   %esi
10001f4c:	6a 03                	push   $0x3
10001f4e:	50                   	push   %eax
10001f4f:	8d 45 b4             	lea    -0x4c(%ebp),%eax
10001f52:	50                   	push   %eax
10001f53:	68 02 00 00 80       	push   $0x80000002
10001f58:	e8 06 39 00 00       	call   0x10005863
10001f5d:	83 c4 18             	add    $0x18,%esp
10001f60:	85 c0                	test   %eax,%eax
10001f62:	75 1a                	jne    0x10001f7e
10001f64:	ff 37                	pushl  (%edi)
10001f66:	8d 45 e8             	lea    -0x18(%ebp),%eax
10001f69:	56                   	push   %esi
10001f6a:	6a 03                	push   $0x3
10001f6c:	50                   	push   %eax
10001f6d:	8d 45 b4             	lea    -0x4c(%ebp),%eax
10001f70:	50                   	push   %eax
10001f71:	68 01 00 00 80       	push   $0x80000001
10001f76:	e8 e8 38 00 00       	call   0x10005863
10001f7b:	83 c4 18             	add    $0x18,%esp
10001f7e:	8b c6                	mov    %esi,%eax
10001f80:	5f                   	pop    %edi
10001f81:	5e                   	pop    %esi
10001f82:	5b                   	pop    %ebx
10001f83:	8b e5                	mov    %ebp,%esp
10001f85:	5d                   	pop    %ebp
10001f86:	c3                   	ret    
10001f87:	55                   	push   %ebp
10001f88:	8b ec                	mov    %esp,%ebp
10001f8a:	57                   	push   %edi
10001f8b:	8b 7d 08             	mov    0x8(%ebp),%edi
10001f8e:	83 7f 08 00          	cmpl   $0x0,0x8(%edi)
10001f92:	74 20                	je     0x10001fb4
10001f94:	56                   	push   %esi
10001f95:	8b 77 08             	mov    0x8(%edi),%esi
10001f98:	8b 46 04             	mov    0x4(%esi),%eax
10001f9b:	89 47 08             	mov    %eax,0x8(%edi)
10001f9e:	ff 36                	pushl  (%esi)
10001fa0:	e8 30 2b 00 00       	call   0x10004ad5
10001fa5:	56                   	push   %esi
10001fa6:	e8 2a 2b 00 00       	call   0x10004ad5
10001fab:	83 7f 08 00          	cmpl   $0x0,0x8(%edi)
10001faf:	59                   	pop    %ecx
10001fb0:	59                   	pop    %ecx
10001fb1:	75 e2                	jne    0x10001f95
10001fb3:	5e                   	pop    %esi
10001fb4:	5f                   	pop    %edi
10001fb5:	5d                   	pop    %ebp
10001fb6:	c3                   	ret    
10001fb7:	55                   	push   %ebp
10001fb8:	8b ec                	mov    %esp,%ebp
10001fba:	81 ec 9c 00 00 00    	sub    $0x9c,%esp
10001fc0:	8d 45 fc             	lea    -0x4(%ebp),%eax
10001fc3:	56                   	push   %esi
10001fc4:	50                   	push   %eax
10001fc5:	e8 1c fe ff ff       	call   0x10001de6
10001fca:	8b f0                	mov    %eax,%esi
10001fcc:	59                   	pop    %ecx
10001fcd:	85 f6                	test   %esi,%esi
10001fcf:	0f 84 67 01 00 00    	je     0x1000213c
10001fd5:	57                   	push   %edi
10001fd6:	6a 01                	push   $0x1
10001fd8:	ff 75 fc             	pushl  -0x4(%ebp)
10001fdb:	56                   	push   %esi
10001fdc:	e8 39 40 00 00       	call   0x1000601a
10001fe1:	56                   	push   %esi
10001fe2:	8b f8                	mov    %eax,%edi
10001fe4:	e8 ec 2a 00 00       	call   0x10004ad5
10001fe9:	83 c4 10             	add    $0x10,%esp
10001fec:	85 ff                	test   %edi,%edi
10001fee:	75 07                	jne    0x10001ff7
10001ff0:	33 c0                	xor    %eax,%eax
10001ff2:	e9 44 01 00 00       	jmp    0x1000213b
10001ff7:	53                   	push   %ebx
10001ff8:	8d 45 bc             	lea    -0x44(%ebp),%eax
10001ffb:	bb 70 12 01 10       	mov    $0x10011270,%ebx
10002000:	50                   	push   %eax
10002001:	6a 0a                	push   $0xa
10002003:	5e                   	pop    %esi
10002004:	56                   	push   %esi
10002005:	6a 09                	push   $0x9
10002007:	68 ed 0b 00 00       	push   $0xbed
1000200c:	53                   	push   %ebx
1000200d:	e8 ab 40 00 00       	call   0x100060bd
10002012:	33 c0                	xor    %eax,%eax
10002014:	66 89 45 c6          	mov    %ax,-0x3a(%ebp)
10002018:	8d 45 b0             	lea    -0x50(%ebp),%eax
1000201b:	50                   	push   %eax
1000201c:	56                   	push   %esi
1000201d:	56                   	push   %esi
1000201e:	68 2a 03 00 00       	push   $0x32a
10002023:	53                   	push   %ebx
10002024:	e8 94 40 00 00       	call   0x100060bd
10002029:	33 c0                	xor    %eax,%eax
1000202b:	66 89 45 ba          	mov    %ax,-0x46(%ebp)
1000202f:	8d 45 a4             	lea    -0x5c(%ebp),%eax
10002032:	50                   	push   %eax
10002033:	56                   	push   %esi
10002034:	6a 08                	push   $0x8
10002036:	68 b2 03 00 00       	push   $0x3b2
1000203b:	53                   	push   %ebx
1000203c:	e8 7c 40 00 00       	call   0x100060bd
10002041:	33 c0                	xor    %eax,%eax
10002043:	66 89 45 ae          	mov    %ax,-0x52(%ebp)
10002047:	8d 85 7c ff ff ff    	lea    -0x84(%ebp),%eax
1000204d:	50                   	push   %eax
1000204e:	6a 14                	push   $0x14
10002050:	56                   	push   %esi
10002051:	68 7e 0c 00 00       	push   $0xc7e
10002056:	53                   	push   %ebx
10002057:	e8 61 40 00 00       	call   0x100060bd
1000205c:	83 c4 50             	add    $0x50,%esp
1000205f:	33 c0                	xor    %eax,%eax
10002061:	66 89 45 90          	mov    %ax,-0x70(%ebp)
10002065:	8d 85 64 ff ff ff    	lea    -0x9c(%ebp),%eax
1000206b:	50                   	push   %eax
1000206c:	6a 14                	push   $0x14
1000206e:	56                   	push   %esi
1000206f:	68 15 0b 00 00       	push   $0xb15
10002074:	53                   	push   %ebx
10002075:	e8 43 40 00 00       	call   0x100060bd
1000207a:	33 c0                	xor    %eax,%eax
1000207c:	66 89 85 78 ff ff ff 	mov    %ax,-0x88(%ebp)
10002083:	8d 45 94             	lea    -0x6c(%ebp),%eax
10002086:	50                   	push   %eax
10002087:	6a 0c                	push   $0xc
10002089:	6a 05                	push   $0x5
1000208b:	68 ba 06 00 00       	push   $0x6ba
10002090:	53                   	push   %ebx
10002091:	e8 27 40 00 00       	call   0x100060bd
10002096:	33 c0                	xor    %eax,%eax
10002098:	66 89 45 a0          	mov    %ax,-0x60(%ebp)
1000209c:	8d 45 f0             	lea    -0x10(%ebp),%eax
1000209f:	50                   	push   %eax
100020a0:	6a 08                	push   $0x8
100020a2:	6a 09                	push   $0x9
100020a4:	68 bb 09 00 00       	push   $0x9bb
100020a9:	53                   	push   %ebx
100020aa:	e8 0e 40 00 00       	call   0x100060bd
100020af:	33 c0                	xor    %eax,%eax
100020b1:	66 89 45 f8          	mov    %ax,-0x8(%ebp)
100020b5:	8d 45 94             	lea    -0x6c(%ebp),%eax
100020b8:	50                   	push   %eax
100020b9:	ff 35 38 32 01 10    	pushl  0x10013238
100020bf:	e8 5d 43 00 00       	call   0x10006421
100020c4:	83 c4 44             	add    $0x44,%esp
100020c7:	8d 4d f0             	lea    -0x10(%ebp),%ecx
100020ca:	85 c0                	test   %eax,%eax
100020cc:	8d 45 bc             	lea    -0x44(%ebp),%eax
100020cf:	89 45 c8             	mov    %eax,-0x38(%ebp)
100020d2:	a1 30 32 01 10       	mov    0x10013230,%eax
100020d7:	0f 45 0d 38 32 01 10 	cmovne 0x10013238,%ecx
100020de:	89 45 cc             	mov    %eax,-0x34(%ebp)
100020e1:	8d 45 b0             	lea    -0x50(%ebp),%eax
100020e4:	89 45 d0             	mov    %eax,-0x30(%ebp)
100020e7:	8d 45 a4             	lea    -0x5c(%ebp),%eax
100020ea:	89 45 d8             	mov    %eax,-0x28(%ebp)
100020ed:	a1 28 32 01 10       	mov    0x10013228,%eax
100020f2:	83 c0 02             	add    $0x2,%eax
100020f5:	89 4d e4             	mov    %ecx,-0x1c(%ebp)
100020f8:	89 45 dc             	mov    %eax,-0x24(%ebp)
100020fb:	8d 4d c8             	lea    -0x38(%ebp),%ecx
100020fe:	8d 85 7c ff ff ff    	lea    -0x84(%ebp),%eax
10002104:	89 7d d4             	mov    %edi,-0x2c(%ebp)
10002107:	89 45 e0             	mov    %eax,-0x20(%ebp)
1000210a:	8d 85 64 ff ff ff    	lea    -0x9c(%ebp),%eax
10002110:	6a 05                	push   $0x5
10002112:	51                   	push   %ecx
10002113:	ff 35 24 32 01 10    	pushl  0x10013224
10002119:	89 45 e8             	mov    %eax,-0x18(%ebp)
1000211c:	a1 20 32 01 10       	mov    0x10013220,%eax
10002121:	89 45 ec             	mov    %eax,-0x14(%ebp)
10002124:	e8 ee 40 00 00       	call   0x10006217
10002129:	57                   	push   %edi
1000212a:	a3 24 32 01 10       	mov    %eax,0x10013224
1000212f:	e8 a1 29 00 00       	call   0x10004ad5
10002134:	83 c4 10             	add    $0x10,%esp
10002137:	33 c0                	xor    %eax,%eax
10002139:	40                   	inc    %eax
1000213a:	5b                   	pop    %ebx
1000213b:	5f                   	pop    %edi
1000213c:	5e                   	pop    %esi
1000213d:	8b e5                	mov    %ebp,%esp
1000213f:	5d                   	pop    %ebp
10002140:	c3                   	ret    
10002141:	55                   	push   %ebp
10002142:	8b ec                	mov    %esp,%ebp
10002144:	83 ec 40             	sub    $0x40,%esp
10002147:	8d 45 fc             	lea    -0x4(%ebp),%eax
1000214a:	56                   	push   %esi
1000214b:	50                   	push   %eax
1000214c:	e8 95 fc ff ff       	call   0x10001de6
10002151:	8b f0                	mov    %eax,%esi
10002153:	59                   	pop    %ecx
10002154:	85 f6                	test   %esi,%esi
10002156:	0f 84 ca 00 00 00    	je     0x10002226
1000215c:	57                   	push   %edi
1000215d:	6a 01                	push   $0x1
1000215f:	ff 75 fc             	pushl  -0x4(%ebp)
10002162:	56                   	push   %esi
10002163:	e8 b2 3e 00 00       	call   0x1000601a
10002168:	56                   	push   %esi
10002169:	8b f8                	mov    %eax,%edi
1000216b:	e8 65 29 00 00       	call   0x10004ad5
10002170:	83 c4 10             	add    $0x10,%esp
10002173:	85 ff                	test   %edi,%edi
10002175:	75 07                	jne    0x1000217e
10002177:	33 c0                	xor    %eax,%eax
10002179:	e9 a7 00 00 00       	jmp    0x10002225
1000217e:	8d 45 f0             	lea    -0x10(%ebp),%eax
10002181:	be 70 12 01 10       	mov    $0x10011270,%esi
10002186:	50                   	push   %eax
10002187:	6a 0a                	push   $0xa
10002189:	6a 09                	push   $0x9
1000218b:	68 ed 0b 00 00       	push   $0xbed
10002190:	56                   	push   %esi
10002191:	e8 27 3f 00 00       	call   0x100060bd
10002196:	33 c0                	xor    %eax,%eax
10002198:	66 89 45 fa          	mov    %ax,-0x6(%ebp)
1000219c:	8d 45 e4             	lea    -0x1c(%ebp),%eax
1000219f:	50                   	push   %eax
100021a0:	6a 0a                	push   $0xa
100021a2:	6a 0a                	push   $0xa
100021a4:	68 2a 03 00 00       	push   $0x32a
100021a9:	56                   	push   %esi
100021aa:	e8 0e 3f 00 00       	call   0x100060bd
100021af:	33 c0                	xor    %eax,%eax
100021b1:	66 89 45 ee          	mov    %ax,-0x12(%ebp)
100021b5:	8d 45 d8             	lea    -0x28(%ebp),%eax
100021b8:	50                   	push   %eax
100021b9:	6a 0a                	push   $0xa
100021bb:	6a 08                	push   $0x8
100021bd:	68 b2 03 00 00       	push   $0x3b2
100021c2:	56                   	push   %esi
100021c3:	e8 f5 3e 00 00       	call   0x100060bd
100021c8:	33 c0                	xor    %eax,%eax
100021ca:	89 7d cc             	mov    %edi,-0x34(%ebp)
100021cd:	66 89 45 e2          	mov    %ax,-0x1e(%ebp)
100021d1:	8d 45 f0             	lea    -0x10(%ebp),%eax
100021d4:	89 45 c0             	mov    %eax,-0x40(%ebp)
100021d7:	a1 30 32 01 10       	mov    0x10013230,%eax
100021dc:	89 45 c4             	mov    %eax,-0x3c(%ebp)
100021df:	8d 45 e4             	lea    -0x1c(%ebp),%eax
100021e2:	89 45 c8             	mov    %eax,-0x38(%ebp)
100021e5:	8d 45 d8             	lea    -0x28(%ebp),%eax
100021e8:	89 45 d0             	mov    %eax,-0x30(%ebp)
100021eb:	a1 28 32 01 10       	mov    0x10013228,%eax
100021f0:	83 c0 02             	add    $0x2,%eax
100021f3:	89 45 d4             	mov    %eax,-0x2c(%ebp)
100021f6:	8d 45 c0             	lea    -0x40(%ebp),%eax
100021f9:	6a 03                	push   $0x3
100021fb:	50                   	push   %eax
100021fc:	ff 35 1c 32 01 10    	pushl  0x1001321c
10002202:	e8 10 40 00 00       	call   0x10006217
10002207:	83 c4 48             	add    $0x48,%esp
1000220a:	a3 1c 32 01 10       	mov    %eax,0x1001321c
1000220f:	50                   	push   %eax
10002210:	e8 16 43 00 00       	call   0x1000652b
10002215:	57                   	push   %edi
10002216:	a3 a4 32 01 10       	mov    %eax,0x100132a4
1000221b:	e8 b5 28 00 00       	call   0x10004ad5
10002220:	59                   	pop    %ecx
10002221:	33 c0                	xor    %eax,%eax
10002223:	59                   	pop    %ecx
10002224:	40                   	inc    %eax
10002225:	5f                   	pop    %edi
10002226:	5e                   	pop    %esi
10002227:	8b e5                	mov    %ebp,%esp
10002229:	5d                   	pop    %ebp
1000222a:	c3                   	ret    
1000222b:	55                   	push   %ebp
1000222c:	8b ec                	mov    %esp,%ebp
1000222e:	83 ec 14             	sub    $0x14,%esp
10002231:	56                   	push   %esi
10002232:	8d 45 ec             	lea    -0x14(%ebp),%eax
10002235:	50                   	push   %eax
10002236:	6a 0a                	push   $0xa
10002238:	6a 08                	push   $0x8
1000223a:	68 b2 03 00 00       	push   $0x3b2
1000223f:	68 70 12 01 10       	push   $0x10011270
10002244:	e8 74 3e 00 00       	call   0x100060bd
10002249:	33 c0                	xor    %eax,%eax
1000224b:	66 89 45 f6          	mov    %ax,-0xa(%ebp)
1000224f:	8d 45 ec             	lea    -0x14(%ebp),%eax
10002252:	89 45 f8             	mov    %eax,-0x8(%ebp)
10002255:	a1 28 32 01 10       	mov    0x10013228,%eax
1000225a:	83 c0 02             	add    $0x2,%eax
1000225d:	89 45 fc             	mov    %eax,-0x4(%ebp)
10002260:	8d 45 f8             	lea    -0x8(%ebp),%eax
10002263:	6a 01                	push   $0x1
10002265:	50                   	push   %eax
10002266:	ff 35 20 32 01 10    	pushl  0x10013220
1000226c:	e8 a6 3f 00 00       	call   0x10006217
10002271:	50                   	push   %eax
10002272:	a3 20 32 01 10       	mov    %eax,0x10013220
10002277:	e8 af 42 00 00       	call   0x1000652b
1000227c:	ff 35 20 32 01 10    	pushl  0x10013220
10002282:	a3 a8 32 01 10       	mov    %eax,0x100132a8
10002287:	e8 51 42 00 00       	call   0x100064dd
1000228c:	8b f0                	mov    %eax,%esi
1000228e:	83 c4 28             	add    $0x28,%esp
10002291:	85 f6                	test   %esi,%esi
10002293:	74 1a                	je     0x100022af
10002295:	56                   	push   %esi
10002296:	e8 d7 40 00 00       	call   0x10006372
1000229b:	50                   	push   %eax
1000229c:	68 60 32 01 10       	push   $0x10013260
100022a1:	e8 3b 46 00 00       	call   0x100068e1
100022a6:	56                   	push   %esi
100022a7:	e8 29 28 00 00       	call   0x10004ad5
100022ac:	83 c4 10             	add    $0x10,%esp
100022af:	33 c0                	xor    %eax,%eax
100022b1:	40                   	inc    %eax
100022b2:	5e                   	pop    %esi
100022b3:	8b e5                	mov    %ebp,%esp
100022b5:	5d                   	pop    %ebp
100022b6:	c3                   	ret    
100022b7:	55                   	push   %ebp
100022b8:	8b ec                	mov    %esp,%ebp
100022ba:	81 ec ac 00 00 00    	sub    $0xac,%esp
100022c0:	53                   	push   %ebx
100022c1:	56                   	push   %esi
100022c2:	57                   	push   %edi
100022c3:	8d 85 74 ff ff ff    	lea    -0x8c(%ebp),%eax
100022c9:	be 70 12 01 10       	mov    $0x10011270,%esi
100022ce:	50                   	push   %eax
100022cf:	6a 32                	push   $0x32
100022d1:	6a 07                	push   $0x7
100022d3:	6a 74                	push   $0x74
100022d5:	56                   	push   %esi
100022d6:	e8 e2 3d 00 00       	call   0x100060bd
100022db:	33 c0                	xor    %eax,%eax
100022dd:	66 89 45 a6          	mov    %ax,-0x5a(%ebp)
100022e1:	8d 45 d0             	lea    -0x30(%ebp),%eax
100022e4:	50                   	push   %eax
100022e5:	6a 06                	push   $0x6
100022e7:	6a 0e                	push   $0xe
100022e9:	68 11 03 00 00       	push   $0x311
100022ee:	56                   	push   %esi
100022ef:	e8 c9 3d 00 00       	call   0x100060bd
100022f4:	33 c0                	xor    %eax,%eax
100022f6:	66 89 45 d6          	mov    %ax,-0x2a(%ebp)
100022fa:	8d 45 c4             	lea    -0x3c(%ebp),%eax
100022fd:	50                   	push   %eax
100022fe:	6a 08                	push   $0x8
10002300:	6a 0a                	push   $0xa
10002302:	68 ee 01 00 00       	push   $0x1ee
10002307:	56                   	push   %esi
10002308:	e8 b0 3d 00 00       	call   0x100060bd
1000230d:	33 c0                	xor    %eax,%eax
1000230f:	66 89 45 cc          	mov    %ax,-0x34(%ebp)
10002313:	8d 45 b8             	lea    -0x48(%ebp),%eax
10002316:	50                   	push   %eax
10002317:	6a 0a                	push   $0xa
10002319:	6a 09                	push   $0x9
1000231b:	68 f3 07 00 00       	push   $0x7f3
10002320:	56                   	push   %esi
10002321:	e8 97 3d 00 00       	call   0x100060bd
10002326:	83 c4 50             	add    $0x50,%esp
10002329:	33 c0                	xor    %eax,%eax
1000232b:	66 89 45 c2          	mov    %ax,-0x3e(%ebp)
1000232f:	8d 45 a8             	lea    -0x58(%ebp),%eax
10002332:	50                   	push   %eax
10002333:	6a 0c                	push   $0xc
10002335:	6a 07                	push   $0x7
10002337:	68 5a 0c 00 00       	push   $0xc5a
1000233c:	56                   	push   %esi
1000233d:	e8 7b 3d 00 00       	call   0x100060bd
10002342:	33 c0                	xor    %eax,%eax
10002344:	bb 02 00 00 80       	mov    $0x80000002,%ebx
10002349:	66 89 45 b4          	mov    %ax,-0x4c(%ebp)
1000234d:	8d 45 f4             	lea    -0xc(%ebp),%eax
10002350:	50                   	push   %eax
10002351:	8d 45 e8             	lea    -0x18(%ebp),%eax
10002354:	50                   	push   %eax
10002355:	8d 45 d0             	lea    -0x30(%ebp),%eax
10002358:	50                   	push   %eax
10002359:	8d 85 74 ff ff ff    	lea    -0x8c(%ebp),%eax
1000235f:	50                   	push   %eax
10002360:	53                   	push   %ebx
10002361:	e8 7e 34 00 00       	call   0x100057e4
10002366:	8b f0                	mov    %eax,%esi
10002368:	8d 7b ff             	lea    -0x1(%ebx),%edi
1000236b:	83 c4 28             	add    $0x28,%esp
1000236e:	89 75 ec             	mov    %esi,-0x14(%ebp)
10002371:	85 f6                	test   %esi,%esi
10002373:	75 1f                	jne    0x10002394
10002375:	8d 45 f4             	lea    -0xc(%ebp),%eax
10002378:	50                   	push   %eax
10002379:	8d 45 e8             	lea    -0x18(%ebp),%eax
1000237c:	50                   	push   %eax
1000237d:	8d 45 d0             	lea    -0x30(%ebp),%eax
10002380:	50                   	push   %eax
10002381:	8d 85 74 ff ff ff    	lea    -0x8c(%ebp),%eax
10002387:	50                   	push   %eax
10002388:	57                   	push   %edi
10002389:	e8 56 34 00 00       	call   0x100057e4
1000238e:	83 c4 14             	add    $0x14,%esp
10002391:	89 45 ec             	mov    %eax,-0x14(%ebp)
10002394:	8d 45 f0             	lea    -0x10(%ebp),%eax
10002397:	50                   	push   %eax
10002398:	8d 45 e4             	lea    -0x1c(%ebp),%eax
1000239b:	50                   	push   %eax
1000239c:	8d 45 c4             	lea    -0x3c(%ebp),%eax
1000239f:	50                   	push   %eax
100023a0:	8d 85 74 ff ff ff    	lea    -0x8c(%ebp),%eax
100023a6:	50                   	push   %eax
100023a7:	53                   	push   %ebx
100023a8:	e8 37 34 00 00       	call   0x100057e4
100023ad:	8b d8                	mov    %eax,%ebx
100023af:	83 c4 14             	add    $0x14,%esp
100023b2:	89 5d d8             	mov    %ebx,-0x28(%ebp)
100023b5:	85 db                	test   %ebx,%ebx
100023b7:	75 21                	jne    0x100023da
100023b9:	8d 45 f0             	lea    -0x10(%ebp),%eax
100023bc:	50                   	push   %eax
100023bd:	8d 45 e4             	lea    -0x1c(%ebp),%eax
100023c0:	50                   	push   %eax
100023c1:	8d 45 c4             	lea    -0x3c(%ebp),%eax
100023c4:	50                   	push   %eax
100023c5:	8d 85 74 ff ff ff    	lea    -0x8c(%ebp),%eax
100023cb:	50                   	push   %eax
100023cc:	57                   	push   %edi
100023cd:	e8 12 34 00 00       	call   0x100057e4
100023d2:	83 c4 14             	add    $0x14,%esp
100023d5:	89 45 d8             	mov    %eax,-0x28(%ebp)
100023d8:	8b d8                	mov    %eax,%ebx
100023da:	8d 45 fc             	lea    -0x4(%ebp),%eax
100023dd:	be 02 00 00 80       	mov    $0x80000002,%esi
100023e2:	50                   	push   %eax
100023e3:	8d 45 e0             	lea    -0x20(%ebp),%eax
100023e6:	50                   	push   %eax
100023e7:	8d 45 b8             	lea    -0x48(%ebp),%eax
100023ea:	50                   	push   %eax
100023eb:	8d 85 74 ff ff ff    	lea    -0x8c(%ebp),%eax
100023f1:	50                   	push   %eax
100023f2:	56                   	push   %esi
100023f3:	e8 ec 33 00 00       	call   0x100057e4
100023f8:	8b f8                	mov    %eax,%edi
100023fa:	83 c4 14             	add    $0x14,%esp
100023fd:	85 ff                	test   %edi,%edi
100023ff:	75 22                	jne    0x10002423
10002401:	8d 45 fc             	lea    -0x4(%ebp),%eax
10002404:	50                   	push   %eax
10002405:	8d 45 e0             	lea    -0x20(%ebp),%eax
10002408:	50                   	push   %eax
10002409:	8d 45 b8             	lea    -0x48(%ebp),%eax
1000240c:	50                   	push   %eax
1000240d:	8d 85 74 ff ff ff    	lea    -0x8c(%ebp),%eax
10002413:	50                   	push   %eax
10002414:	68 01 00 00 80       	push   $0x80000001
10002419:	e8 c6 33 00 00       	call   0x100057e4
1000241e:	83 c4 14             	add    $0x14,%esp
10002421:	8b f8                	mov    %eax,%edi
10002423:	8d 45 f8             	lea    -0x8(%ebp),%eax
10002426:	50                   	push   %eax
10002427:	8d 45 dc             	lea    -0x24(%ebp),%eax
1000242a:	50                   	push   %eax
1000242b:	8d 45 a8             	lea    -0x58(%ebp),%eax
1000242e:	50                   	push   %eax
1000242f:	8d 85 74 ff ff ff    	lea    -0x8c(%ebp),%eax
10002435:	50                   	push   %eax
10002436:	56                   	push   %esi
10002437:	e8 a8 33 00 00       	call   0x100057e4
1000243c:	8b f0                	mov    %eax,%esi
1000243e:	83 c4 14             	add    $0x14,%esp
10002441:	85 f6                	test   %esi,%esi
10002443:	75 22                	jne    0x10002467
10002445:	8d 45 f8             	lea    -0x8(%ebp),%eax
10002448:	50                   	push   %eax
10002449:	8d 45 dc             	lea    -0x24(%ebp),%eax
1000244c:	50                   	push   %eax
1000244d:	8d 45 a8             	lea    -0x58(%ebp),%eax
10002450:	50                   	push   %eax
10002451:	8d 85 74 ff ff ff    	lea    -0x8c(%ebp),%eax
10002457:	50                   	push   %eax
10002458:	68 01 00 00 80       	push   $0x80000001
1000245d:	e8 82 33 00 00       	call   0x100057e4
10002462:	83 c4 14             	add    $0x14,%esp
10002465:	8b f0                	mov    %eax,%esi
10002467:	8b 45 ec             	mov    -0x14(%ebp),%eax
1000246a:	6a 03                	push   $0x3
1000246c:	59                   	pop    %ecx
1000246d:	85 c0                	test   %eax,%eax
1000246f:	74 75                	je     0x100024e6
10002471:	83 7d f4 20          	cmpl   $0x20,-0xc(%ebp)
10002475:	75 6f                	jne    0x100024e6
10002477:	39 4d e8             	cmp    %ecx,-0x18(%ebp)
1000247a:	75 6a                	jne    0x100024e6
1000247c:	85 db                	test   %ebx,%ebx
1000247e:	74 66                	je     0x100024e6
10002480:	83 7d f0 20          	cmpl   $0x20,-0x10(%ebp)
10002484:	75 60                	jne    0x100024e6
10002486:	39 4d e4             	cmp    %ecx,-0x1c(%ebp)
10002489:	75 5b                	jne    0x100024e6
1000248b:	85 ff                	test   %edi,%edi
1000248d:	74 57                	je     0x100024e6
1000248f:	83 7d fc 58          	cmpl   $0x58,-0x4(%ebp)
10002493:	75 51                	jne    0x100024e6
10002495:	39 4d e0             	cmp    %ecx,-0x20(%ebp)
10002498:	75 4c                	jne    0x100024e6
1000249a:	85 f6                	test   %esi,%esi
1000249c:	74 48                	je     0x100024e6
1000249e:	83 7d f8 58          	cmpl   $0x58,-0x8(%ebp)
100024a2:	75 42                	jne    0x100024e6
100024a4:	39 4d dc             	cmp    %ecx,-0x24(%ebp)
100024a7:	75 3d                	jne    0x100024e6
100024a9:	6a 20                	push   $0x20
100024ab:	50                   	push   %eax
100024ac:	68 20 31 01 10       	push   $0x10013120
100024b1:	e8 34 26 00 00       	call   0x10004aea
100024b6:	6a 20                	push   $0x20
100024b8:	53                   	push   %ebx
100024b9:	68 40 31 01 10       	push   $0x10013140
100024be:	e8 27 26 00 00       	call   0x10004aea
100024c3:	6a 58                	push   $0x58
100024c5:	57                   	push   %edi
100024c6:	bb 60 31 01 10       	mov    $0x10013160,%ebx
100024cb:	53                   	push   %ebx
100024cc:	e8 19 26 00 00       	call   0x10004aea
100024d1:	6a 58                	push   $0x58
100024d3:	56                   	push   %esi
100024d4:	68 b8 31 01 10       	push   $0x100131b8
100024d9:	e8 0c 26 00 00       	call   0x10004aea
100024de:	83 c4 30             	add    $0x30,%esp
100024e1:	e9 9f 01 00 00       	jmp    0x10002685
100024e6:	8d 85 54 ff ff ff    	lea    -0xac(%ebp),%eax
100024ec:	68 40 31 01 10       	push   $0x10013140
100024f1:	50                   	push   %eax
100024f2:	e8 5d 45 00 00       	call   0x10006a54
100024f7:	6a 20                	push   $0x20
100024f9:	5b                   	pop    %ebx
100024fa:	8d 45 fc             	lea    -0x4(%ebp),%eax
100024fd:	89 5d f0             	mov    %ebx,-0x10(%ebp)
10002500:	50                   	push   %eax
10002501:	53                   	push   %ebx
10002502:	8d 85 54 ff ff ff    	lea    -0xac(%ebp),%eax
10002508:	89 5d f4             	mov    %ebx,-0xc(%ebp)
1000250b:	50                   	push   %eax
1000250c:	68 20 31 01 10       	push   $0x10013120
10002511:	e8 2c 49 00 00       	call   0x10006e42
10002516:	8b f8                	mov    %eax,%edi
10002518:	8d 45 f8             	lea    -0x8(%ebp),%eax
1000251b:	50                   	push   %eax
1000251c:	53                   	push   %ebx
1000251d:	8d 85 54 ff ff ff    	lea    -0xac(%ebp),%eax
10002523:	50                   	push   %eax
10002524:	68 20 10 01 10       	push   $0x10011020
10002529:	e8 14 49 00 00       	call   0x10006e42
1000252e:	8b f0                	mov    %eax,%esi
10002530:	8d 85 54 ff ff ff    	lea    -0xac(%ebp),%eax
10002536:	53                   	push   %ebx
10002537:	50                   	push   %eax
10002538:	e8 f0 48 00 00       	call   0x10006e2d
1000253d:	83 c4 30             	add    $0x30,%esp
10002540:	85 ff                	test   %edi,%edi
10002542:	0f 84 75 01 00 00    	je     0x100026bd
10002548:	85 f6                	test   %esi,%esi
1000254a:	0f 84 6d 01 00 00    	je     0x100026bd
10002550:	ff 75 fc             	pushl  -0x4(%ebp)
10002553:	bb 60 31 01 10       	mov    $0x10013160,%ebx
10002558:	57                   	push   %edi
10002559:	53                   	push   %ebx
1000255a:	e8 8b 25 00 00       	call   0x10004aea
1000255f:	ff 75 f8             	pushl  -0x8(%ebp)
10002562:	56                   	push   %esi
10002563:	68 b8 31 01 10       	push   $0x100131b8
10002568:	e8 7d 25 00 00       	call   0x10004aea
1000256d:	ff 75 f4             	pushl  -0xc(%ebp)
10002570:	8d 45 d0             	lea    -0x30(%ebp),%eax
10002573:	68 20 31 01 10       	push   $0x10013120
10002578:	6a 03                	push   $0x3
1000257a:	50                   	push   %eax
1000257b:	8d 85 74 ff ff ff    	lea    -0x8c(%ebp),%eax
10002581:	50                   	push   %eax
10002582:	68 02 00 00 80       	push   $0x80000002
10002587:	e8 d7 32 00 00       	call   0x10005863
1000258c:	83 c4 30             	add    $0x30,%esp
1000258f:	85 c0                	test   %eax,%eax
10002591:	75 22                	jne    0x100025b5
10002593:	ff 75 f4             	pushl  -0xc(%ebp)
10002596:	8d 45 d0             	lea    -0x30(%ebp),%eax
10002599:	68 20 31 01 10       	push   $0x10013120
1000259e:	6a 03                	push   $0x3
100025a0:	50                   	push   %eax
100025a1:	8d 85 74 ff ff ff    	lea    -0x8c(%ebp),%eax
100025a7:	50                   	push   %eax
100025a8:	68 01 00 00 80       	push   $0x80000001
100025ad:	e8 b1 32 00 00       	call   0x10005863
100025b2:	83 c4 18             	add    $0x18,%esp
100025b5:	ff 75 f0             	pushl  -0x10(%ebp)
100025b8:	8d 45 c4             	lea    -0x3c(%ebp),%eax
100025bb:	68 40 31 01 10       	push   $0x10013140
100025c0:	6a 03                	push   $0x3
100025c2:	50                   	push   %eax
100025c3:	8d 85 74 ff ff ff    	lea    -0x8c(%ebp),%eax
100025c9:	50                   	push   %eax
100025ca:	68 02 00 00 80       	push   $0x80000002
100025cf:	e8 8f 32 00 00       	call   0x10005863
100025d4:	83 c4 18             	add    $0x18,%esp
100025d7:	85 c0                	test   %eax,%eax
100025d9:	75 22                	jne    0x100025fd
100025db:	ff 75 f0             	pushl  -0x10(%ebp)
100025de:	8d 45 c4             	lea    -0x3c(%ebp),%eax
100025e1:	68 40 31 01 10       	push   $0x10013140
100025e6:	6a 03                	push   $0x3
100025e8:	50                   	push   %eax
100025e9:	8d 85 74 ff ff ff    	lea    -0x8c(%ebp),%eax
100025ef:	50                   	push   %eax
100025f0:	68 01 00 00 80       	push   $0x80000001
100025f5:	e8 69 32 00 00       	call   0x10005863
100025fa:	83 c4 18             	add    $0x18,%esp
100025fd:	ff 75 fc             	pushl  -0x4(%ebp)
10002600:	8d 45 b8             	lea    -0x48(%ebp),%eax
10002603:	53                   	push   %ebx
10002604:	6a 03                	push   $0x3
10002606:	50                   	push   %eax
10002607:	8d 85 74 ff ff ff    	lea    -0x8c(%ebp),%eax
1000260d:	50                   	push   %eax
1000260e:	68 02 00 00 80       	push   $0x80000002
10002613:	e8 4b 32 00 00       	call   0x10005863
10002618:	83 c4 18             	add    $0x18,%esp
1000261b:	85 c0                	test   %eax,%eax
1000261d:	75 1e                	jne    0x1000263d
1000261f:	ff 75 fc             	pushl  -0x4(%ebp)
10002622:	8d 45 b8             	lea    -0x48(%ebp),%eax
10002625:	53                   	push   %ebx
10002626:	6a 03                	push   $0x3
10002628:	50                   	push   %eax
10002629:	8d 85 74 ff ff ff    	lea    -0x8c(%ebp),%eax
1000262f:	50                   	push   %eax
10002630:	68 01 00 00 80       	push   $0x80000001
10002635:	e8 29 32 00 00       	call   0x10005863
1000263a:	83 c4 18             	add    $0x18,%esp
1000263d:	ff 75 f8             	pushl  -0x8(%ebp)
10002640:	8d 45 a8             	lea    -0x58(%ebp),%eax
10002643:	68 b8 31 01 10       	push   $0x100131b8
10002648:	6a 03                	push   $0x3
1000264a:	50                   	push   %eax
1000264b:	8d 85 74 ff ff ff    	lea    -0x8c(%ebp),%eax
10002651:	50                   	push   %eax
10002652:	68 02 00 00 80       	push   $0x80000002
10002657:	e8 07 32 00 00       	call   0x10005863
1000265c:	83 c4 18             	add    $0x18,%esp
1000265f:	85 c0                	test   %eax,%eax
10002661:	75 22                	jne    0x10002685
10002663:	ff 75 f8             	pushl  -0x8(%ebp)
10002666:	8d 45 a8             	lea    -0x58(%ebp),%eax
10002669:	68 b8 31 01 10       	push   $0x100131b8
1000266e:	6a 03                	push   $0x3
10002670:	50                   	push   %eax
10002671:	8d 85 74 ff ff ff    	lea    -0x8c(%ebp),%eax
10002677:	50                   	push   %eax
10002678:	68 01 00 00 80       	push   $0x80000001
1000267d:	e8 e1 31 00 00       	call   0x10005863
10002682:	83 c4 18             	add    $0x18,%esp
10002685:	8b 45 ec             	mov    -0x14(%ebp),%eax
10002688:	85 c0                	test   %eax,%eax
1000268a:	74 07                	je     0x10002693
1000268c:	50                   	push   %eax
1000268d:	e8 43 24 00 00       	call   0x10004ad5
10002692:	59                   	pop    %ecx
10002693:	8b 45 d8             	mov    -0x28(%ebp),%eax
10002696:	85 c0                	test   %eax,%eax
10002698:	74 07                	je     0x100026a1
1000269a:	50                   	push   %eax
1000269b:	e8 35 24 00 00       	call   0x10004ad5
100026a0:	59                   	pop    %ecx
100026a1:	57                   	push   %edi
100026a2:	e8 2e 24 00 00       	call   0x10004ad5
100026a7:	56                   	push   %esi
100026a8:	e8 28 24 00 00       	call   0x10004ad5
100026ad:	6a 00                	push   $0x0
100026af:	ff 75 fc             	pushl  -0x4(%ebp)
100026b2:	53                   	push   %ebx
100026b3:	e8 62 39 00 00       	call   0x1000601a
100026b8:	83 c4 14             	add    $0x14,%esp
100026bb:	eb 02                	jmp    0x100026bf
100026bd:	33 c0                	xor    %eax,%eax
100026bf:	5f                   	pop    %edi
100026c0:	5e                   	pop    %esi
100026c1:	5b                   	pop    %ebx
100026c2:	8b e5                	mov    %ebp,%esp
100026c4:	5d                   	pop    %ebp
100026c5:	c3                   	ret    
100026c6:	55                   	push   %ebp
100026c7:	8b ec                	mov    %esp,%ebp
100026c9:	51                   	push   %ecx
100026ca:	83 7d 08 00          	cmpl   $0x0,0x8(%ebp)
100026ce:	75 04                	jne    0x100026d4
100026d0:	33 c0                	xor    %eax,%eax
100026d2:	eb 78                	jmp    0x1000274c
100026d4:	57                   	push   %edi
100026d5:	ff 75 0c             	pushl  0xc(%ebp)
100026d8:	ff 75 08             	pushl  0x8(%ebp)
100026db:	e8 45 30 00 00       	call   0x10005725
100026e0:	8b f8                	mov    %eax,%edi
100026e2:	59                   	pop    %ecx
100026e3:	59                   	pop    %ecx
100026e4:	85 ff                	test   %edi,%edi
100026e6:	74 63                	je     0x1000274b
100026e8:	8d 04 7d 04 00 00 00 	lea    0x4(,%edi,2),%eax
100026ef:	53                   	push   %ebx
100026f0:	50                   	push   %eax
100026f1:	e8 92 23 00 00       	call   0x10004a88
100026f6:	8b d8                	mov    %eax,%ebx
100026f8:	89 5d fc             	mov    %ebx,-0x4(%ebp)
100026fb:	59                   	pop    %ecx
100026fc:	85 db                	test   %ebx,%ebx
100026fe:	74 4a                	je     0x1000274a
10002700:	6a 2e                	push   $0x2e
10002702:	58                   	pop    %eax
10002703:	66 89 03             	mov    %ax,(%ebx)
10002706:	85 ff                	test   %edi,%edi
10002708:	74 3e                	je     0x10002748
1000270a:	8d 43 02             	lea    0x2(%ebx),%eax
1000270d:	8b d8                	mov    %eax,%ebx
1000270f:	56                   	push   %esi
10002710:	6a 01                	push   $0x1
10002712:	6a 00                	push   $0x0
10002714:	e8 0c 30 00 00       	call   0x10005725
10002719:	6a 09                	push   $0x9
1000271b:	59                   	pop    %ecx
1000271c:	8b f0                	mov    %eax,%esi
1000271e:	6a 19                	push   $0x19
10002720:	58                   	pop    %eax
10002721:	85 f6                	test   %esi,%esi
10002723:	0f 45 c8             	cmovne %eax,%ecx
10002726:	51                   	push   %ecx
10002727:	6a 00                	push   $0x0
10002729:	e8 f7 2f 00 00       	call   0x10005725
1000272e:	66 03 04 75 60 d0 00 	add    0x1000d060(,%esi,2),%ax
10002735:	10 
10002736:	83 c4 10             	add    $0x10,%esp
10002739:	66 89 03             	mov    %ax,(%ebx)
1000273c:	8d 5b 02             	lea    0x2(%ebx),%ebx
1000273f:	83 ef 01             	sub    $0x1,%edi
10002742:	75 cc                	jne    0x10002710
10002744:	8b 5d fc             	mov    -0x4(%ebp),%ebx
10002747:	5e                   	pop    %esi
10002748:	8b c3                	mov    %ebx,%eax
1000274a:	5b                   	pop    %ebx
1000274b:	5f                   	pop    %edi
1000274c:	8b e5                	mov    %ebp,%esp
1000274e:	5d                   	pop    %ebp
1000274f:	c3                   	ret    
10002750:	55                   	push   %ebp
10002751:	8b ec                	mov    %esp,%ebp
10002753:	8b 4d 08             	mov    0x8(%ebp),%ecx
10002756:	33 c0                	xor    %eax,%eax
10002758:	40                   	inc    %eax
10002759:	f0 0f c1 41 04       	lock xadd %eax,0x4(%ecx)
1000275e:	40                   	inc    %eax
1000275f:	5d                   	pop    %ebp
10002760:	c2 04 00             	ret    $0x4
10002763:	55                   	push   %ebp
10002764:	8b ec                	mov    %esp,%ebp
10002766:	8b 4d 08             	mov    0x8(%ebp),%ecx
10002769:	56                   	push   %esi
1000276a:	83 ce ff             	or     $0xffffffff,%esi
1000276d:	f0 0f c1 71 04       	lock xadd %esi,0x4(%ecx)
10002772:	4e                   	dec    %esi
10002773:	75 09                	jne    0x1000277e
10002775:	8b 49 0c             	mov    0xc(%ecx),%ecx
10002778:	51                   	push   %ecx
10002779:	8b 11                	mov    (%ecx),%edx
1000277b:	ff 52 08             	call   *0x8(%edx)
1000277e:	8b c6                	mov    %esi,%eax
10002780:	5e                   	pop    %esi
10002781:	5d                   	pop    %ebp
10002782:	c2 04 00             	ret    $0x4
10002785:	55                   	push   %ebp
10002786:	8b ec                	mov    %esp,%ebp
10002788:	56                   	push   %esi
10002789:	8b 75 0c             	mov    0xc(%ebp),%esi
1000278c:	33 c9                	xor    %ecx,%ecx
1000278e:	57                   	push   %edi
1000278f:	bf e0 fd 00 10       	mov    $0x1000fde0,%edi
10002794:	8b d1                	mov    %ecx,%edx
10002796:	8b 04 96             	mov    (%esi,%edx,4),%eax
10002799:	3b 04 97             	cmp    (%edi,%edx,4),%eax
1000279c:	75 08                	jne    0x100027a6
1000279e:	42                   	inc    %edx
1000279f:	83 fa 04             	cmp    $0x4,%edx
100027a2:	75 f2                	jne    0x10002796
100027a4:	eb 13                	jmp    0x100027b9
100027a6:	ba d8 d2 00 10       	mov    $0x1000d2d8,%edx
100027ab:	8b 04 8e             	mov    (%esi,%ecx,4),%eax
100027ae:	3b 04 8a             	cmp    (%edx,%ecx,4),%eax
100027b1:	75 16                	jne    0x100027c9
100027b3:	41                   	inc    %ecx
100027b4:	83 f9 04             	cmp    $0x4,%ecx
100027b7:	75 f2                	jne    0x100027ab
100027b9:	8b 45 10             	mov    0x10(%ebp),%eax
100027bc:	8b 4d 08             	mov    0x8(%ebp),%ecx
100027bf:	89 08                	mov    %ecx,(%eax)
100027c1:	f0 ff 41 04          	lock incl 0x4(%ecx)
100027c5:	33 c0                	xor    %eax,%eax
100027c7:	eb 05                	jmp    0x100027ce
100027c9:	b8 02 40 00 80       	mov    $0x80004002,%eax
100027ce:	5f                   	pop    %edi
100027cf:	5e                   	pop    %esi
100027d0:	5d                   	pop    %ebp
100027d1:	c2 0c 00             	ret    $0xc
100027d4:	55                   	push   %ebp
100027d5:	8b ec                	mov    %esp,%ebp
100027d7:	83 ec 78             	sub    $0x78,%esp
100027da:	8d 45 d8             	lea    -0x28(%ebp),%eax
100027dd:	56                   	push   %esi
100027de:	8b 35 3c d0 00 10    	mov    0x1000d03c,%esi
100027e4:	57                   	push   %edi
100027e5:	50                   	push   %eax
100027e6:	33 ff                	xor    %edi,%edi
100027e8:	ff d6                	call   *%esi
100027ea:	8d 45 c8             	lea    -0x38(%ebp),%eax
100027ed:	50                   	push   %eax
100027ee:	ff d6                	call   *%esi
100027f0:	8d 45 b8             	lea    -0x48(%ebp),%eax
100027f3:	50                   	push   %eax
100027f4:	ff d6                	call   *%esi
100027f6:	8d 45 e8             	lea    -0x18(%ebp),%eax
100027f9:	50                   	push   %eax
100027fa:	ff d6                	call   *%esi
100027fc:	8d 45 98             	lea    -0x68(%ebp),%eax
100027ff:	50                   	push   %eax
10002800:	ff d6                	call   *%esi
10002802:	8d 45 88             	lea    -0x78(%ebp),%eax
10002805:	50                   	push   %eax
10002806:	ff d6                	call   *%esi
10002808:	8d 45 a8             	lea    -0x58(%ebp),%eax
1000280b:	50                   	push   %eax
1000280c:	ff d6                	call   *%esi
1000280e:	33 d2                	xor    %edx,%edx
10002810:	8b f2                	mov    %edx,%esi
10002812:	39 55 0c             	cmp    %edx,0xc(%ebp)
10002815:	0f 8e 7c 02 00 00    	jle    0x10002a97
1000281b:	53                   	push   %ebx
1000281c:	8b 1d 0c d0 00 10    	mov    0x1000d00c,%ebx
10002822:	8b 45 10             	mov    0x10(%ebp),%eax
10002825:	52                   	push   %edx
10002826:	52                   	push   %edx
10002827:	89 55 fc             	mov    %edx,-0x4(%ebp)
1000282a:	8b 0c b0             	mov    (%eax,%esi,4),%ecx
1000282d:	89 55 f8             	mov    %edx,-0x8(%ebp)
10002830:	8d 55 d8             	lea    -0x28(%ebp),%edx
10002833:	52                   	push   %edx
10002834:	6a 00                	push   $0x0
10002836:	8b 01                	mov    (%ecx),%eax
10002838:	68 94 d0 00 10       	push   $0x1000d094
1000283d:	51                   	push   %ecx
1000283e:	ff 50 10             	call   *0x10(%eax)
10002841:	85 c0                	test   %eax,%eax
10002843:	0f 88 d0 01 00 00    	js     0x10002a19
10002849:	66 83 7d d8 09       	cmpw   $0x9,-0x28(%ebp)
1000284e:	74 0b                	je     0x1000285b
10002850:	66 83 7d d8 0d       	cmpw   $0xd,-0x28(%ebp)
10002855:	0f 85 be 01 00 00    	jne    0x10002a19
1000285b:	8b 45 e0             	mov    -0x20(%ebp),%eax
1000285e:	8d 55 fc             	lea    -0x4(%ebp),%edx
10002861:	52                   	push   %edx
10002862:	68 f8 d2 00 10       	push   $0x1000d2f8
10002867:	50                   	push   %eax
10002868:	8b 08                	mov    (%eax),%ecx
1000286a:	ff 11                	call   *(%ecx)
1000286c:	85 c0                	test   %eax,%eax
1000286e:	0f 88 a5 01 00 00    	js     0x10002a19
10002874:	8b 45 fc             	mov    -0x4(%ebp),%eax
10002877:	8d 55 c8             	lea    -0x38(%ebp),%edx
1000287a:	6a 00                	push   $0x0
1000287c:	6a 00                	push   $0x0
1000287e:	52                   	push   %edx
1000287f:	8b 08                	mov    (%eax),%ecx
10002881:	6a 00                	push   $0x0
10002883:	68 b4 d0 00 10       	push   $0x1000d0b4
10002888:	50                   	push   %eax
10002889:	ff 51 10             	call   *0x10(%ecx)
1000288c:	85 c0                	test   %eax,%eax
1000288e:	0f 88 85 01 00 00    	js     0x10002a19
10002894:	6a 08                	push   $0x8
10002896:	58                   	pop    %eax
10002897:	66 39 45 c8          	cmp    %ax,-0x38(%ebp)
1000289b:	0f 85 78 01 00 00    	jne    0x10002a19
100028a1:	68 c4 d0 00 10       	push   $0x1000d0c4
100028a6:	ff 75 d0             	pushl  -0x30(%ebp)
100028a9:	ff d3                	call   *%ebx
100028ab:	85 c0                	test   %eax,%eax
100028ad:	0f 85 80 00 00 00    	jne    0x10002933
100028b3:	8b 45 fc             	mov    -0x4(%ebp),%eax
100028b6:	8d 55 e8             	lea    -0x18(%ebp),%edx
100028b9:	6a 00                	push   $0x0
100028bb:	6a 00                	push   $0x0
100028bd:	52                   	push   %edx
100028be:	8b 08                	mov    (%eax),%ecx
100028c0:	6a 00                	push   $0x0
100028c2:	68 e0 d0 00 10       	push   $0x1000d0e0
100028c7:	50                   	push   %eax
100028c8:	ff 51 10             	call   *0x10(%ecx)
100028cb:	85 c0                	test   %eax,%eax
100028cd:	0f 88 46 01 00 00    	js     0x10002a19
100028d3:	8b 45 fc             	mov    -0x4(%ebp),%eax
100028d6:	8d 55 a8             	lea    -0x58(%ebp),%edx
100028d9:	6a 00                	push   $0x0
100028db:	6a 00                	push   $0x0
100028dd:	52                   	push   %edx
100028de:	8b 08                	mov    (%eax),%ecx
100028e0:	6a 00                	push   $0x0
100028e2:	68 ec d0 00 10       	push   $0x1000d0ec
100028e7:	50                   	push   %eax
100028e8:	ff 51 10             	call   *0x10(%ecx)
100028eb:	85 c0                	test   %eax,%eax
100028ed:	0f 88 26 01 00 00    	js     0x10002a19
100028f3:	6a 08                	push   $0x8
100028f5:	58                   	pop    %eax
100028f6:	66 39 45 e8          	cmp    %ax,-0x18(%ebp)
100028fa:	0f 85 19 01 00 00    	jne    0x10002a19
10002900:	ff 75 f0             	pushl  -0x10(%ebp)
10002903:	e8 bf 06 00 00       	call   0x10002fc7
10002908:	59                   	pop    %ecx
10002909:	85 c0                	test   %eax,%eax
1000290b:	0f 84 08 01 00 00    	je     0x10002a19
10002911:	68 f8 d0 00 10       	push   $0x1000d0f8
10002916:	ff 75 b0             	pushl  -0x50(%ebp)
10002919:	ff d3                	call   *%ebx
1000291b:	85 c0                	test   %eax,%eax
1000291d:	0f 85 f6 00 00 00    	jne    0x10002a19
10002923:	ff 75 fc             	pushl  -0x4(%ebp)
10002926:	ff 75 08             	pushl  0x8(%ebp)
10002929:	e8 f7 03 00 00       	call   0x10002d25
1000292e:	e9 e4 00 00 00       	jmp    0x10002a17
10002933:	68 68 d0 00 10       	push   $0x1000d068
10002938:	ff 75 d0             	pushl  -0x30(%ebp)
1000293b:	ff d3                	call   *%ebx
1000293d:	85 c0                	test   %eax,%eax
1000293f:	0f 85 d4 00 00 00    	jne    0x10002a19
10002945:	8b 45 fc             	mov    -0x4(%ebp),%eax
10002948:	8d 55 b8             	lea    -0x48(%ebp),%edx
1000294b:	6a 00                	push   $0x0
1000294d:	6a 00                	push   $0x0
1000294f:	52                   	push   %edx
10002950:	8b 08                	mov    (%eax),%ecx
10002952:	6a 00                	push   $0x0
10002954:	68 84 d0 00 10       	push   $0x1000d084
10002959:	50                   	push   %eax
1000295a:	ff 51 10             	call   *0x10(%ecx)
1000295d:	85 c0                	test   %eax,%eax
1000295f:	0f 88 b4 00 00 00    	js     0x10002a19
10002965:	6a 08                	push   $0x8
10002967:	58                   	pop    %eax
10002968:	66 39 45 b8          	cmp    %ax,-0x48(%ebp)
1000296c:	0f 85 a7 00 00 00    	jne    0x10002a19
10002972:	85 ff                	test   %edi,%edi
10002974:	75 0d                	jne    0x10002983
10002976:	68 08 d1 00 10       	push   $0x1000d108
1000297b:	ff 15 44 d0 00 10    	call   *0x1000d044
10002981:	8b f8                	mov    %eax,%edi
10002983:	8b 45 08             	mov    0x8(%ebp),%eax
10002986:	6a 00                	push   $0x0
10002988:	8b 48 0c             	mov    0xc(%eax),%ecx
1000298b:	8d 45 f8             	lea    -0x8(%ebp),%eax
1000298e:	50                   	push   %eax
1000298f:	33 c0                	xor    %eax,%eax
10002991:	50                   	push   %eax
10002992:	8b 11                	mov    (%ecx),%edx
10002994:	50                   	push   %eax
10002995:	50                   	push   %eax
10002996:	57                   	push   %edi
10002997:	ff 75 c0             	pushl  -0x40(%ebp)
1000299a:	51                   	push   %ecx
1000299b:	ff 52 60             	call   *0x60(%edx)
1000299e:	85 c0                	test   %eax,%eax
100029a0:	78 77                	js     0x10002a19
100029a2:	8b 45 f8             	mov    -0x8(%ebp),%eax
100029a5:	8d 55 98             	lea    -0x68(%ebp),%edx
100029a8:	6a 00                	push   $0x0
100029aa:	6a 00                	push   $0x0
100029ac:	52                   	push   %edx
100029ad:	8b 08                	mov    (%eax),%ecx
100029af:	6a 00                	push   $0x0
100029b1:	68 1c d1 00 10       	push   $0x1000d11c
100029b6:	50                   	push   %eax
100029b7:	ff 51 10             	call   *0x10(%ecx)
100029ba:	85 c0                	test   %eax,%eax
100029bc:	78 5b                	js     0x10002a19
100029be:	8b 45 f8             	mov    -0x8(%ebp),%eax
100029c1:	8d 55 88             	lea    -0x78(%ebp),%edx
100029c4:	6a 00                	push   $0x0
100029c6:	6a 00                	push   $0x0
100029c8:	52                   	push   %edx
100029c9:	8b 08                	mov    (%eax),%ecx
100029cb:	6a 00                	push   $0x0
100029cd:	68 28 d1 00 10       	push   $0x1000d128
100029d2:	50                   	push   %eax
100029d3:	ff 51 10             	call   *0x10(%ecx)
100029d6:	85 c0                	test   %eax,%eax
100029d8:	78 3f                	js     0x10002a19
100029da:	8b 45 fc             	mov    -0x4(%ebp),%eax
100029dd:	8d 55 e8             	lea    -0x18(%ebp),%edx
100029e0:	6a 00                	push   $0x0
100029e2:	6a 00                	push   $0x0
100029e4:	52                   	push   %edx
100029e5:	8b 08                	mov    (%eax),%ecx
100029e7:	6a 00                	push   $0x0
100029e9:	68 e0 d0 00 10       	push   $0x1000d0e0
100029ee:	50                   	push   %eax
100029ef:	ff 51 10             	call   *0x10(%ecx)
100029f2:	85 c0                	test   %eax,%eax
100029f4:	78 23                	js     0x10002a19
100029f6:	6a 08                	push   $0x8
100029f8:	58                   	pop    %eax
100029f9:	66 39 45 e8          	cmp    %ax,-0x18(%ebp)
100029fd:	75 1a                	jne    0x10002a19
100029ff:	ff 75 f0             	pushl  -0x10(%ebp)
10002a02:	e8 6a 05 00 00       	call   0x10002f71
10002a07:	59                   	pop    %ecx
10002a08:	85 c0                	test   %eax,%eax
10002a0a:	74 0d                	je     0x10002a19
10002a0c:	ff 75 fc             	pushl  -0x4(%ebp)
10002a0f:	ff 75 08             	pushl  0x8(%ebp)
10002a12:	e8 80 03 00 00       	call   0x10002d97
10002a17:	59                   	pop    %ecx
10002a18:	59                   	pop    %ecx
10002a19:	8d 45 d8             	lea    -0x28(%ebp),%eax
10002a1c:	50                   	push   %eax
10002a1d:	ff 15 38 d0 00 10    	call   *0x1000d038
10002a23:	8d 45 c8             	lea    -0x38(%ebp),%eax
10002a26:	50                   	push   %eax
10002a27:	ff 15 38 d0 00 10    	call   *0x1000d038
10002a2d:	8d 45 b8             	lea    -0x48(%ebp),%eax
10002a30:	50                   	push   %eax
10002a31:	ff 15 38 d0 00 10    	call   *0x1000d038
10002a37:	8d 45 e8             	lea    -0x18(%ebp),%eax
10002a3a:	50                   	push   %eax
10002a3b:	ff 15 38 d0 00 10    	call   *0x1000d038
10002a41:	8d 45 98             	lea    -0x68(%ebp),%eax
10002a44:	50                   	push   %eax
10002a45:	ff 15 38 d0 00 10    	call   *0x1000d038
10002a4b:	8d 45 88             	lea    -0x78(%ebp),%eax
10002a4e:	50                   	push   %eax
10002a4f:	ff 15 38 d0 00 10    	call   *0x1000d038
10002a55:	8d 45 a8             	lea    -0x58(%ebp),%eax
10002a58:	50                   	push   %eax
10002a59:	ff 15 38 d0 00 10    	call   *0x1000d038
10002a5f:	8b 4d fc             	mov    -0x4(%ebp),%ecx
10002a62:	85 c9                	test   %ecx,%ecx
10002a64:	74 06                	je     0x10002a6c
10002a66:	8b 01                	mov    (%ecx),%eax
10002a68:	51                   	push   %ecx
10002a69:	ff 50 08             	call   *0x8(%eax)
10002a6c:	8b 4d f8             	mov    -0x8(%ebp),%ecx
10002a6f:	85 c9                	test   %ecx,%ecx
10002a71:	74 06                	je     0x10002a79
10002a73:	8b 01                	mov    (%ecx),%eax
10002a75:	51                   	push   %ecx
10002a76:	ff 50 08             	call   *0x8(%eax)
10002a79:	33 d2                	xor    %edx,%edx
10002a7b:	46                   	inc    %esi
10002a7c:	89 55 f8             	mov    %edx,-0x8(%ebp)
10002a7f:	89 55 fc             	mov    %edx,-0x4(%ebp)
10002a82:	3b 75 0c             	cmp    0xc(%ebp),%esi
10002a85:	0f 8c 97 fd ff ff    	jl     0x10002822
10002a8b:	5b                   	pop    %ebx
10002a8c:	85 ff                	test   %edi,%edi
10002a8e:	74 07                	je     0x10002a97
10002a90:	57                   	push   %edi
10002a91:	ff 15 40 d0 00 10    	call   *0x1000d040
10002a97:	5f                   	pop    %edi
10002a98:	33 c0                	xor    %eax,%eax
10002a9a:	5e                   	pop    %esi
10002a9b:	8b e5                	mov    %ebp,%esp
10002a9d:	5d                   	pop    %ebp
10002a9e:	c2 0c 00             	ret    $0xc
10002aa1:	33 c0                	xor    %eax,%eax
10002aa3:	c2 14 00             	ret    $0x14
10002aa6:	55                   	push   %ebp
10002aa7:	8b ec                	mov    %esp,%ebp
10002aa9:	81 ec c4 01 00 00    	sub    $0x1c4,%esp
10002aaf:	53                   	push   %ebx
10002ab0:	33 db                	xor    %ebx,%ebx
10002ab2:	53                   	push   %ebx
10002ab3:	53                   	push   %ebx
10002ab4:	ff 15 d4 22 01 10    	call   *0x100122d4
10002aba:	85 c0                	test   %eax,%eax
10002abc:	79 08                	jns    0x10002ac6
10002abe:	33 c0                	xor    %eax,%eax
10002ac0:	40                   	inc    %eax
10002ac1:	e9 58 02 00 00       	jmp    0x10002d1e
10002ac6:	8d 45 f4             	lea    -0xc(%ebp),%eax
10002ac9:	50                   	push   %eax
10002aca:	68 08 d3 00 10       	push   $0x1000d308
10002acf:	6a 01                	push   $0x1
10002ad1:	53                   	push   %ebx
10002ad2:	68 18 d3 00 10       	push   $0x1000d318
10002ad7:	ff 15 5c 22 01 10    	call   *0x1001225c
10002add:	85 c0                	test   %eax,%eax
10002adf:	79 08                	jns    0x10002ae9
10002ae1:	6a 02                	push   $0x2
10002ae3:	58                   	pop    %eax
10002ae4:	e9 35 02 00 00       	jmp    0x10002d1e
10002ae9:	56                   	push   %esi
10002aea:	57                   	push   %edi
10002aeb:	e8 4c 2a 00 00       	call   0x1000553c
10002af0:	8b 3d 38 d0 00 10    	mov    0x1000d038,%edi
10002af6:	6a 03                	push   $0x3
10002af8:	5e                   	pop    %esi
10002af9:	85 c0                	test   %eax,%eax
10002afb:	74 2e                	je     0x10002b2b
10002afd:	8d 45 d8             	lea    -0x28(%ebp),%eax
10002b00:	50                   	push   %eax
10002b01:	ff 15 3c d0 00 10    	call   *0x1000d03c
10002b07:	8b 45 f4             	mov    -0xc(%ebp),%eax
10002b0a:	8d 55 d8             	lea    -0x28(%ebp),%edx
10002b0d:	52                   	push   %edx
10002b0e:	53                   	push   %ebx
10002b0f:	66 89 75 d8          	mov    %si,-0x28(%ebp)
10002b13:	c7 45 e0 40 00 00 00 	movl   $0x40,-0x20(%ebp)
10002b1a:	8b 08                	mov    (%eax),%ecx
10002b1c:	68 70 d2 00 10       	push   $0x1000d270
10002b21:	50                   	push   %eax
10002b22:	ff 51 20             	call   *0x20(%ecx)
10002b25:	8d 45 d8             	lea    -0x28(%ebp),%eax
10002b28:	50                   	push   %eax
10002b29:	ff d7                	call   *%edi
10002b2b:	8d 45 e8             	lea    -0x18(%ebp),%eax
10002b2e:	50                   	push   %eax
10002b2f:	68 48 d3 00 10       	push   $0x1000d348
10002b34:	68 01 44 00 00       	push   $0x4401
10002b39:	53                   	push   %ebx
10002b3a:	68 28 d3 00 10       	push   $0x1000d328
10002b3f:	ff 15 5c 22 01 10    	call   *0x1001225c
10002b45:	85 c0                	test   %eax,%eax
10002b47:	0f 88 be 01 00 00    	js     0x10002d0b
10002b4d:	8d 45 b0             	lea    -0x50(%ebp),%eax
10002b50:	50                   	push   %eax
10002b51:	6a 14                	push   $0x14
10002b53:	6a 09                	push   $0x9
10002b55:	68 b0 0b 00 00       	push   $0xbb0
10002b5a:	68 70 12 01 10       	push   $0x10011270
10002b5f:	e8 59 35 00 00       	call   0x100060bd
10002b64:	8b 1d 44 d0 00 10    	mov    0x1000d044,%ebx
10002b6a:	33 c0                	xor    %eax,%eax
10002b6c:	83 c4 14             	add    $0x14,%esp
10002b6f:	66 89 45 c4          	mov    %ax,-0x3c(%ebp)
10002b73:	8d 45 b0             	lea    -0x50(%ebp),%eax
10002b76:	50                   	push   %eax
10002b77:	ff d3                	call   *%ebx
10002b79:	8b 4d e8             	mov    -0x18(%ebp),%ecx
10002b7c:	8d 75 f8             	lea    -0x8(%ebp),%esi
10002b7f:	56                   	push   %esi
10002b80:	ff 75 f4             	pushl  -0xc(%ebp)
10002b83:	33 f6                	xor    %esi,%esi
10002b85:	8b 11                	mov    (%ecx),%edx
10002b87:	56                   	push   %esi
10002b88:	56                   	push   %esi
10002b89:	56                   	push   %esi
10002b8a:	56                   	push   %esi
10002b8b:	56                   	push   %esi
10002b8c:	50                   	push   %eax
10002b8d:	51                   	push   %ecx
10002b8e:	ff 52 0c             	call   *0xc(%edx)
10002b91:	85 c0                	test   %eax,%eax
10002b93:	0f 88 72 01 00 00    	js     0x10002d0b
10002b99:	56                   	push   %esi
10002b9a:	56                   	push   %esi
10002b9b:	6a 03                	push   $0x3
10002b9d:	6a 03                	push   $0x3
10002b9f:	56                   	push   %esi
10002ba0:	56                   	push   %esi
10002ba1:	6a 0a                	push   $0xa
10002ba3:	ff 75 f8             	pushl  -0x8(%ebp)
10002ba6:	ff 15 5c 21 01 10    	call   *0x1001215c
10002bac:	85 c0                	test   %eax,%eax
10002bae:	0f 88 57 01 00 00    	js     0x10002d0b
10002bb4:	8d 45 e0             	lea    -0x20(%ebp),%eax
10002bb7:	89 75 f0             	mov    %esi,-0x10(%ebp)
10002bba:	50                   	push   %eax
10002bbb:	6a 06                	push   $0x6
10002bbd:	6a 04                	push   $0x4
10002bbf:	68 a0 03 00 00       	push   $0x3a0
10002bc4:	be 70 12 01 10       	mov    $0x10011270,%esi
10002bc9:	56                   	push   %esi
10002bca:	e8 ee 34 00 00       	call   0x100060bd
10002bcf:	33 c0                	xor    %eax,%eax
10002bd1:	66 89 45 e6          	mov    %ax,-0x1a(%ebp)
10002bd5:	8d 85 3c ff ff ff    	lea    -0xc4(%ebp),%eax
10002bdb:	50                   	push   %eax
10002bdc:	6a 3c                	push   $0x3c
10002bde:	6a 0f                	push   $0xf
10002be0:	68 88 02 00 00       	push   $0x288
10002be5:	56                   	push   %esi
10002be6:	e8 d2 34 00 00       	call   0x100060bd
10002beb:	33 c0                	xor    %eax,%eax
10002bed:	83 c4 28             	add    $0x28,%esp
10002bf0:	66 89 85 78 ff ff ff 	mov    %ax,-0x88(%ebp)
10002bf7:	8d 45 e0             	lea    -0x20(%ebp),%eax
10002bfa:	50                   	push   %eax
10002bfb:	ff d3                	call   *%ebx
10002bfd:	8b f0                	mov    %eax,%esi
10002bff:	8d 85 3c ff ff ff    	lea    -0xc4(%ebp),%eax
10002c05:	50                   	push   %eax
10002c06:	ff d3                	call   *%ebx
10002c08:	8b 4d f8             	mov    -0x8(%ebp),%ecx
10002c0b:	8d 7d f0             	lea    -0x10(%ebp),%edi
10002c0e:	57                   	push   %edi
10002c0f:	6a 00                	push   $0x0
10002c11:	6a 30                	push   $0x30
10002c13:	8b 11                	mov    (%ecx),%edx
10002c15:	50                   	push   %eax
10002c16:	56                   	push   %esi
10002c17:	51                   	push   %ecx
10002c18:	ff 52 50             	call   *0x50(%edx)
10002c1b:	8b 3d 38 d0 00 10    	mov    0x1000d038,%edi
10002c21:	85 c0                	test   %eax,%eax
10002c23:	0f 88 e2 00 00 00    	js     0x10002d0b
10002c29:	33 f6                	xor    %esi,%esi
10002c2b:	e9 ba 00 00 00       	jmp    0x10002cea
10002c30:	8b 45 ec             	mov    -0x14(%ebp),%eax
10002c33:	8d 55 c8             	lea    -0x38(%ebp),%edx
10002c36:	56                   	push   %esi
10002c37:	56                   	push   %esi
10002c38:	52                   	push   %edx
10002c39:	8b 08                	mov    (%eax),%ecx
10002c3b:	56                   	push   %esi
10002c3c:	68 a0 d2 00 10       	push   $0x1000d2a0
10002c41:	50                   	push   %eax
10002c42:	ff 51 10             	call   *0x10(%ecx)
10002c45:	85 c0                	test   %eax,%eax
10002c47:	0f 88 8e 00 00 00    	js     0x10002cdb
10002c4d:	66 83 7d c8 08       	cmpw   $0x8,-0x38(%ebp)
10002c52:	0f 85 83 00 00 00    	jne    0x10002cdb
10002c58:	68 00 01 00 00       	push   $0x100
10002c5d:	8d 85 3c fe ff ff    	lea    -0x1c4(%ebp),%eax
10002c63:	56                   	push   %esi
10002c64:	50                   	push   %eax
10002c65:	e8 a5 1e 00 00       	call   0x10004b0f
10002c6a:	8d 85 7c ff ff ff    	lea    -0x84(%ebp),%eax
10002c70:	50                   	push   %eax
10002c71:	6a 30                	push   $0x30
10002c73:	6a 0b                	push   $0xb
10002c75:	68 76 07 00 00       	push   $0x776
10002c7a:	68 70 12 01 10       	push   $0x10011270
10002c7f:	e8 39 34 00 00       	call   0x100060bd
10002c84:	ff 75 d0             	pushl  -0x30(%ebp)
10002c87:	33 c0                	xor    %eax,%eax
10002c89:	66 89 45 ac          	mov    %ax,-0x54(%ebp)
10002c8d:	8d 85 7c ff ff ff    	lea    -0x84(%ebp),%eax
10002c93:	50                   	push   %eax
10002c94:	8d 85 3c fe ff ff    	lea    -0x1c4(%ebp),%eax
10002c9a:	50                   	push   %eax
10002c9b:	ff 15 50 22 01 10    	call   *0x10012250
10002ca1:	83 c4 2c             	add    $0x2c,%esp
10002ca4:	85 c0                	test   %eax,%eax
10002ca6:	74 2d                	je     0x10002cd5
10002ca8:	8d 85 3c fe ff ff    	lea    -0x1c4(%ebp),%eax
10002cae:	50                   	push   %eax
10002caf:	ff d3                	call   *%ebx
10002cb1:	8b 4d f8             	mov    -0x8(%ebp),%ecx
10002cb4:	56                   	push   %esi
10002cb5:	ff 75 f4             	pushl  -0xc(%ebp)
10002cb8:	8b 11                	mov    (%ecx),%edx
10002cba:	56                   	push   %esi
10002cbb:	50                   	push   %eax
10002cbc:	51                   	push   %ecx
10002cbd:	ff 52 40             	call   *0x40(%edx)
10002cc0:	68 80 00 00 00       	push   $0x80
10002cc5:	8d 85 3c fe ff ff    	lea    -0x1c4(%ebp),%eax
10002ccb:	56                   	push   %esi
10002ccc:	50                   	push   %eax
10002ccd:	e8 3d 1e 00 00       	call   0x10004b0f
10002cd2:	83 c4 0c             	add    $0xc,%esp
10002cd5:	8d 45 c8             	lea    -0x38(%ebp),%eax
10002cd8:	50                   	push   %eax
10002cd9:	ff d7                	call   *%edi
10002cdb:	8b 45 ec             	mov    -0x14(%ebp),%eax
10002cde:	50                   	push   %eax
10002cdf:	8b 08                	mov    (%eax),%ecx
10002ce1:	ff 51 08             	call   *0x8(%ecx)
10002ce4:	8d 45 c8             	lea    -0x38(%ebp),%eax
10002ce7:	50                   	push   %eax
10002ce8:	ff d7                	call   *%edi
10002cea:	8b 45 f0             	mov    -0x10(%ebp),%eax
10002ced:	8d 55 fc             	lea    -0x4(%ebp),%edx
10002cf0:	52                   	push   %edx
10002cf1:	8d 55 ec             	lea    -0x14(%ebp),%edx
10002cf4:	89 75 fc             	mov    %esi,-0x4(%ebp)
10002cf7:	52                   	push   %edx
10002cf8:	8b 08                	mov    (%eax),%ecx
10002cfa:	6a 01                	push   $0x1
10002cfc:	6a ff                	push   $0xffffffff
10002cfe:	50                   	push   %eax
10002cff:	ff 51 10             	call   *0x10(%ecx)
10002d02:	39 75 fc             	cmp    %esi,-0x4(%ebp)
10002d05:	0f 85 25 ff ff ff    	jne    0x10002c30
10002d0b:	8b 45 e8             	mov    -0x18(%ebp),%eax
10002d0e:	50                   	push   %eax
10002d0f:	8b 08                	mov    (%eax),%ecx
10002d11:	ff 51 08             	call   *0x8(%ecx)
10002d14:	ff 15 60 21 01 10    	call   *0x10012160
10002d1a:	5f                   	pop    %edi
10002d1b:	33 c0                	xor    %eax,%eax
10002d1d:	5e                   	pop    %esi
10002d1e:	5b                   	pop    %ebx
10002d1f:	8b e5                	mov    %ebp,%esp
10002d21:	5d                   	pop    %ebp
10002d22:	c2 04 00             	ret    $0x4
10002d25:	55                   	push   %ebp
10002d26:	8b ec                	mov    %esp,%ebp
10002d28:	83 ec 10             	sub    $0x10,%esp
10002d2b:	8d 45 f0             	lea    -0x10(%ebp),%eax
10002d2e:	53                   	push   %ebx
10002d2f:	56                   	push   %esi
10002d30:	57                   	push   %edi
10002d31:	50                   	push   %eax
10002d32:	ff 15 3c d0 00 10    	call   *0x1000d03c
10002d38:	68 a0 d1 00 10       	push   $0x1000d1a0
10002d3d:	ff 15 44 d0 00 10    	call   *0x1000d044
10002d43:	8b 4d 0c             	mov    0xc(%ebp),%ecx
10002d46:	33 db                	xor    %ebx,%ebx
10002d48:	53                   	push   %ebx
10002d49:	53                   	push   %ebx
10002d4a:	8b f0                	mov    %eax,%esi
10002d4c:	8d 45 f0             	lea    -0x10(%ebp),%eax
10002d4f:	8b 11                	mov    (%ecx),%edx
10002d51:	50                   	push   %eax
10002d52:	53                   	push   %ebx
10002d53:	68 84 d0 00 10       	push   $0x1000d084
10002d58:	51                   	push   %ecx
10002d59:	ff 52 10             	call   *0x10(%edx)
10002d5c:	8b f8                	mov    %eax,%edi
10002d5e:	85 ff                	test   %edi,%edi
10002d60:	78 17                	js     0x10002d79
10002d62:	8b 45 08             	mov    0x8(%ebp),%eax
10002d65:	53                   	push   %ebx
10002d66:	53                   	push   %ebx
10002d67:	53                   	push   %ebx
10002d68:	8b 40 0c             	mov    0xc(%eax),%eax
10002d6b:	53                   	push   %ebx
10002d6c:	53                   	push   %ebx
10002d6d:	56                   	push   %esi
10002d6e:	ff 75 f8             	pushl  -0x8(%ebp)
10002d71:	8b 08                	mov    (%eax),%ecx
10002d73:	50                   	push   %eax
10002d74:	ff 51 60             	call   *0x60(%ecx)
10002d77:	8b f8                	mov    %eax,%edi
10002d79:	8d 45 f0             	lea    -0x10(%ebp),%eax
10002d7c:	50                   	push   %eax
10002d7d:	ff 15 38 d0 00 10    	call   *0x1000d038
10002d83:	85 f6                	test   %esi,%esi
10002d85:	74 07                	je     0x10002d8e
10002d87:	56                   	push   %esi
10002d88:	ff 15 40 d0 00 10    	call   *0x1000d040
10002d8e:	8b c7                	mov    %edi,%eax
10002d90:	5f                   	pop    %edi
10002d91:	5e                   	pop    %esi
10002d92:	5b                   	pop    %ebx
10002d93:	8b e5                	mov    %ebp,%esp
10002d95:	5d                   	pop    %ebp
10002d96:	c3                   	ret    
10002d97:	55                   	push   %ebp
10002d98:	8b ec                	mov    %esp,%ebp
10002d9a:	83 ec 30             	sub    $0x30,%esp
10002d9d:	53                   	push   %ebx
10002d9e:	56                   	push   %esi
10002d9f:	8b 35 3c d0 00 10    	mov    0x1000d03c,%esi
10002da5:	8d 45 d0             	lea    -0x30(%ebp),%eax
10002da8:	57                   	push   %edi
10002da9:	33 ff                	xor    %edi,%edi
10002dab:	50                   	push   %eax
10002dac:	89 7d f8             	mov    %edi,-0x8(%ebp)
10002daf:	89 7d fc             	mov    %edi,-0x4(%ebp)
10002db2:	89 7d f4             	mov    %edi,-0xc(%ebp)
10002db5:	ff d6                	call   *%esi
10002db7:	8d 45 e0             	lea    -0x20(%ebp),%eax
10002dba:	50                   	push   %eax
10002dbb:	ff d6                	call   *%esi
10002dbd:	8b 35 44 d0 00 10    	mov    0x1000d044,%esi
10002dc3:	68 7c d1 00 10       	push   $0x1000d17c
10002dc8:	ff d6                	call   *%esi
10002dca:	68 68 d0 00 10       	push   $0x1000d068
10002dcf:	8b d8                	mov    %eax,%ebx
10002dd1:	ff d6                	call   *%esi
10002dd3:	8b 75 08             	mov    0x8(%ebp),%esi
10002dd6:	57                   	push   %edi
10002dd7:	8d 7d f4             	lea    -0xc(%ebp),%edi
10002dda:	89 45 f0             	mov    %eax,-0x10(%ebp)
10002ddd:	57                   	push   %edi
10002dde:	8b 4e 0c             	mov    0xc(%esi),%ecx
10002de1:	6a 00                	push   $0x0
10002de3:	6a 00                	push   $0x0
10002de5:	50                   	push   %eax
10002de6:	8b 11                	mov    (%ecx),%edx
10002de8:	51                   	push   %ecx
10002de9:	ff 52 18             	call   *0x18(%edx)
10002dec:	8b f8                	mov    %eax,%edi
10002dee:	85 ff                	test   %edi,%edi
10002df0:	0f 88 8c 00 00 00    	js     0x10002e82
10002df6:	8b 45 0c             	mov    0xc(%ebp),%eax
10002df9:	8d 55 d0             	lea    -0x30(%ebp),%edx
10002dfc:	33 ff                	xor    %edi,%edi
10002dfe:	57                   	push   %edi
10002dff:	57                   	push   %edi
10002e00:	8b 08                	mov    (%eax),%ecx
10002e02:	52                   	push   %edx
10002e03:	57                   	push   %edi
10002e04:	68 84 d0 00 10       	push   $0x1000d084
10002e09:	50                   	push   %eax
10002e0a:	ff 51 10             	call   *0x10(%ecx)
10002e0d:	8b f8                	mov    %eax,%edi
10002e0f:	85 ff                	test   %edi,%edi
10002e11:	78 6f                	js     0x10002e82
10002e13:	8b 45 f4             	mov    -0xc(%ebp),%eax
10002e16:	8d 55 f8             	lea    -0x8(%ebp),%edx
10002e19:	6a 00                	push   $0x0
10002e1b:	52                   	push   %edx
10002e1c:	6a 00                	push   $0x0
10002e1e:	8b 08                	mov    (%eax),%ecx
10002e20:	53                   	push   %ebx
10002e21:	50                   	push   %eax
10002e22:	ff 51 4c             	call   *0x4c(%ecx)
10002e25:	8b f8                	mov    %eax,%edi
10002e27:	85 ff                	test   %edi,%edi
10002e29:	78 57                	js     0x10002e82
10002e2b:	8b 45 f8             	mov    -0x8(%ebp),%eax
10002e2e:	8d 55 fc             	lea    -0x4(%ebp),%edx
10002e31:	52                   	push   %edx
10002e32:	6a 00                	push   $0x0
10002e34:	50                   	push   %eax
10002e35:	8b 08                	mov    (%eax),%ecx
10002e37:	ff 51 3c             	call   *0x3c(%ecx)
10002e3a:	8b f8                	mov    %eax,%edi
10002e3c:	85 ff                	test   %edi,%edi
10002e3e:	78 42                	js     0x10002e82
10002e40:	6a 03                	push   $0x3
10002e42:	58                   	pop    %eax
10002e43:	6a 00                	push   $0x0
10002e45:	66 89 45 e0          	mov    %ax,-0x20(%ebp)
10002e49:	8d 55 e0             	lea    -0x20(%ebp),%edx
10002e4c:	8b 45 fc             	mov    -0x4(%ebp),%eax
10002e4f:	52                   	push   %edx
10002e50:	6a 00                	push   $0x0
10002e52:	c7 45 e8 39 30 00 00 	movl   $0x3039,-0x18(%ebp)
10002e59:	8b 08                	mov    (%eax),%ecx
10002e5b:	68 90 d1 00 10       	push   $0x1000d190
10002e60:	50                   	push   %eax
10002e61:	ff 51 14             	call   *0x14(%ecx)
10002e64:	8b f8                	mov    %eax,%edi
10002e66:	85 ff                	test   %edi,%edi
10002e68:	78 18                	js     0x10002e82
10002e6a:	8b 46 0c             	mov    0xc(%esi),%eax
10002e6d:	33 d2                	xor    %edx,%edx
10002e6f:	52                   	push   %edx
10002e70:	52                   	push   %edx
10002e71:	ff 75 fc             	pushl  -0x4(%ebp)
10002e74:	8b 08                	mov    (%eax),%ecx
10002e76:	52                   	push   %edx
10002e77:	52                   	push   %edx
10002e78:	53                   	push   %ebx
10002e79:	ff 75 d8             	pushl  -0x28(%ebp)
10002e7c:	50                   	push   %eax
10002e7d:	ff 51 60             	call   *0x60(%ecx)
10002e80:	8b f8                	mov    %eax,%edi
10002e82:	8b 4d fc             	mov    -0x4(%ebp),%ecx
10002e85:	85 c9                	test   %ecx,%ecx
10002e87:	74 06                	je     0x10002e8f
10002e89:	8b 01                	mov    (%ecx),%eax
10002e8b:	51                   	push   %ecx
10002e8c:	ff 50 08             	call   *0x8(%eax)
10002e8f:	8b 4d f8             	mov    -0x8(%ebp),%ecx
10002e92:	85 c9                	test   %ecx,%ecx
10002e94:	74 06                	je     0x10002e9c
10002e96:	8b 01                	mov    (%ecx),%eax
10002e98:	51                   	push   %ecx
10002e99:	ff 50 08             	call   *0x8(%eax)
10002e9c:	8b 4d f4             	mov    -0xc(%ebp),%ecx
10002e9f:	85 c9                	test   %ecx,%ecx
10002ea1:	74 06                	je     0x10002ea9
10002ea3:	8b 01                	mov    (%ecx),%eax
10002ea5:	51                   	push   %ecx
10002ea6:	ff 50 08             	call   *0x8(%eax)
10002ea9:	8b 35 38 d0 00 10    	mov    0x1000d038,%esi
10002eaf:	8d 45 d0             	lea    -0x30(%ebp),%eax
10002eb2:	50                   	push   %eax
10002eb3:	ff d6                	call   *%esi
10002eb5:	8d 45 e0             	lea    -0x20(%ebp),%eax
10002eb8:	50                   	push   %eax
10002eb9:	ff d6                	call   *%esi
10002ebb:	8b 35 40 d0 00 10    	mov    0x1000d040,%esi
10002ec1:	85 db                	test   %ebx,%ebx
10002ec3:	74 03                	je     0x10002ec8
10002ec5:	53                   	push   %ebx
10002ec6:	ff d6                	call   *%esi
10002ec8:	8b 45 f0             	mov    -0x10(%ebp),%eax
10002ecb:	85 c0                	test   %eax,%eax
10002ecd:	74 03                	je     0x10002ed2
10002ecf:	50                   	push   %eax
10002ed0:	ff d6                	call   *%esi
10002ed2:	8b c7                	mov    %edi,%eax
10002ed4:	5f                   	pop    %edi
10002ed5:	5e                   	pop    %esi
10002ed6:	5b                   	pop    %ebx
10002ed7:	8b e5                	mov    %ebp,%esp
10002ed9:	5d                   	pop    %ebp
10002eda:	c3                   	ret    
10002edb:	55                   	push   %ebp
10002edc:	8b ec                	mov    %esp,%ebp
10002ede:	56                   	push   %esi
10002edf:	8b 75 0c             	mov    0xc(%ebp),%esi
10002ee2:	57                   	push   %edi
10002ee3:	8d 46 24             	lea    0x24(%esi),%eax
10002ee6:	50                   	push   %eax
10002ee7:	e8 85 00 00 00       	call   0x10002f71
10002eec:	8b f8                	mov    %eax,%edi
10002eee:	59                   	pop    %ecx
10002eef:	85 ff                	test   %edi,%edi
10002ef1:	74 23                	je     0x10002f16
10002ef3:	ff 76 08             	pushl  0x8(%esi)
10002ef6:	6a 00                	push   $0x0
10002ef8:	6a 01                	push   $0x1
10002efa:	ff 15 18 22 01 10    	call   *0x10012218
10002f00:	8b f0                	mov    %eax,%esi
10002f02:	85 f6                	test   %esi,%esi
10002f04:	74 10                	je     0x10002f16
10002f06:	6a 00                	push   $0x0
10002f08:	56                   	push   %esi
10002f09:	ff 15 a4 22 01 10    	call   *0x100122a4
10002f0f:	56                   	push   %esi
10002f10:	e8 e9 1e 00 00       	call   0x10004dfe
10002f15:	59                   	pop    %ecx
10002f16:	8b c7                	mov    %edi,%eax
10002f18:	5f                   	pop    %edi
10002f19:	5e                   	pop    %esi
10002f1a:	5d                   	pop    %ebp
10002f1b:	c3                   	ret    
10002f1c:	55                   	push   %ebp
10002f1d:	8b ec                	mov    %esp,%ebp
10002f1f:	83 ec 0c             	sub    $0xc,%esp
10002f22:	8d 45 fc             	lea    -0x4(%ebp),%eax
10002f25:	56                   	push   %esi
10002f26:	50                   	push   %eax
10002f27:	e8 ba ee ff ff       	call   0x10001de6
10002f2c:	8b f0                	mov    %eax,%esi
10002f2e:	59                   	pop    %ecx
10002f2f:	85 f6                	test   %esi,%esi
10002f31:	74 39                	je     0x10002f6c
10002f33:	57                   	push   %edi
10002f34:	ff 75 0c             	pushl  0xc(%ebp)
10002f37:	e8 81 10 00 00       	call   0x10003fbd
10002f3c:	8b f8                	mov    %eax,%edi
10002f3e:	59                   	pop    %ecx
10002f3f:	85 ff                	test   %edi,%edi
10002f41:	74 21                	je     0x10002f64
10002f43:	8d 45 f8             	lea    -0x8(%ebp),%eax
10002f46:	50                   	push   %eax
10002f47:	8d 45 f4             	lea    -0xc(%ebp),%eax
10002f4a:	50                   	push   %eax
10002f4b:	ff 75 fc             	pushl  -0x4(%ebp)
10002f4e:	56                   	push   %esi
10002f4f:	57                   	push   %edi
10002f50:	e8 5a 4f 00 00       	call   0x10007eaf
10002f55:	57                   	push   %edi
10002f56:	8b f0                	mov    %eax,%esi
10002f58:	e8 78 1b 00 00       	call   0x10004ad5
10002f5d:	83 c4 18             	add    $0x18,%esp
10002f60:	85 f6                	test   %esi,%esi
10002f62:	74 07                	je     0x10002f6b
10002f64:	56                   	push   %esi
10002f65:	e8 6b 1b 00 00       	call   0x10004ad5
10002f6a:	59                   	pop    %ecx
10002f6b:	5f                   	pop    %edi
10002f6c:	5e                   	pop    %esi
10002f6d:	8b e5                	mov    %ebp,%esp
10002f6f:	5d                   	pop    %ebp
10002f70:	c3                   	ret    
10002f71:	55                   	push   %ebp
10002f72:	8b ec                	mov    %esp,%ebp
10002f74:	53                   	push   %ebx
10002f75:	57                   	push   %edi
10002f76:	8b 7d 08             	mov    0x8(%ebp),%edi
10002f79:	33 db                	xor    %ebx,%ebx
10002f7b:	68 50 d1 00 10       	push   $0x1000d150
10002f80:	57                   	push   %edi
10002f81:	e8 ec 33 00 00       	call   0x10006372
10002f86:	59                   	pop    %ecx
10002f87:	50                   	push   %eax
10002f88:	e8 04 36 00 00       	call   0x10006591
10002f8d:	59                   	pop    %ecx
10002f8e:	59                   	pop    %ecx
10002f8f:	85 c0                	test   %eax,%eax
10002f91:	74 2e                	je     0x10002fc1
10002f93:	2b c7                	sub    %edi,%eax
10002f95:	d1 f8                	sar    %eax
10002f97:	33 c9                	xor    %ecx,%ecx
10002f99:	56                   	push   %esi
10002f9a:	66 89 0c 47          	mov    %cx,(%edi,%eax,2)
10002f9e:	8b 35 80 32 01 10    	mov    0x10013280,%esi
10002fa4:	eb 11                	jmp    0x10002fb7
10002fa6:	57                   	push   %edi
10002fa7:	ff 36                	pushl  (%esi)
10002fa9:	e8 7c 31 00 00       	call   0x1000612a
10002fae:	59                   	pop    %ecx
10002faf:	59                   	pop    %ecx
10002fb0:	85 c0                	test   %eax,%eax
10002fb2:	75 09                	jne    0x10002fbd
10002fb4:	8b 76 04             	mov    0x4(%esi),%esi
10002fb7:	85 f6                	test   %esi,%esi
10002fb9:	75 eb                	jne    0x10002fa6
10002fbb:	eb 03                	jmp    0x10002fc0
10002fbd:	33 db                	xor    %ebx,%ebx
10002fbf:	43                   	inc    %ebx
10002fc0:	5e                   	pop    %esi
10002fc1:	5f                   	pop    %edi
10002fc2:	8b c3                	mov    %ebx,%eax
10002fc4:	5b                   	pop    %ebx
10002fc5:	5d                   	pop    %ebp
10002fc6:	c3                   	ret    
10002fc7:	55                   	push   %ebp
10002fc8:	8b ec                	mov    %esp,%ebp
10002fca:	56                   	push   %esi
10002fcb:	57                   	push   %edi
10002fcc:	ff 75 08             	pushl  0x8(%ebp)
10002fcf:	33 ff                	xor    %edi,%edi
10002fd1:	e8 9c 33 00 00       	call   0x10006372
10002fd6:	8b 35 90 32 01 10    	mov    0x10013290,%esi
10002fdc:	59                   	pop    %ecx
10002fdd:	eb 13                	jmp    0x10002ff2
10002fdf:	ff 75 08             	pushl  0x8(%ebp)
10002fe2:	ff 36                	pushl  (%esi)
10002fe4:	e8 41 31 00 00       	call   0x1000612a
10002fe9:	59                   	pop    %ecx
10002fea:	59                   	pop    %ecx
10002feb:	85 c0                	test   %eax,%eax
10002fed:	75 09                	jne    0x10002ff8
10002fef:	8b 76 04             	mov    0x4(%esi),%esi
10002ff2:	85 f6                	test   %esi,%esi
10002ff4:	75 e9                	jne    0x10002fdf
10002ff6:	eb 03                	jmp    0x10002ffb
10002ff8:	33 ff                	xor    %edi,%edi
10002ffa:	47                   	inc    %edi
10002ffb:	8b c7                	mov    %edi,%eax
10002ffd:	5f                   	pop    %edi
10002ffe:	5e                   	pop    %esi
10002fff:	5d                   	pop    %ebp
10003000:	c3                   	ret    
10003001:	55                   	push   %ebp
10003002:	8b ec                	mov    %esp,%ebp
10003004:	6a 01                	push   $0x1
10003006:	ff 75 0c             	pushl  0xc(%ebp)
10003009:	e8 a5 28 00 00       	call   0x100058b3
1000300e:	a1 a0 32 01 10       	mov    0x100132a0,%eax
10003013:	59                   	pop    %ecx
10003014:	59                   	pop    %ecx
10003015:	85 c0                	test   %eax,%eax
10003017:	74 0f                	je     0x10003028
10003019:	39 05 20 2d 01 10    	cmp    %eax,0x10012d20
1000301f:	73 10                	jae    0x10003031
10003021:	f0 ff 05 20 2d 01 10 	lock incl 0x10012d20
10003028:	ff 75 0c             	pushl  0xc(%ebp)
1000302b:	e8 bf 13 00 00       	call   0x100043ef
10003030:	59                   	pop    %ecx
10003031:	33 c0                	xor    %eax,%eax
10003033:	40                   	inc    %eax
10003034:	33 d2                	xor    %edx,%edx
10003036:	5d                   	pop    %ebp
10003037:	c3                   	ret    
10003038:	55                   	push   %ebp
10003039:	8b ec                	mov    %esp,%ebp
1000303b:	83 ec 4c             	sub    $0x4c,%esp
1000303e:	83 3d cc 32 01 10 00 	cmpl   $0x0,0x100132cc
10003045:	74 08                	je     0x1000304f
10003047:	33 c0                	xor    %eax,%eax
10003049:	40                   	inc    %eax
1000304a:	e9 3b 01 00 00       	jmp    0x1000318a
1000304f:	56                   	push   %esi
10003050:	8b 75 0c             	mov    0xc(%ebp),%esi
10003053:	85 f6                	test   %esi,%esi
10003055:	75 08                	jne    0x1000305f
10003057:	33 c0                	xor    %eax,%eax
10003059:	40                   	inc    %eax
1000305a:	e9 2a 01 00 00       	jmp    0x10003189
1000305f:	53                   	push   %ebx
10003060:	ff 75 08             	pushl  0x8(%ebp)
10003063:	e8 0a 33 00 00       	call   0x10006372
10003068:	56                   	push   %esi
10003069:	e8 04 33 00 00       	call   0x10006372
1000306e:	83 3d 38 2d 01 10 00 	cmpl   $0x0,0x10012d38
10003075:	59                   	pop    %ecx
10003076:	59                   	pop    %ecx
10003077:	75 5e                	jne    0x100030d7
10003079:	83 3d 3c 2d 01 10 00 	cmpl   $0x0,0x10012d3c
10003080:	bb 40 10 01 10       	mov    $0x10011040,%ebx
10003085:	75 32                	jne    0x100030b9
10003087:	68 04 01 00 00       	push   $0x104
1000308c:	53                   	push   %ebx
1000308d:	ff 15 10 d0 00 10    	call   *0x1000d010
10003093:	8d 04 45 40 10 01 10 	lea    0x10011040(,%eax,2),%eax
1000309a:	50                   	push   %eax
1000309b:	ff 15 2c 21 01 10    	call   *0x1001212c
100030a1:	53                   	push   %ebx
100030a2:	ff 15 d4 21 01 10    	call   *0x100121d4
100030a8:	53                   	push   %ebx
100030a9:	e8 c4 32 00 00       	call   0x10006372
100030ae:	59                   	pop    %ecx
100030af:	c7 05 3c 2d 01 10 01 	movl   $0x1,0x10012d3c
100030b6:	00 00 00 
100030b9:	ff 75 08             	pushl  0x8(%ebp)
100030bc:	53                   	push   %ebx
100030bd:	e8 5f 33 00 00       	call   0x10006421
100030c2:	59                   	pop    %ecx
100030c3:	59                   	pop    %ecx
100030c4:	85 c0                	test   %eax,%eax
100030c6:	75 0f                	jne    0x100030d7
100030c8:	c7 05 38 2d 01 10 01 	movl   $0x1,0x10012d38
100030cf:	00 00 00 
100030d2:	e9 b1 00 00 00       	jmp    0x10003188
100030d7:	8d 45 dc             	lea    -0x24(%ebp),%eax
100030da:	bb 70 12 01 10       	mov    $0x10011270,%ebx
100030df:	50                   	push   %eax
100030e0:	6a 1a                	push   $0x1a
100030e2:	6a 0b                	push   $0xb
100030e4:	68 0c 0c 00 00       	push   $0xc0c
100030e9:	53                   	push   %ebx
100030ea:	e8 ce 2f 00 00       	call   0x100060bd
100030ef:	33 c0                	xor    %eax,%eax
100030f1:	66 89 45 f6          	mov    %ax,-0xa(%ebp)
100030f5:	8d 45 b4             	lea    -0x4c(%ebp),%eax
100030f8:	50                   	push   %eax
100030f9:	6a 26                	push   $0x26
100030fb:	6a 0b                	push   $0xb
100030fd:	68 f2 06 00 00       	push   $0x6f2
10003102:	53                   	push   %ebx
10003103:	e8 b5 2f 00 00       	call   0x100060bd
10003108:	33 c0                	xor    %eax,%eax
1000310a:	66 89 45 da          	mov    %ax,-0x26(%ebp)
1000310e:	8d 45 dc             	lea    -0x24(%ebp),%eax
10003111:	50                   	push   %eax
10003112:	56                   	push   %esi
10003113:	e8 09 33 00 00       	call   0x10006421
10003118:	83 c4 30             	add    $0x30,%esp
1000311b:	85 c0                	test   %eax,%eax
1000311d:	74 66                	je     0x10003185
1000311f:	8d 45 b4             	lea    -0x4c(%ebp),%eax
10003122:	50                   	push   %eax
10003123:	56                   	push   %esi
10003124:	e8 f8 32 00 00       	call   0x10006421
10003129:	59                   	pop    %ecx
1000312a:	59                   	pop    %ecx
1000312b:	85 c0                	test   %eax,%eax
1000312d:	74 56                	je     0x10003185
1000312f:	8d 45 dc             	lea    -0x24(%ebp),%eax
10003132:	50                   	push   %eax
10003133:	ff 75 08             	pushl  0x8(%ebp)
10003136:	e8 56 34 00 00       	call   0x10006591
1000313b:	59                   	pop    %ecx
1000313c:	59                   	pop    %ecx
1000313d:	85 c0                	test   %eax,%eax
1000313f:	74 30                	je     0x10003171
10003141:	8d 45 f8             	lea    -0x8(%ebp),%eax
10003144:	50                   	push   %eax
10003145:	6a 06                	push   $0x6
10003147:	6a 0a                	push   $0xa
10003149:	68 60 07 00 00       	push   $0x760
1000314e:	53                   	push   %ebx
1000314f:	e8 69 2f 00 00       	call   0x100060bd
10003154:	33 c0                	xor    %eax,%eax
10003156:	66 89 45 fe          	mov    %ax,-0x2(%ebp)
1000315a:	8d 45 f8             	lea    -0x8(%ebp),%eax
1000315d:	50                   	push   %eax
1000315e:	ff 75 08             	pushl  0x8(%ebp)
10003161:	e8 2b 34 00 00       	call   0x10006591
10003166:	83 c4 1c             	add    $0x1c,%esp
10003169:	f7 d8                	neg    %eax
1000316b:	1b c0                	sbb    %eax,%eax
1000316d:	f7 d8                	neg    %eax
1000316f:	eb 17                	jmp    0x10003188
10003171:	56                   	push   %esi
10003172:	68 54 32 01 10       	push   $0x10013254
10003177:	e8 21 36 00 00       	call   0x1000679d
1000317c:	f7 d8                	neg    %eax
1000317e:	59                   	pop    %ecx
1000317f:	1b c0                	sbb    %eax,%eax
10003181:	59                   	pop    %ecx
10003182:	40                   	inc    %eax
10003183:	eb 03                	jmp    0x10003188
10003185:	33 c0                	xor    %eax,%eax
10003187:	40                   	inc    %eax
10003188:	5b                   	pop    %ebx
10003189:	5e                   	pop    %esi
1000318a:	8b e5                	mov    %ebp,%esp
1000318c:	5d                   	pop    %ebp
1000318d:	c3                   	ret    
1000318e:	55                   	push   %ebp
1000318f:	8b ec                	mov    %esp,%ebp
10003191:	8b 45 0c             	mov    0xc(%ebp),%eax
10003194:	50                   	push   %eax
10003195:	6a 00                	push   $0x0
10003197:	6a 00                	push   $0x0
10003199:	ff 75 08             	pushl  0x8(%ebp)
1000319c:	c7 80 54 01 00 00 03 	movl   $0x3,0x154(%eax)
100031a3:	00 00 00 
100031a6:	e8 f2 44 00 00       	call   0x1000769d
100031ab:	83 c4 10             	add    $0x10,%esp
100031ae:	5d                   	pop    %ebp
100031af:	c3                   	ret    
100031b0:	55                   	push   %ebp
100031b1:	8b ec                	mov    %esp,%ebp
100031b3:	56                   	push   %esi
100031b4:	8b 75 0c             	mov    0xc(%ebp),%esi
100031b7:	6a 40                	push   $0x40
100031b9:	8d 86 10 01 00 00    	lea    0x110(%esi),%eax
100031bf:	50                   	push   %eax
100031c0:	e8 68 3c 00 00       	call   0x10006e2d
100031c5:	56                   	push   %esi
100031c6:	e8 ec 44 00 00       	call   0x100076b7
100031cb:	56                   	push   %esi
100031cc:	ff 75 08             	pushl  0x8(%ebp)
100031cf:	e8 98 44 00 00       	call   0x1000766c
100031d4:	83 c4 14             	add    $0x14,%esp
100031d7:	5e                   	pop    %esi
100031d8:	5d                   	pop    %ebp
100031d9:	c3                   	ret    
100031da:	55                   	push   %ebp
100031db:	8b ec                	mov    %esp,%ebp
100031dd:	81 ec ec 00 00 00    	sub    $0xec,%esp
100031e3:	53                   	push   %ebx
100031e4:	56                   	push   %esi
100031e5:	57                   	push   %edi
100031e6:	33 db                	xor    %ebx,%ebx
100031e8:	33 ff                	xor    %edi,%edi
100031ea:	53                   	push   %ebx
100031eb:	6a 03                	push   $0x3
100031ed:	47                   	inc    %edi
100031ee:	57                   	push   %edi
100031ef:	68 00 00 00 80       	push   $0x80000000
100031f4:	ff 75 0c             	pushl  0xc(%ebp)
100031f7:	e8 b1 47 00 00       	call   0x100079ad
100031fc:	8b f0                	mov    %eax,%esi
100031fe:	83 c4 14             	add    $0x14,%esp
10003201:	85 f6                	test   %esi,%esi
10003203:	74 17                	je     0x1000321c
10003205:	39 5d 14             	cmp    %ebx,0x14(%ebp)
10003208:	7f 3b                	jg     0x10003245
1000320a:	7c 09                	jl     0x10003215
1000320c:	81 7d 10 e8 00 00 00 	cmpl   $0xe8,0x10(%ebp)
10003213:	73 30                	jae    0x10003245
10003215:	56                   	push   %esi
10003216:	e8 e3 1b 00 00       	call   0x10004dfe
1000321b:	59                   	pop    %ecx
1000321c:	83 7d 14 00          	cmpl   $0x0,0x14(%ebp)
10003220:	bb 00 00 10 00       	mov    $0x100000,%ebx
10003225:	7f 0a                	jg     0x10003231
10003227:	7c 05                	jl     0x1000322e
10003229:	39 5d 10             	cmp    %ebx,0x10(%ebp)
1000322c:	73 03                	jae    0x10003231
1000322e:	8b 5d 10             	mov    0x10(%ebp),%ebx
10003231:	8b 7d 08             	mov    0x8(%ebp),%edi
10003234:	8d 83 60 01 00 00    	lea    0x160(%ebx),%eax
1000323a:	50                   	push   %eax
1000323b:	57                   	push   %edi
1000323c:	e8 17 44 00 00       	call   0x10007658
10003241:	59                   	pop    %ecx
10003242:	59                   	pop    %ecx
10003243:	eb 7e                	jmp    0x100032c3
10003245:	6a 02                	push   $0x2
10003247:	6a ff                	push   $0xffffffff
10003249:	68 18 ff ff ff       	push   $0xffffff18
1000324e:	56                   	push   %esi
1000324f:	e8 98 47 00 00       	call   0x100079ec
10003254:	8d 45 fc             	lea    -0x4(%ebp),%eax
10003257:	50                   	push   %eax
10003258:	68 e8 00 00 00       	push   $0xe8
1000325d:	8d 85 14 ff ff ff    	lea    -0xec(%ebp),%eax
10003263:	50                   	push   %eax
10003264:	56                   	push   %esi
10003265:	e8 69 47 00 00       	call   0x100079d3
1000326a:	83 c4 20             	add    $0x20,%esp
1000326d:	85 c0                	test   %eax,%eax
1000326f:	74 09                	je     0x1000327a
10003271:	81 7d fc e8 00 00 00 	cmpl   $0xe8,-0x4(%ebp)
10003278:	74 02                	je     0x1000327c
1000327a:	8b fb                	mov    %ebx,%edi
1000327c:	56                   	push   %esi
1000327d:	e8 7c 1b 00 00       	call   0x10004dfe
10003282:	59                   	pop    %ecx
10003283:	85 ff                	test   %edi,%edi
10003285:	74 95                	je     0x1000321c
10003287:	6a 20                	push   $0x20
10003289:	8d 45 c4             	lea    -0x3c(%ebp),%eax
1000328c:	50                   	push   %eax
1000328d:	53                   	push   %ebx
1000328e:	e8 ad 39 00 00       	call   0x10006c40
10003293:	83 c4 0c             	add    $0xc,%esp
10003296:	39 45 ec             	cmp    %eax,-0x14(%ebp)
10003299:	75 81                	jne    0x1000321c
1000329b:	33 c0                	xor    %eax,%eax
1000329d:	e9 db 00 00 00       	jmp    0x1000337d
100032a2:	e8 b3 22 00 00       	call   0x1000555a
100032a7:	83 f8 08             	cmp    $0x8,%eax
100032aa:	75 ef                	jne    0x1000329b
100032ac:	6a 64                	push   $0x64
100032ae:	e8 b5 26 00 00       	call   0x10005968
100032b3:	8d 83 60 01 00 00    	lea    0x160(%ebx),%eax
100032b9:	50                   	push   %eax
100032ba:	57                   	push   %edi
100032bb:	e8 98 43 00 00       	call   0x10007658
100032c0:	83 c4 0c             	add    $0xc,%esp
100032c3:	8b f0                	mov    %eax,%esi
100032c5:	85 f6                	test   %esi,%esi
100032c7:	74 d9                	je     0x100032a2
100032c9:	6a 03                	push   $0x3
100032cb:	59                   	pop    %ecx
100032cc:	33 c0                	xor    %eax,%eax
100032ce:	89 9e 58 01 00 00    	mov    %ebx,0x158(%esi)
100032d4:	8b 5d 0c             	mov    0xc(%ebp),%ebx
100032d7:	51                   	push   %ecx
100032d8:	89 86 54 01 00 00    	mov    %eax,0x154(%esi)
100032de:	89 86 50 01 00 00    	mov    %eax,0x150(%esi)
100032e4:	89 4d fc             	mov    %ecx,-0x4(%ebp)
100032e7:	50                   	push   %eax
100032e8:	eb 6d                	jmp    0x10003357
100032ea:	e8 6b 22 00 00       	call   0x1000555a
100032ef:	8b 55 fc             	mov    -0x4(%ebp),%edx
100032f2:	8b ca                	mov    %edx,%ecx
100032f4:	4a                   	dec    %edx
100032f5:	89 55 fc             	mov    %edx,-0x4(%ebp)
100032f8:	85 c9                	test   %ecx,%ecx
100032fa:	74 33                	je     0x1000332f
100032fc:	83 f8 05             	cmp    $0x5,%eax
100032ff:	75 3a                	jne    0x1000333b
10003301:	6a 00                	push   $0x0
10003303:	53                   	push   %ebx
10003304:	e8 aa 25 00 00       	call   0x100058b3
10003309:	59                   	pop    %ecx
1000330a:	59                   	pop    %ecx
1000330b:	85 c0                	test   %eax,%eax
1000330d:	74 65                	je     0x10003374
1000330f:	53                   	push   %ebx
10003310:	ff 15 94 21 01 10    	call   *0x10012194
10003316:	83 f8 ff             	cmp    $0xffffffff,%eax
10003319:	74 14                	je     0x1000332f
1000331b:	a8 01                	test   $0x1,%al
1000331d:	74 34                	je     0x10003353
1000331f:	68 80 00 00 00       	push   $0x80
10003324:	53                   	push   %ebx
10003325:	ff 15 28 21 01 10    	call   *0x10012128
1000332b:	85 c0                	test   %eax,%eax
1000332d:	75 24                	jne    0x10003353
1000332f:	56                   	push   %esi
10003330:	57                   	push   %edi
10003331:	e8 36 43 00 00       	call   0x1000766c
10003336:	59                   	pop    %ecx
10003337:	33 c0                	xor    %eax,%eax
10003339:	eb 41                	jmp    0x1000337c
1000333b:	83 f8 20             	cmp    $0x20,%eax
1000333e:	75 13                	jne    0x10003353
10003340:	53                   	push   %ebx
10003341:	e8 b6 29 00 00       	call   0x10005cfc
10003346:	c7 04 24 e8 03 00 00 	movl   $0x3e8,(%esp)
1000334d:	e8 16 26 00 00       	call   0x10005968
10003352:	59                   	pop    %ecx
10003353:	6a 03                	push   $0x3
10003355:	6a 00                	push   $0x0
10003357:	68 00 00 00 c0       	push   $0xc0000000
1000335c:	ff 75 14             	pushl  0x14(%ebp)
1000335f:	ff 75 10             	pushl  0x10(%ebp)
10003362:	53                   	push   %ebx
10003363:	56                   	push   %esi
10003364:	e8 6a 43 00 00       	call   0x100076d3
10003369:	83 c4 1c             	add    $0x1c,%esp
1000336c:	85 c0                	test   %eax,%eax
1000336e:	0f 84 76 ff ff ff    	je     0x100032ea
10003374:	56                   	push   %esi
10003375:	e8 0a 00 00 00       	call   0x10003384
1000337a:	8b c6                	mov    %esi,%eax
1000337c:	59                   	pop    %ecx
1000337d:	5f                   	pop    %edi
1000337e:	5e                   	pop    %esi
1000337f:	5b                   	pop    %ebx
10003380:	8b e5                	mov    %ebp,%esp
10003382:	5d                   	pop    %ebp
10003383:	c3                   	ret    
10003384:	55                   	push   %ebp
10003385:	8b ec                	mov    %esp,%ebp
10003387:	8b 45 08             	mov    0x8(%ebp),%eax
1000338a:	83 ec 40             	sub    $0x40,%esp
1000338d:	53                   	push   %ebx
1000338e:	56                   	push   %esi
1000338f:	57                   	push   %edi
10003390:	6a 16                	push   $0x16
10003392:	59                   	pop    %ecx
10003393:	8d 78 28             	lea    0x28(%eax),%edi
10003396:	be 60 31 01 10       	mov    $0x10013160,%esi
1000339b:	f3 a5                	rep movsl %ds:(%esi),%es:(%edi)
1000339d:	6a 16                	push   $0x16
1000339f:	59                   	pop    %ecx
100033a0:	8d 98 d8 00 00 00    	lea    0xd8(%eax),%ebx
100033a6:	be b8 31 01 10       	mov    $0x100131b8,%esi
100033ab:	8d b8 80 00 00 00    	lea    0x80(%eax),%edi
100033b1:	8d 45 e0             	lea    -0x20(%ebp),%eax
100033b4:	53                   	push   %ebx
100033b5:	f3 a5                	rep movsl %ds:(%esi),%es:(%edi)
100033b7:	50                   	push   %eax
100033b8:	e8 97 36 00 00       	call   0x10006a54
100033bd:	8d 45 c0             	lea    -0x40(%ebp),%eax
100033c0:	50                   	push   %eax
100033c1:	8d 45 e0             	lea    -0x20(%ebp),%eax
100033c4:	68 40 31 01 10       	push   $0x10013140
100033c9:	50                   	push   %eax
100033ca:	e8 b4 39 00 00       	call   0x10006d83
100033cf:	8d 45 e0             	lea    -0x20(%ebp),%eax
100033d2:	6a 20                	push   $0x20
100033d4:	50                   	push   %eax
100033d5:	e8 53 3a 00 00       	call   0x10006e2d
100033da:	8b 75 08             	mov    0x8(%ebp),%esi
100033dd:	8d 45 c0             	lea    -0x40(%ebp),%eax
100033e0:	6a 40                	push   $0x40
100033e2:	68 00 01 00 00       	push   $0x100
100033e7:	50                   	push   %eax
100033e8:	8d be 10 01 00 00    	lea    0x110(%esi),%edi
100033ee:	57                   	push   %edi
100033ef:	e8 07 51 00 00       	call   0x100084fb
100033f4:	8d 45 c0             	lea    -0x40(%ebp),%eax
100033f7:	6a 20                	push   $0x20
100033f9:	50                   	push   %eax
100033fa:	e8 2e 3a 00 00       	call   0x10006e2d
100033ff:	81 c6 f8 00 00 00    	add    $0xf8,%esi
10003405:	6a 08                	push   $0x8
10003407:	56                   	push   %esi
10003408:	e8 df 38 00 00       	call   0x10006cec
1000340d:	56                   	push   %esi
1000340e:	57                   	push   %edi
1000340f:	e8 c9 50 00 00       	call   0x100084dd
10003414:	83 c4 44             	add    $0x44,%esp
10003417:	6a 20                	push   $0x20
10003419:	53                   	push   %ebx
1000341a:	6a 00                	push   $0x0
1000341c:	e8 1f 38 00 00       	call   0x10006c40
10003421:	8b 4d 08             	mov    0x8(%ebp),%ecx
10003424:	6a 04                	push   $0x4
10003426:	89 81 00 01 00 00    	mov    %eax,0x100(%ecx)
1000342c:	a1 98 32 01 10       	mov    0x10013298,%eax
10003431:	89 81 04 01 00 00    	mov    %eax,0x104(%ecx)
10003437:	a1 9c 32 01 10       	mov    0x1001329c,%eax
1000343c:	89 81 08 01 00 00    	mov    %eax,0x108(%ecx)
10003442:	8d 81 0c 01 00 00    	lea    0x10c(%ecx),%eax
10003448:	83 20 00             	andl   $0x0,(%eax)
1000344b:	50                   	push   %eax
1000344c:	50                   	push   %eax
1000344d:	57                   	push   %edi
1000344e:	e8 e1 4f 00 00       	call   0x10008434
10003453:	83 c4 1c             	add    $0x1c,%esp
10003456:	5f                   	pop    %edi
10003457:	5e                   	pop    %esi
10003458:	5b                   	pop    %ebx
10003459:	8b e5                	mov    %ebp,%esp
1000345b:	5d                   	pop    %ebp
1000345c:	c3                   	ret    
1000345d:	55                   	push   %ebp
1000345e:	8b ec                	mov    %esp,%ebp
10003460:	83 ec 0c             	sub    $0xc,%esp
10003463:	53                   	push   %ebx
10003464:	56                   	push   %esi
10003465:	57                   	push   %edi
10003466:	8b 7d 0c             	mov    0xc(%ebp),%edi
10003469:	ff 77 14             	pushl  0x14(%edi)
1000346c:	e8 8d 19 00 00       	call   0x10004dfe
10003471:	ff 77 18             	pushl  0x18(%edi)
10003474:	83 67 14 00          	andl   $0x0,0x14(%edi)
10003478:	e8 ae 30 00 00       	call   0x1000652b
1000347d:	8d 04 45 80 00 00 00 	lea    0x80(,%eax,2),%eax
10003484:	50                   	push   %eax
10003485:	e8 fe 15 00 00       	call   0x10004a88
1000348a:	8b f0                	mov    %eax,%esi
1000348c:	83 c4 0c             	add    $0xc,%esp
1000348f:	85 f6                	test   %esi,%esi
10003491:	74 2e                	je     0x100034c1
10003493:	ff 35 28 32 01 10    	pushl  0x10013228
10003499:	ff 77 18             	pushl  0x18(%edi)
1000349c:	56                   	push   %esi
1000349d:	e8 e0 2f 00 00       	call   0x10006482
100034a2:	59                   	pop    %ecx
100034a3:	59                   	pop    %ecx
100034a4:	50                   	push   %eax
100034a5:	e8 f6 2e 00 00       	call   0x100063a0
100034aa:	50                   	push   %eax
100034ab:	ff 77 18             	pushl  0x18(%edi)
100034ae:	e8 ee 45 00 00       	call   0x10007aa1
100034b3:	ff 77 18             	pushl  0x18(%edi)
100034b6:	e8 1a 16 00 00       	call   0x10004ad5
100034bb:	83 c4 14             	add    $0x14,%esp
100034be:	89 77 18             	mov    %esi,0x18(%edi)
100034c1:	8b 47 20             	mov    0x20(%edi),%eax
100034c4:	89 45 fc             	mov    %eax,-0x4(%ebp)
100034c7:	8b 47 24             	mov    0x24(%edi),%eax
100034ca:	8b 7d fc             	mov    -0x4(%ebp),%edi
100034cd:	89 45 f8             	mov    %eax,-0x8(%ebp)
100034d0:	8b 35 28 2d 01 10    	mov    0x10012d28,%esi
100034d6:	8b de                	mov    %esi,%ebx
100034d8:	8b 15 2c 2d 01 10    	mov    0x10012d2c,%edx
100034de:	03 df                	add    %edi,%ebx
100034e0:	8b ca                	mov    %edx,%ecx
100034e2:	89 55 f4             	mov    %edx,-0xc(%ebp)
100034e5:	13 c8                	adc    %eax,%ecx
100034e7:	bf 28 2d 01 10       	mov    $0x10012d28,%edi
100034ec:	8b c6                	mov    %esi,%eax
100034ee:	f0 0f c7 0f          	lock cmpxchg8b (%edi)
100034f2:	8b 7d fc             	mov    -0x4(%ebp),%edi
100034f5:	3b c6                	cmp    %esi,%eax
100034f7:	8b 45 f8             	mov    -0x8(%ebp),%eax
100034fa:	75 d4                	jne    0x100034d0
100034fc:	3b 55 f4             	cmp    -0xc(%ebp),%edx
100034ff:	75 cf                	jne    0x100034d0
10003501:	8b 35 30 2d 01 10    	mov    0x10012d30,%esi
10003507:	bf 30 2d 01 10       	mov    $0x10012d30,%edi
1000350c:	8b 15 34 2d 01 10    	mov    0x10012d34,%edx
10003512:	8b de                	mov    %esi,%ebx
10003514:	83 c3 01             	add    $0x1,%ebx
10003517:	89 55 f4             	mov    %edx,-0xc(%ebp)
1000351a:	8b ca                	mov    %edx,%ecx
1000351c:	8b c6                	mov    %esi,%eax
1000351e:	83 d1 00             	adc    $0x0,%ecx
10003521:	f0 0f c7 0f          	lock cmpxchg8b (%edi)
10003525:	8b 7d 0c             	mov    0xc(%ebp),%edi
10003528:	3b c6                	cmp    %esi,%eax
1000352a:	75 d5                	jne    0x10003501
1000352c:	3b 55 f4             	cmp    -0xc(%ebp),%edx
1000352f:	75 d0                	jne    0x10003501
10003531:	57                   	push   %edi
10003532:	ff 75 08             	pushl  0x8(%ebp)
10003535:	e8 76 fc ff ff       	call   0x100031b0
1000353a:	59                   	pop    %ecx
1000353b:	59                   	pop    %ecx
1000353c:	5f                   	pop    %edi
1000353d:	5e                   	pop    %esi
1000353e:	5b                   	pop    %ebx
1000353f:	8b e5                	mov    %ebp,%esp
10003541:	5d                   	pop    %ebp
10003542:	c3                   	ret    
10003543:	55                   	push   %ebp
10003544:	8b ec                	mov    %esp,%ebp
10003546:	8b 45 10             	mov    0x10(%ebp),%eax
10003549:	56                   	push   %esi
1000354a:	8b 75 0c             	mov    0xc(%ebp),%esi
1000354d:	57                   	push   %edi
1000354e:	ff b6 58 01 00 00    	pushl  0x158(%esi)
10003554:	8d be 5c 01 00 00    	lea    0x15c(%esi),%edi
1000355a:	c7 86 50 01 00 00 01 	movl   $0x1,0x150(%esi)
10003561:	00 00 00 
10003564:	57                   	push   %edi
10003565:	56                   	push   %esi
10003566:	89 86 54 01 00 00    	mov    %eax,0x154(%esi)
1000356c:	e8 c3 41 00 00       	call   0x10007734
10003571:	83 c4 0c             	add    $0xc,%esp
10003574:	eb 28                	jmp    0x1000359e
10003576:	e8 df 1f 00 00       	call   0x1000555a
1000357b:	3d e5 03 00 00       	cmp    $0x3e5,%eax
10003580:	74 2d                	je     0x100035af
10003582:	83 f8 26             	cmp    $0x26,%eax
10003585:	74 1d                	je     0x100035a4
10003587:	6a 64                	push   $0x64
10003589:	e8 da 23 00 00       	call   0x10005968
1000358e:	ff b6 58 01 00 00    	pushl  0x158(%esi)
10003594:	57                   	push   %edi
10003595:	56                   	push   %esi
10003596:	e8 99 41 00 00       	call   0x10007734
1000359b:	83 c4 10             	add    $0x10,%esp
1000359e:	85 c0                	test   %eax,%eax
100035a0:	74 d4                	je     0x10003576
100035a2:	eb 0b                	jmp    0x100035af
100035a4:	56                   	push   %esi
100035a5:	ff 75 08             	pushl  0x8(%ebp)
100035a8:	e8 e1 fb ff ff       	call   0x1000318e
100035ad:	59                   	pop    %ecx
100035ae:	59                   	pop    %ecx
100035af:	5f                   	pop    %edi
100035b0:	5e                   	pop    %esi
100035b1:	5d                   	pop    %ebp
100035b2:	c3                   	ret    
100035b3:	55                   	push   %ebp
100035b4:	8b ec                	mov    %esp,%ebp
100035b6:	83 ec 50             	sub    $0x50,%esp
100035b9:	53                   	push   %ebx
100035ba:	56                   	push   %esi
100035bb:	57                   	push   %edi
100035bc:	33 ff                	xor    %edi,%edi
100035be:	33 db                	xor    %ebx,%ebx
100035c0:	47                   	inc    %edi
100035c1:	8b f3                	mov    %ebx,%esi
100035c3:	39 1d cc 32 01 10    	cmp    %ebx,0x100132cc
100035c9:	0f 84 9d 00 00 00    	je     0x1000366c
100035cf:	8d 45 f0             	lea    -0x10(%ebp),%eax
100035d2:	50                   	push   %eax
100035d3:	e8 48 18 00 00       	call   0x10004e20
100035d8:	8b f8                	mov    %eax,%edi
100035da:	59                   	pop    %ecx
100035db:	85 ff                	test   %edi,%edi
100035dd:	75 07                	jne    0x100035e6
100035df:	33 c0                	xor    %eax,%eax
100035e1:	e9 62 02 00 00       	jmp    0x10003848
100035e6:	83 7d f0 02          	cmpl   $0x2,-0x10(%ebp)
100035ea:	7f 0d                	jg     0x100035f9
100035ec:	57                   	push   %edi
100035ed:	e8 20 18 00 00       	call   0x10004e12
100035f2:	33 c0                	xor    %eax,%eax
100035f4:	e9 4e 02 00 00       	jmp    0x10003847
100035f9:	8b 0d bc 32 01 10    	mov    0x100132bc,%ecx
100035ff:	85 c9                	test   %ecx,%ecx
10003601:	a1 98 32 01 10       	mov    0x10013298,%eax
10003606:	6a 01                	push   $0x1
10003608:	5a                   	pop    %edx
10003609:	0f 45 c2             	cmovne %edx,%eax
1000360c:	a3 98 32 01 10       	mov    %eax,0x10013298
10003611:	39 1d c0 32 01 10    	cmp    %ebx,0x100132c0
10003617:	74 0a                	je     0x10003623
10003619:	89 1d 98 32 01 10    	mov    %ebx,0x10013298
1000361f:	85 c9                	test   %ecx,%ecx
10003621:	75 bc                	jne    0x100035df
10003623:	68 08 02 00 00       	push   $0x208
10003628:	e8 5b 14 00 00       	call   0x10004a88
1000362d:	8b f0                	mov    %eax,%esi
1000362f:	59                   	pop    %ecx
10003630:	85 f6                	test   %esi,%esi
10003632:	74 b8                	je     0x100035ec
10003634:	ff 77 0c             	pushl  0xc(%edi)
10003637:	56                   	push   %esi
10003638:	e8 45 2e 00 00       	call   0x10006482
1000363d:	57                   	push   %edi
1000363e:	e8 cf 17 00 00       	call   0x10004e12
10003643:	56                   	push   %esi
10003644:	e8 e2 2e 00 00       	call   0x1000652b
10003649:	83 c4 10             	add    $0x10,%esp
1000364c:	33 ff                	xor    %edi,%edi
1000364e:	47                   	inc    %edi
1000364f:	0f b7 4c 46 fe       	movzwl -0x2(%esi,%eax,2),%ecx
10003654:	6a 5c                	push   $0x5c
10003656:	5a                   	pop    %edx
10003657:	66 3b ca             	cmp    %dx,%cx
1000365a:	74 10                	je     0x1000366c
1000365c:	83 f9 22             	cmp    $0x22,%ecx
1000365f:	75 07                	jne    0x10003668
10003661:	66 89 54 46 fe       	mov    %dx,-0x2(%esi,%eax,2)
10003666:	eb 04                	jmp    0x1000366c
10003668:	66 89 14 46          	mov    %dx,(%esi,%eax,2)
1000366c:	68 4f 38 00 10       	push   $0x1000384f
10003671:	53                   	push   %ebx
10003672:	8d 45 e0             	lea    -0x20(%ebp),%eax
10003675:	89 1d 28 2d 01 10    	mov    %ebx,0x10012d28
1000367b:	53                   	push   %ebx
1000367c:	50                   	push   %eax
1000367d:	89 1d 2c 2d 01 10    	mov    %ebx,0x10012d2c
10003683:	89 1d 30 2d 01 10    	mov    %ebx,0x10012d30
10003689:	89 1d 34 2d 01 10    	mov    %ebx,0x10012d34
1000368f:	89 1d 24 2d 01 10    	mov    %ebx,0x10012d24
10003695:	e8 5d 3f 00 00       	call   0x100075f7
1000369a:	83 c4 10             	add    $0x10,%esp
1000369d:	85 c0                	test   %eax,%eax
1000369f:	0f 84 3a ff ff ff    	je     0x100035df
100036a5:	8d 45 e0             	lea    -0x20(%ebp),%eax
100036a8:	89 5d b0             	mov    %ebx,-0x50(%ebp)
100036ab:	c7 45 b4 38 30 00 10 	movl   $0x10003038,-0x4c(%ebp)
100036b2:	c7 45 b8 c5 3b 00 10 	movl   $0x10003bc5,-0x48(%ebp)
100036b9:	89 5d bc             	mov    %ebx,-0x44(%ebp)
100036bc:	89 45 c0             	mov    %eax,-0x40(%ebp)
100036bf:	89 5d c8             	mov    %ebx,-0x38(%ebp)
100036c2:	89 5d cc             	mov    %ebx,-0x34(%ebp)
100036c5:	89 5d d0             	mov    %ebx,-0x30(%ebp)
100036c8:	89 5d d4             	mov    %ebx,-0x2c(%ebp)
100036cb:	c7 45 d8 01 30 00 10 	movl   $0x10003001,-0x28(%ebp)
100036d2:	c7 45 dc 5d 3b 00 10 	movl   $0x10003b5d,-0x24(%ebp)
100036d9:	39 1d cc 32 01 10    	cmp    %ebx,0x100132cc
100036df:	0f 84 e1 00 00 00    	je     0x100037c6
100036e5:	56                   	push   %esi
100036e6:	ff 15 f8 21 01 10    	call   *0x100121f8
100036ec:	56                   	push   %esi
100036ed:	ff 15 e4 20 01 10    	call   *0x100120e4
100036f3:	56                   	push   %esi
100036f4:	85 c0                	test   %eax,%eax
100036f6:	74 1e                	je     0x10003716
100036f8:	ff 15 d4 21 01 10    	call   *0x100121d4
100036fe:	8d 45 b0             	lea    -0x50(%ebp),%eax
10003701:	50                   	push   %eax
10003702:	56                   	push   %esi
10003703:	e8 7a 40 00 00       	call   0x10007782
10003708:	56                   	push   %esi
10003709:	e8 c7 13 00 00       	call   0x10004ad5
1000370e:	83 c4 0c             	add    $0xc,%esp
10003711:	e9 f3 00 00 00       	jmp    0x10003809
10003716:	ff 15 dc 21 01 10    	call   *0x100121dc
1000371c:	85 c0                	test   %eax,%eax
1000371e:	0f 84 bb fe ff ff    	je     0x100035df
10003724:	53                   	push   %ebx
10003725:	8d 45 ec             	lea    -0x14(%ebp),%eax
10003728:	50                   	push   %eax
10003729:	8d 45 fc             	lea    -0x4(%ebp),%eax
1000372c:	50                   	push   %eax
1000372d:	6a ff                	push   $0xffffffff
1000372f:	8d 45 f4             	lea    -0xc(%ebp),%eax
10003732:	50                   	push   %eax
10003733:	57                   	push   %edi
10003734:	56                   	push   %esi
10003735:	ff 15 60 22 01 10    	call   *0x10012260
1000373b:	85 c0                	test   %eax,%eax
1000373d:	0f 85 9c fe ff ff    	jne    0x100035df
10003743:	56                   	push   %esi
10003744:	ff 15 d4 21 01 10    	call   *0x100121d4
1000374a:	8b 5d f4             	mov    -0xc(%ebp),%ebx
1000374d:	68 00 08 00 00       	push   $0x800
10003752:	e8 31 13 00 00       	call   0x10004a88
10003757:	59                   	pop    %ecx
10003758:	8b 4d fc             	mov    -0x4(%ebp),%ecx
1000375b:	8b f8                	mov    %eax,%edi
1000375d:	33 c0                	xor    %eax,%eax
1000375f:	89 45 f8             	mov    %eax,-0x8(%ebp)
10003762:	85 c9                	test   %ecx,%ecx
10003764:	74 55                	je     0x100037bb
10003766:	f7 43 04 03 00 00 80 	testl  $0x80000003,0x4(%ebx)
1000376d:	75 41                	jne    0x100037b0
1000376f:	56                   	push   %esi
10003770:	57                   	push   %edi
10003771:	e8 2a 2c 00 00       	call   0x100063a0
10003776:	59                   	pop    %ecx
10003777:	59                   	pop    %ecx
10003778:	57                   	push   %edi
10003779:	ff 15 d4 21 01 10    	call   *0x100121d4
1000377f:	ff 33                	pushl  (%ebx)
10003781:	57                   	push   %edi
10003782:	e8 19 2c 00 00       	call   0x100063a0
10003787:	59                   	pop    %ecx
10003788:	59                   	pop    %ecx
10003789:	57                   	push   %edi
1000378a:	ff 15 d4 21 01 10    	call   *0x100121d4
10003790:	8d 45 b0             	lea    -0x50(%ebp),%eax
10003793:	50                   	push   %eax
10003794:	57                   	push   %edi
10003795:	e8 e8 3f 00 00       	call   0x10007782
1000379a:	68 00 08 00 00       	push   $0x800
1000379f:	6a 00                	push   $0x0
100037a1:	57                   	push   %edi
100037a2:	e8 68 13 00 00       	call   0x10004b0f
100037a7:	8b 4d fc             	mov    -0x4(%ebp),%ecx
100037aa:	83 c4 14             	add    $0x14,%esp
100037ad:	8b 45 f8             	mov    -0x8(%ebp),%eax
100037b0:	40                   	inc    %eax
100037b1:	83 c3 0c             	add    $0xc,%ebx
100037b4:	89 45 f8             	mov    %eax,-0x8(%ebp)
100037b7:	3b c1                	cmp    %ecx,%eax
100037b9:	72 ab                	jb     0x10003766
100037bb:	ff 75 f4             	pushl  -0xc(%ebp)
100037be:	ff 15 20 21 01 10    	call   *0x10012120
100037c4:	eb 43                	jmp    0x10003809
100037c6:	39 1d c8 32 01 10    	cmp    %ebx,0x100132c8
100037cc:	74 0a                	je     0x100037d8
100037ce:	8d 45 b0             	lea    -0x50(%ebp),%eax
100037d1:	50                   	push   %eax
100037d2:	e8 0b 43 00 00       	call   0x10007ae2
100037d7:	59                   	pop    %ecx
100037d8:	39 1d c4 32 01 10    	cmp    %ebx,0x100132c4
100037de:	74 29                	je     0x10003809
100037e0:	53                   	push   %ebx
100037e1:	53                   	push   %ebx
100037e2:	8d 45 b0             	lea    -0x50(%ebp),%eax
100037e5:	50                   	push   %eax
100037e6:	68 e9 7c 00 10       	push   $0x10007ce9
100037eb:	53                   	push   %ebx
100037ec:	53                   	push   %ebx
100037ed:	ff 15 4c 22 01 10    	call   *0x1001224c
100037f3:	8b f0                	mov    %eax,%esi
100037f5:	85 f6                	test   %esi,%esi
100037f7:	74 09                	je     0x10003802
100037f9:	6a ff                	push   $0xffffffff
100037fb:	56                   	push   %esi
100037fc:	ff 15 04 d0 00 10    	call   *0x1000d004
10003802:	56                   	push   %esi
10003803:	ff 15 00 d0 00 10    	call   *0x1000d000
10003809:	a1 34 2d 01 10       	mov    0x10012d34,%eax
1000380e:	3b 45 d4             	cmp    -0x2c(%ebp),%eax
10003811:	77 20                	ja     0x10003833
10003813:	73 14                	jae    0x10003829
10003815:	6a 64                	push   $0x64
10003817:	e8 4c 21 00 00       	call   0x10005968
1000381c:	a1 34 2d 01 10       	mov    0x10012d34,%eax
10003821:	59                   	pop    %ecx
10003822:	3b 45 d4             	cmp    -0x2c(%ebp),%eax
10003825:	72 ee                	jb     0x10003815
10003827:	77 0a                	ja     0x10003833
10003829:	a1 30 2d 01 10       	mov    0x10012d30,%eax
1000382e:	3b 45 d0             	cmp    -0x30(%ebp),%eax
10003831:	72 e2                	jb     0x10003815
10003833:	8d 4d e0             	lea    -0x20(%ebp),%ecx
10003836:	68 24 2d 01 10       	push   $0x10012d24
1000383b:	51                   	push   %ecx
1000383c:	e8 f9 3c 00 00       	call   0x1000753a
10003841:	33 d2                	xor    %edx,%edx
10003843:	59                   	pop    %ecx
10003844:	8d 42 01             	lea    0x1(%edx),%eax
10003847:	59                   	pop    %ecx
10003848:	5f                   	pop    %edi
10003849:	5e                   	pop    %esi
1000384a:	5b                   	pop    %ebx
1000384b:	8b e5                	mov    %ebp,%esp
1000384d:	5d                   	pop    %ebp
1000384e:	c3                   	ret    
1000384f:	55                   	push   %ebp
10003850:	8b ec                	mov    %esp,%ebp
10003852:	83 ec 0c             	sub    $0xc,%esp
10003855:	8d 45 fc             	lea    -0x4(%ebp),%eax
10003858:	56                   	push   %esi
10003859:	8b 75 08             	mov    0x8(%ebp),%esi
1000385c:	6a ff                	push   $0xffffffff
1000385e:	50                   	push   %eax
1000385f:	8d 45 f4             	lea    -0xc(%ebp),%eax
10003862:	50                   	push   %eax
10003863:	8d 45 f8             	lea    -0x8(%ebp),%eax
10003866:	50                   	push   %eax
10003867:	56                   	push   %esi
10003868:	e8 13 3e 00 00       	call   0x10007680
1000386d:	83 c4 14             	add    $0x14,%esp
10003870:	83 3d 24 2d 01 10 00 	cmpl   $0x0,0x10012d24
10003877:	0f 85 0f 01 00 00    	jne    0x1000398c
1000387d:	57                   	push   %edi
1000387e:	33 ff                	xor    %edi,%edi
10003880:	85 c0                	test   %eax,%eax
10003882:	0f 84 cb 00 00 00    	je     0x10003953
10003888:	57                   	push   %edi
10003889:	ff 75 f8             	pushl  -0x8(%ebp)
1000388c:	ff 75 fc             	pushl  -0x4(%ebp)
1000388f:	e8 ba 3e 00 00       	call   0x1000774e
10003894:	8b 4d fc             	mov    -0x4(%ebp),%ecx
10003897:	83 c4 0c             	add    $0xc,%esp
1000389a:	83 3d 98 32 01 10 02 	cmpl   $0x2,0x10013298
100038a1:	75 5a                	jne    0x100038fd
100038a3:	83 b9 50 01 00 00 02 	cmpl   $0x2,0x150(%ecx)
100038aa:	75 51                	jne    0x100038fd
100038ac:	8b 45 f8             	mov    -0x8(%ebp),%eax
100038af:	29 41 20             	sub    %eax,0x20(%ecx)
100038b2:	19 79 24             	sbb    %edi,0x24(%ecx)
100038b5:	8b 45 fc             	mov    -0x4(%ebp),%eax
100038b8:	8b 0d 9c 32 01 10    	mov    0x1001329c,%ecx
100038be:	c1 e1 14             	shl    $0x14,%ecx
100038c1:	39 78 24             	cmp    %edi,0x24(%eax)
100038c4:	7c 25                	jl     0x100038eb
100038c6:	7f 05                	jg     0x100038cd
100038c8:	39 48 20             	cmp    %ecx,0x20(%eax)
100038cb:	76 1e                	jbe    0x100038eb
100038cd:	57                   	push   %edi
100038ce:	51                   	push   %ecx
100038cf:	50                   	push   %eax
100038d0:	e8 79 3e 00 00       	call   0x1000774e
100038d5:	8b 4d fc             	mov    -0x4(%ebp),%ecx
100038d8:	83 c4 0c             	add    $0xc,%esp
100038db:	a1 9c 32 01 10       	mov    0x1001329c,%eax
100038e0:	c1 e0 14             	shl    $0x14,%eax
100038e3:	29 41 20             	sub    %eax,0x20(%ecx)
100038e6:	19 79 24             	sbb    %edi,0x24(%ecx)
100038e9:	eb 0f                	jmp    0x100038fa
100038eb:	ff 70 24             	pushl  0x24(%eax)
100038ee:	ff 70 20             	pushl  0x20(%eax)
100038f1:	50                   	push   %eax
100038f2:	e8 57 3e 00 00       	call   0x1000774e
100038f7:	83 c4 0c             	add    $0xc,%esp
100038fa:	8b 4d fc             	mov    -0x4(%ebp),%ecx
100038fd:	8b 81 54 01 00 00    	mov    0x154(%ecx),%eax
10003903:	83 e8 01             	sub    $0x1,%eax
10003906:	74 3d                	je     0x10003945
10003908:	83 e8 01             	sub    $0x1,%eax
1000390b:	74 1d                	je     0x1000392a
1000390d:	83 e8 01             	sub    $0x1,%eax
10003910:	74 0e                	je     0x10003920
10003912:	83 e8 01             	sub    $0x1,%eax
10003915:	75 51                	jne    0x10003968
10003917:	51                   	push   %ecx
10003918:	56                   	push   %esi
10003919:	e8 3f fb ff ff       	call   0x1000345d
1000391e:	eb 46                	jmp    0x10003966
10003920:	6a 04                	push   $0x4
10003922:	51                   	push   %ecx
10003923:	e8 e8 00 00 00       	call   0x10003a10
10003928:	eb 3c                	jmp    0x10003966
1000392a:	33 c0                	xor    %eax,%eax
1000392c:	40                   	inc    %eax
1000392d:	39 05 98 32 01 10    	cmp    %eax,0x10013298
10003933:	6a 03                	push   $0x3
10003935:	5a                   	pop    %edx
10003936:	0f 44 c2             	cmove  %edx,%eax
10003939:	50                   	push   %eax
1000393a:	ff 75 f8             	pushl  -0x8(%ebp)
1000393d:	51                   	push   %ecx
1000393e:	e8 56 00 00 00       	call   0x10003999
10003943:	eb 09                	jmp    0x1000394e
10003945:	6a 02                	push   $0x2
10003947:	51                   	push   %ecx
10003948:	56                   	push   %esi
10003949:	e8 f5 fb ff ff       	call   0x10003543
1000394e:	83 c4 0c             	add    $0xc,%esp
10003951:	eb 15                	jmp    0x10003968
10003953:	e8 02 1c 00 00       	call   0x1000555a
10003958:	83 f8 26             	cmp    $0x26,%eax
1000395b:	75 0b                	jne    0x10003968
1000395d:	ff 75 fc             	pushl  -0x4(%ebp)
10003960:	56                   	push   %esi
10003961:	e8 28 f8 ff ff       	call   0x1000318e
10003966:	59                   	pop    %ecx
10003967:	59                   	pop    %ecx
10003968:	6a ff                	push   $0xffffffff
1000396a:	8d 45 fc             	lea    -0x4(%ebp),%eax
1000396d:	50                   	push   %eax
1000396e:	8d 45 f4             	lea    -0xc(%ebp),%eax
10003971:	50                   	push   %eax
10003972:	8d 45 f8             	lea    -0x8(%ebp),%eax
10003975:	50                   	push   %eax
10003976:	56                   	push   %esi
10003977:	e8 04 3d 00 00       	call   0x10007680
1000397c:	83 c4 14             	add    $0x14,%esp
1000397f:	39 3d 24 2d 01 10    	cmp    %edi,0x10012d24
10003985:	0f 84 f5 fe ff ff    	je     0x10003880
1000398b:	5f                   	pop    %edi
1000398c:	f0 ff 4e 08          	lock decl 0x8(%esi)
10003990:	33 c0                	xor    %eax,%eax
10003992:	5e                   	pop    %esi
10003993:	8b e5                	mov    %ebp,%esp
10003995:	5d                   	pop    %ebp
10003996:	c2 04 00             	ret    $0x4
10003999:	55                   	push   %ebp
1000399a:	8b ec                	mov    %esp,%ebp
1000399c:	56                   	push   %esi
1000399d:	8b 75 08             	mov    0x8(%ebp),%esi
100039a0:	57                   	push   %edi
100039a1:	ff 75 0c             	pushl  0xc(%ebp)
100039a4:	8d be 5c 01 00 00    	lea    0x15c(%esi),%edi
100039aa:	57                   	push   %edi
100039ab:	8d 86 10 01 00 00    	lea    0x110(%esi),%eax
100039b1:	57                   	push   %edi
100039b2:	50                   	push   %eax
100039b3:	e8 7c 4a 00 00       	call   0x10008434
100039b8:	8b 45 10             	mov    0x10(%ebp),%eax
100039bb:	89 86 54 01 00 00    	mov    %eax,0x154(%esi)
100039c1:	8b 45 0c             	mov    0xc(%ebp),%eax
100039c4:	f7 d8                	neg    %eax
100039c6:	c7 86 50 01 00 00 02 	movl   $0x2,0x150(%esi)
100039cd:	00 00 00 
100039d0:	99                   	cltd   
100039d1:	52                   	push   %edx
100039d2:	50                   	push   %eax
100039d3:	56                   	push   %esi
100039d4:	e8 75 3d 00 00       	call   0x1000774e
100039d9:	ff 75 0c             	pushl  0xc(%ebp)
100039dc:	57                   	push   %edi
100039dd:	56                   	push   %esi
100039de:	e8 85 3d 00 00       	call   0x10007768
100039e3:	83 c4 28             	add    $0x28,%esp
100039e6:	eb 20                	jmp    0x10003a08
100039e8:	e8 6d 1b 00 00       	call   0x1000555a
100039ed:	3d e5 03 00 00       	cmp    $0x3e5,%eax
100039f2:	74 18                	je     0x10003a0c
100039f4:	6a 64                	push   $0x64
100039f6:	e8 6d 1f 00 00       	call   0x10005968
100039fb:	ff 75 0c             	pushl  0xc(%ebp)
100039fe:	57                   	push   %edi
100039ff:	56                   	push   %esi
10003a00:	e8 63 3d 00 00       	call   0x10007768
10003a05:	83 c4 10             	add    $0x10,%esp
10003a08:	85 c0                	test   %eax,%eax
10003a0a:	74 dc                	je     0x100039e8
10003a0c:	5f                   	pop    %edi
10003a0d:	5e                   	pop    %esi
10003a0e:	5d                   	pop    %ebp
10003a0f:	c3                   	ret    
10003a10:	55                   	push   %ebp
10003a11:	8b ec                	mov    %esp,%ebp
10003a13:	8b 45 0c             	mov    0xc(%ebp),%eax
10003a16:	53                   	push   %ebx
10003a17:	56                   	push   %esi
10003a18:	8b 75 08             	mov    0x8(%ebp),%esi
10003a1b:	57                   	push   %edi
10003a1c:	c7 86 50 01 00 00 03 	movl   $0x3,0x150(%esi)
10003a23:	00 00 00 
10003a26:	89 86 54 01 00 00    	mov    %eax,0x154(%esi)
10003a2c:	83 3d 98 32 01 10 01 	cmpl   $0x1,0x10013298
10003a33:	75 25                	jne    0x10003a5a
10003a35:	8b 4e 24             	mov    0x24(%esi),%ecx
10003a38:	8b 46 20             	mov    0x20(%esi),%eax
10003a3b:	85 c9                	test   %ecx,%ecx
10003a3d:	7c 1b                	jl     0x10003a5a
10003a3f:	ba 00 00 10 00       	mov    $0x100000,%edx
10003a44:	7f 04                	jg     0x10003a4a
10003a46:	3b c2                	cmp    %edx,%eax
10003a48:	76 10                	jbe    0x10003a5a
10003a4a:	2b c2                	sub    %edx,%eax
10003a4c:	83 d9 00             	sbb    $0x0,%ecx
10003a4f:	51                   	push   %ecx
10003a50:	50                   	push   %eax
10003a51:	56                   	push   %esi
10003a52:	e8 f7 3c 00 00       	call   0x1000774e
10003a57:	83 c4 0c             	add    $0xc,%esp
10003a5a:	bb e8 00 00 00       	mov    $0xe8,%ebx
10003a5f:	8d 7e 28             	lea    0x28(%esi),%edi
10003a62:	53                   	push   %ebx
10003a63:	57                   	push   %edi
10003a64:	56                   	push   %esi
10003a65:	e8 fe 3c 00 00       	call   0x10007768
10003a6a:	83 c4 0c             	add    $0xc,%esp
10003a6d:	eb 1e                	jmp    0x10003a8d
10003a6f:	e8 e6 1a 00 00       	call   0x1000555a
10003a74:	3d e5 03 00 00       	cmp    $0x3e5,%eax
10003a79:	74 16                	je     0x10003a91
10003a7b:	6a 64                	push   $0x64
10003a7d:	e8 e6 1e 00 00       	call   0x10005968
10003a82:	53                   	push   %ebx
10003a83:	57                   	push   %edi
10003a84:	56                   	push   %esi
10003a85:	e8 de 3c 00 00       	call   0x10007768
10003a8a:	83 c4 10             	add    $0x10,%esp
10003a8d:	85 c0                	test   %eax,%eax
10003a8f:	74 de                	je     0x10003a6f
10003a91:	5f                   	pop    %edi
10003a92:	5e                   	pop    %esi
10003a93:	5b                   	pop    %ebx
10003a94:	5d                   	pop    %ebp
10003a95:	c3                   	ret    
10003a96:	56                   	push   %esi
10003a97:	68 00 80 00 00       	push   $0x8000
10003a9c:	e8 3d 14 00 00       	call   0x10004ede
10003aa1:	50                   	push   %eax
10003aa2:	ff 15 08 d0 00 10    	call   *0x1000d008
10003aa8:	68 01 00 00 80       	push   $0x80000001
10003aad:	ff 15 c8 21 01 10    	call   *0x100121c8
10003ab3:	6a 14                	push   $0x14
10003ab5:	e8 4c 1b 00 00       	call   0x10005606
10003aba:	33 f6                	xor    %esi,%esi
10003abc:	59                   	pop    %ecx
10003abd:	39 35 d0 32 01 10    	cmp    %esi,0x100132d0
10003ac3:	74 43                	je     0x10003b08
10003ac5:	56                   	push   %esi
10003ac6:	56                   	push   %esi
10003ac7:	56                   	push   %esi
10003ac8:	68 27 3c 00 10       	push   $0x10003c27
10003acd:	56                   	push   %esi
10003ace:	56                   	push   %esi
10003acf:	ff 15 4c 22 01 10    	call   *0x1001224c
10003ad5:	50                   	push   %eax
10003ad6:	e8 23 13 00 00       	call   0x10004dfe
10003adb:	e8 ba 03 00 00       	call   0x10003e9a
10003ae0:	c7 04 24 db 2e 00 10 	movl   $0x10002edb,(%esp)
10003ae7:	56                   	push   %esi
10003ae8:	56                   	push   %esi
10003ae9:	e8 90 1b 00 00       	call   0x1000567e
10003aee:	83 c4 0c             	add    $0xc,%esp
10003af1:	56                   	push   %esi
10003af2:	56                   	push   %esi
10003af3:	56                   	push   %esi
10003af4:	68 a6 2a 00 10       	push   $0x10002aa6
10003af9:	56                   	push   %esi
10003afa:	56                   	push   %esi
10003afb:	ff 15 4c 22 01 10    	call   *0x1001224c
10003b01:	50                   	push   %eax
10003b02:	e8 f7 12 00 00       	call   0x10004dfe
10003b07:	59                   	pop    %ecx
10003b08:	6a 09                	push   $0x9
10003b0a:	e8 f7 1a 00 00       	call   0x10005606
10003b0f:	59                   	pop    %ecx
10003b10:	e8 9e fa ff ff       	call   0x100035b3
10003b15:	85 c0                	test   %eax,%eax
10003b17:	74 33                	je     0x10003b4c
10003b19:	39 35 cc 32 01 10    	cmp    %esi,0x100132cc
10003b1f:	75 2b                	jne    0x10003b4c
10003b21:	e8 f4 0c 00 00       	call   0x1000481a
10003b26:	39 35 cc 32 01 10    	cmp    %esi,0x100132cc
10003b2c:	75 1e                	jne    0x10003b4c
10003b2e:	39 35 b0 32 01 10    	cmp    %esi,0x100132b0
10003b34:	74 16                	je     0x10003b4c
10003b36:	68 1c 2f 00 10       	push   $0x10002f1c
10003b3b:	56                   	push   %esi
10003b3c:	6a 3b                	push   $0x3b
10003b3e:	ff 35 18 32 01 10    	pushl  0x10013218
10003b44:	e8 96 25 00 00       	call   0x100060df
10003b49:	83 c4 10             	add    $0x10,%esp
10003b4c:	68 00 00 00 80       	push   $0x80000000
10003b51:	ff 15 c8 21 01 10    	call   *0x100121c8
10003b57:	5e                   	pop    %esi
10003b58:	e9 cb d8 ff ff       	jmp    0x10001428
10003b5d:	55                   	push   %ebp
10003b5e:	8b ec                	mov    %esp,%ebp
10003b60:	56                   	push   %esi
10003b61:	57                   	push   %edi
10003b62:	ff 75 18             	pushl  0x18(%ebp)
10003b65:	8b 7d 08             	mov    0x8(%ebp),%edi
10003b68:	ff 75 14             	pushl  0x14(%ebp)
10003b6b:	ff 75 0c             	pushl  0xc(%ebp)
10003b6e:	57                   	push   %edi
10003b6f:	e8 66 f6 ff ff       	call   0x100031da
10003b74:	8b f0                	mov    %eax,%esi
10003b76:	83 c4 10             	add    $0x10,%esp
10003b79:	85 f6                	test   %esi,%esi
10003b7b:	75 04                	jne    0x10003b81
10003b7d:	33 c0                	xor    %eax,%eax
10003b7f:	eb 3e                	jmp    0x10003bbf
10003b81:	6a 00                	push   $0x0
10003b83:	ff 76 14             	pushl  0x14(%esi)
10003b86:	57                   	push   %edi
10003b87:	e8 89 39 00 00       	call   0x10007515
10003b8c:	83 c4 0c             	add    $0xc,%esp
10003b8f:	56                   	push   %esi
10003b90:	85 c0                	test   %eax,%eax
10003b92:	75 0a                	jne    0x10003b9e
10003b94:	57                   	push   %edi
10003b95:	e8 16 f6 ff ff       	call   0x100031b0
10003b9a:	59                   	pop    %ecx
10003b9b:	59                   	pop    %ecx
10003b9c:	eb df                	jmp    0x10003b7d
10003b9e:	6a 00                	push   $0x0
10003ba0:	6a 00                	push   $0x0
10003ba2:	57                   	push   %edi
10003ba3:	c7 86 54 01 00 00 01 	movl   $0x1,0x154(%esi)
10003baa:	00 00 00 
10003bad:	e8 eb 3a 00 00       	call   0x1000769d
10003bb2:	83 c4 10             	add    $0x10,%esp
10003bb5:	85 c0                	test   %eax,%eax
10003bb7:	75 03                	jne    0x10003bbc
10003bb9:	56                   	push   %esi
10003bba:	eb d8                	jmp    0x10003b94
10003bbc:	33 c0                	xor    %eax,%eax
10003bbe:	40                   	inc    %eax
10003bbf:	5f                   	pop    %edi
10003bc0:	33 d2                	xor    %edx,%edx
10003bc2:	5e                   	pop    %esi
10003bc3:	5d                   	pop    %ebp
10003bc4:	c3                   	ret    
10003bc5:	55                   	push   %ebp
10003bc6:	8b ec                	mov    %esp,%ebp
10003bc8:	8b 45 10             	mov    0x10(%ebp),%eax
10003bcb:	0b 45 14             	or     0x14(%ebp),%eax
10003bce:	75 04                	jne    0x10003bd4
10003bd0:	33 c0                	xor    %eax,%eax
10003bd2:	5d                   	pop    %ebp
10003bd3:	c3                   	ret    
10003bd4:	ff 75 0c             	pushl  0xc(%ebp)
10003bd7:	e8 96 27 00 00       	call   0x10006372
10003bdc:	c7 04 24 38 d1 00 10 	movl   $0x1000d138,(%esp)
10003be3:	ff 75 0c             	pushl  0xc(%ebp)
10003be6:	e8 a6 29 00 00       	call   0x10006591
10003beb:	59                   	pop    %ecx
10003bec:	59                   	pop    %ecx
10003bed:	85 c0                	test   %eax,%eax
10003bef:	75 df                	jne    0x10003bd0
10003bf1:	ff 75 0c             	pushl  0xc(%ebp)
10003bf4:	68 60 32 01 10       	push   $0x10013260
10003bf9:	e8 9f 2b 00 00       	call   0x1000679d
10003bfe:	59                   	pop    %ecx
10003bff:	59                   	pop    %ecx
10003c00:	85 c0                	test   %eax,%eax
10003c02:	75 cc                	jne    0x10003bd0
10003c04:	ff 75 0c             	pushl  0xc(%ebp)
10003c07:	e8 25 3e 00 00       	call   0x10007a31
10003c0c:	59                   	pop    %ecx
10003c0d:	85 c0                	test   %eax,%eax
10003c0f:	74 11                	je     0x10003c22
10003c11:	50                   	push   %eax
10003c12:	68 6c 32 01 10       	push   $0x1001326c
10003c17:	e8 81 2b 00 00       	call   0x1000679d
10003c1c:	59                   	pop    %ecx
10003c1d:	59                   	pop    %ecx
10003c1e:	85 c0                	test   %eax,%eax
10003c20:	75 ae                	jne    0x10003bd0
10003c22:	33 c0                	xor    %eax,%eax
10003c24:	40                   	inc    %eax
10003c25:	5d                   	pop    %ebp
10003c26:	c3                   	ret    
10003c27:	55                   	push   %ebp
10003c28:	8b ec                	mov    %esp,%ebp
10003c2a:	81 ec e8 00 00 00    	sub    $0xe8,%esp
10003c30:	56                   	push   %esi
10003c31:	33 f6                	xor    %esi,%esi
10003c33:	56                   	push   %esi
10003c34:	56                   	push   %esi
10003c35:	ff 15 d4 22 01 10    	call   *0x100122d4
10003c3b:	85 c0                	test   %eax,%eax
10003c3d:	79 08                	jns    0x10003c47
10003c3f:	33 c0                	xor    %eax,%eax
10003c41:	40                   	inc    %eax
10003c42:	e9 4c 02 00 00       	jmp    0x10003e93
10003c47:	53                   	push   %ebx
10003c48:	56                   	push   %esi
10003c49:	56                   	push   %esi
10003c4a:	56                   	push   %esi
10003c4b:	6a 03                	push   $0x3
10003c4d:	56                   	push   %esi
10003c4e:	56                   	push   %esi
10003c4f:	56                   	push   %esi
10003c50:	6a ff                	push   $0xffffffff
10003c52:	56                   	push   %esi
10003c53:	ff 15 b8 22 01 10    	call   *0x100122b8
10003c59:	8d 45 f8             	lea    -0x8(%ebp),%eax
10003c5c:	89 75 f8             	mov    %esi,-0x8(%ebp)
10003c5f:	50                   	push   %eax
10003c60:	68 48 d3 00 10       	push   $0x1000d348
10003c65:	33 db                	xor    %ebx,%ebx
10003c67:	43                   	inc    %ebx
10003c68:	53                   	push   %ebx
10003c69:	56                   	push   %esi
10003c6a:	68 28 d3 00 10       	push   $0x1000d328
10003c6f:	ff 15 5c 22 01 10    	call   *0x1001225c
10003c75:	85 c0                	test   %eax,%eax
10003c77:	79 0d                	jns    0x10003c86
10003c79:	ff 15 60 21 01 10    	call   *0x10012160
10003c7f:	8b c3                	mov    %ebx,%eax
10003c81:	e9 0c 02 00 00       	jmp    0x10003e92
10003c86:	57                   	push   %edi
10003c87:	8d 45 c8             	lea    -0x38(%ebp),%eax
10003c8a:	89 75 fc             	mov    %esi,-0x4(%ebp)
10003c8d:	50                   	push   %eax
10003c8e:	6a 14                	push   $0x14
10003c90:	6a 09                	push   $0x9
10003c92:	68 b0 0b 00 00       	push   $0xbb0
10003c97:	68 70 12 01 10       	push   $0x10011270
10003c9c:	e8 1c 24 00 00       	call   0x100060bd
10003ca1:	33 c0                	xor    %eax,%eax
10003ca3:	83 c4 14             	add    $0x14,%esp
10003ca6:	66 89 45 dc          	mov    %ax,-0x24(%ebp)
10003caa:	8d 45 c8             	lea    -0x38(%ebp),%eax
10003cad:	50                   	push   %eax
10003cae:	ff 15 bc 20 01 10    	call   *0x100120bc
10003cb4:	8b 4d f8             	mov    -0x8(%ebp),%ecx
10003cb7:	8b f8                	mov    %eax,%edi
10003cb9:	8d 45 fc             	lea    -0x4(%ebp),%eax
10003cbc:	50                   	push   %eax
10003cbd:	56                   	push   %esi
10003cbe:	8b 11                	mov    (%ecx),%edx
10003cc0:	56                   	push   %esi
10003cc1:	56                   	push   %esi
10003cc2:	56                   	push   %esi
10003cc3:	56                   	push   %esi
10003cc4:	56                   	push   %esi
10003cc5:	57                   	push   %edi
10003cc6:	51                   	push   %ecx
10003cc7:	ff 52 0c             	call   *0xc(%edx)
10003cca:	57                   	push   %edi
10003ccb:	8b f0                	mov    %eax,%esi
10003ccd:	ff 15 1c 21 01 10    	call   *0x1001211c
10003cd3:	85 f6                	test   %esi,%esi
10003cd5:	79 11                	jns    0x10003ce8
10003cd7:	8b 45 f8             	mov    -0x8(%ebp),%eax
10003cda:	50                   	push   %eax
10003cdb:	8b 08                	mov    (%eax),%ecx
10003cdd:	ff 51 08             	call   *0x8(%ecx)
10003ce0:	ff 15 60 21 01 10    	call   *0x10012160
10003ce6:	eb 31                	jmp    0x10003d19
10003ce8:	33 ff                	xor    %edi,%edi
10003cea:	57                   	push   %edi
10003ceb:	57                   	push   %edi
10003cec:	6a 03                	push   $0x3
10003cee:	6a 03                	push   $0x3
10003cf0:	57                   	push   %edi
10003cf1:	57                   	push   %edi
10003cf2:	6a 0a                	push   $0xa
10003cf4:	ff 75 fc             	pushl  -0x4(%ebp)
10003cf7:	ff 15 58 d0 00 10    	call   *0x1000d058
10003cfd:	85 c0                	test   %eax,%eax
10003cff:	79 1f                	jns    0x10003d20
10003d01:	8b 45 fc             	mov    -0x4(%ebp),%eax
10003d04:	50                   	push   %eax
10003d05:	8b 08                	mov    (%eax),%ecx
10003d07:	ff 51 08             	call   *0x8(%ecx)
10003d0a:	8b 45 f8             	mov    -0x8(%ebp),%eax
10003d0d:	50                   	push   %eax
10003d0e:	8b 08                	mov    (%eax),%ecx
10003d10:	ff 51 08             	call   *0x8(%ecx)
10003d13:	ff 15 54 d0 00 10    	call   *0x1000d054
10003d19:	8b c3                	mov    %ebx,%eax
10003d1b:	e9 71 01 00 00       	jmp    0x10003e91
10003d20:	8d 45 f0             	lea    -0x10(%ebp),%eax
10003d23:	89 7d f0             	mov    %edi,-0x10(%ebp)
10003d26:	50                   	push   %eax
10003d27:	68 e8 d2 00 10       	push   $0x1000d2e8
10003d2c:	6a 04                	push   $0x4
10003d2e:	57                   	push   %edi
10003d2f:	68 38 d3 00 10       	push   $0x1000d338
10003d34:	ff 15 5c 22 01 10    	call   *0x1001225c
10003d3a:	8b 4d fc             	mov    -0x4(%ebp),%ecx
10003d3d:	89 0d 6c 12 01 10    	mov    %ecx,0x1001126c
10003d43:	51                   	push   %ecx
10003d44:	8b 01                	mov    (%ecx),%eax
10003d46:	ff 50 04             	call   *0x4(%eax)
10003d49:	a1 60 12 01 10       	mov    0x10011260,%eax
10003d4e:	bb 60 12 01 10       	mov    $0x10011260,%ebx
10003d53:	53                   	push   %ebx
10003d54:	ff 50 04             	call   *0x4(%eax)
10003d57:	8b 45 f0             	mov    -0x10(%ebp),%eax
10003d5a:	8d 55 ec             	lea    -0x14(%ebp),%edx
10003d5d:	52                   	push   %edx
10003d5e:	89 7d ec             	mov    %edi,-0x14(%ebp)
10003d61:	53                   	push   %ebx
10003d62:	8b 08                	mov    (%eax),%ecx
10003d64:	50                   	push   %eax
10003d65:	ff 51 0c             	call   *0xc(%ecx)
10003d68:	8b 45 ec             	mov    -0x14(%ebp),%eax
10003d6b:	8d 55 f4             	lea    -0xc(%ebp),%edx
10003d6e:	52                   	push   %edx
10003d6f:	89 7d f4             	mov    %edi,-0xc(%ebp)
10003d72:	68 d8 d2 00 10       	push   $0x1000d2d8
10003d77:	8b 08                	mov    (%eax),%ecx
10003d79:	50                   	push   %eax
10003d7a:	ff 11                	call   *(%ecx)
10003d7c:	8d 45 e0             	lea    -0x20(%ebp),%eax
10003d7f:	be 70 12 01 10       	mov    $0x10011270,%esi
10003d84:	50                   	push   %eax
10003d85:	6a 06                	push   $0x6
10003d87:	6a 04                	push   $0x4
10003d89:	68 a0 03 00 00       	push   $0x3a0
10003d8e:	56                   	push   %esi
10003d8f:	e8 29 23 00 00       	call   0x100060bd
10003d94:	33 c0                	xor    %eax,%eax
10003d96:	66 89 45 e6          	mov    %ax,-0x1a(%ebp)
10003d9a:	8d 85 18 ff ff ff    	lea    -0xe8(%ebp),%eax
10003da0:	50                   	push   %eax
10003da1:	68 ae 00 00 00       	push   $0xae
10003da6:	6a 04                	push   $0x4
10003da8:	68 4e 08 00 00       	push   $0x84e
10003dad:	56                   	push   %esi
10003dae:	e8 0a 23 00 00       	call   0x100060bd
10003db3:	33 c0                	xor    %eax,%eax
10003db5:	83 c4 28             	add    $0x28,%esp
10003db8:	66 89 45 c6          	mov    %ax,-0x3a(%ebp)
10003dbc:	8d 45 e0             	lea    -0x20(%ebp),%eax
10003dbf:	50                   	push   %eax
10003dc0:	ff 15 bc 20 01 10    	call   *0x100120bc
10003dc6:	8b f0                	mov    %eax,%esi
10003dc8:	8d 85 18 ff ff ff    	lea    -0xe8(%ebp),%eax
10003dce:	50                   	push   %eax
10003dcf:	89 75 e8             	mov    %esi,-0x18(%ebp)
10003dd2:	ff 15 bc 20 01 10    	call   *0x100120bc
10003dd8:	ff 75 f4             	pushl  -0xc(%ebp)
10003ddb:	8b 4d fc             	mov    -0x4(%ebp),%ecx
10003dde:	8b d8                	mov    %eax,%ebx
10003de0:	57                   	push   %edi
10003de1:	68 80 00 00 00       	push   $0x80
10003de6:	53                   	push   %ebx
10003de7:	8b 11                	mov    (%ecx),%edx
10003de9:	56                   	push   %esi
10003dea:	51                   	push   %ecx
10003deb:	ff 52 5c             	call   *0x5c(%edx)
10003dee:	68 b8 d1 00 10       	push   $0x1000d1b8
10003df3:	ff 15 bc 20 01 10    	call   *0x100120bc
10003df9:	ff 75 f4             	pushl  -0xc(%ebp)
10003dfc:	8b 4d fc             	mov    -0x4(%ebp),%ecx
10003dff:	8b f8                	mov    %eax,%edi
10003e01:	6a 00                	push   $0x0
10003e03:	68 80 00 00 00       	push   $0x80
10003e08:	57                   	push   %edi
10003e09:	8b 11                	mov    (%ecx),%edx
10003e0b:	56                   	push   %esi
10003e0c:	51                   	push   %ecx
10003e0d:	ff 52 5c             	call   *0x5c(%edx)
10003e10:	ff 75 e8             	pushl  -0x18(%ebp)
10003e13:	8b f0                	mov    %eax,%esi
10003e15:	ff 15 1c 21 01 10    	call   *0x1001211c
10003e1b:	53                   	push   %ebx
10003e1c:	ff 15 1c 21 01 10    	call   *0x1001211c
10003e22:	57                   	push   %edi
10003e23:	ff 15 1c 21 01 10    	call   *0x1001211c
10003e29:	85 f6                	test   %esi,%esi
10003e2b:	79 05                	jns    0x10003e32
10003e2d:	33 f6                	xor    %esi,%esi
10003e2f:	46                   	inc    %esi
10003e30:	eb 1c                	jmp    0x10003e4e
10003e32:	6a ff                	push   $0xffffffff
10003e34:	e8 a5 10 00 00       	call   0x10004ede
10003e39:	50                   	push   %eax
10003e3a:	ff 15 64 22 01 10    	call   *0x10012264
10003e40:	8b 45 fc             	mov    -0x4(%ebp),%eax
10003e43:	ff 75 f4             	pushl  -0xc(%ebp)
10003e46:	50                   	push   %eax
10003e47:	8b 08                	mov    (%eax),%ecx
10003e49:	ff 51 10             	call   *0x10(%ecx)
10003e4c:	33 f6                	xor    %esi,%esi
10003e4e:	8b 45 fc             	mov    -0x4(%ebp),%eax
10003e51:	50                   	push   %eax
10003e52:	8b 08                	mov    (%eax),%ecx
10003e54:	ff 51 08             	call   *0x8(%ecx)
10003e57:	8b 45 f8             	mov    -0x8(%ebp),%eax
10003e5a:	50                   	push   %eax
10003e5b:	8b 08                	mov    (%eax),%ecx
10003e5d:	ff 51 08             	call   *0x8(%ecx)
10003e60:	8b 45 f0             	mov    -0x10(%ebp),%eax
10003e63:	50                   	push   %eax
10003e64:	8b 08                	mov    (%eax),%ecx
10003e66:	ff 51 08             	call   *0x8(%ecx)
10003e69:	8b 45 ec             	mov    -0x14(%ebp),%eax
10003e6c:	50                   	push   %eax
10003e6d:	8b 08                	mov    (%eax),%ecx
10003e6f:	ff 51 08             	call   *0x8(%ecx)
10003e72:	8b 0d 60 12 01 10    	mov    0x10011260,%ecx
10003e78:	68 60 12 01 10       	push   $0x10011260
10003e7d:	ff 51 08             	call   *0x8(%ecx)
10003e80:	8b 4d f4             	mov    -0xc(%ebp),%ecx
10003e83:	51                   	push   %ecx
10003e84:	8b 11                	mov    (%ecx),%edx
10003e86:	ff 52 08             	call   *0x8(%edx)
10003e89:	ff 15 60 21 01 10    	call   *0x10012160
10003e8f:	8b c6                	mov    %esi,%eax
10003e91:	5f                   	pop    %edi
10003e92:	5b                   	pop    %ebx
10003e93:	5e                   	pop    %esi
10003e94:	8b e5                	mov    %ebp,%esp
10003e96:	5d                   	pop    %ebp
10003e97:	c2 04 00             	ret    $0x4
10003e9a:	55                   	push   %ebp
10003e9b:	8b ec                	mov    %esp,%ebp
10003e9d:	83 ec 30             	sub    $0x30,%esp
10003ea0:	53                   	push   %ebx
10003ea1:	56                   	push   %esi
10003ea2:	6a 04                	push   $0x4
10003ea4:	68 5c d1 00 10       	push   $0x1000d15c
10003ea9:	33 f6                	xor    %esi,%esi
10003eab:	56                   	push   %esi
10003eac:	ff 15 b0 20 01 10    	call   *0x100120b0
10003eb2:	8b d8                	mov    %eax,%ebx
10003eb4:	85 db                	test   %ebx,%ebx
10003eb6:	75 07                	jne    0x10003ebf
10003eb8:	33 c0                	xor    %eax,%eax
10003eba:	e9 f8 00 00 00       	jmp    0x10003fb7
10003ebf:	56                   	push   %esi
10003ec0:	56                   	push   %esi
10003ec1:	8d 45 f8             	lea    -0x8(%ebp),%eax
10003ec4:	89 75 fc             	mov    %esi,-0x4(%ebp)
10003ec7:	50                   	push   %eax
10003ec8:	8d 45 fc             	lea    -0x4(%ebp),%eax
10003ecb:	89 75 f8             	mov    %esi,-0x8(%ebp)
10003ece:	50                   	push   %eax
10003ecf:	56                   	push   %esi
10003ed0:	56                   	push   %esi
10003ed1:	6a 01                	push   $0x1
10003ed3:	6a 30                	push   $0x30
10003ed5:	56                   	push   %esi
10003ed6:	53                   	push   %ebx
10003ed7:	ff 15 d0 22 01 10    	call   *0x100122d0
10003edd:	85 c0                	test   %eax,%eax
10003edf:	74 15                	je     0x10003ef6
10003ee1:	e8 74 16 00 00       	call   0x1000555a
10003ee6:	3d ea 00 00 00       	cmp    $0xea,%eax
10003eeb:	74 09                	je     0x10003ef6
10003eed:	53                   	push   %ebx
10003eee:	ff 15 a4 21 01 10    	call   *0x100121a4
10003ef4:	eb c2                	jmp    0x10003eb8
10003ef6:	57                   	push   %edi
10003ef7:	ff 75 fc             	pushl  -0x4(%ebp)
10003efa:	e8 89 0b 00 00       	call   0x10004a88
10003eff:	8b f8                	mov    %eax,%edi
10003f01:	89 7d f0             	mov    %edi,-0x10(%ebp)
10003f04:	59                   	pop    %ecx
10003f05:	85 ff                	test   %edi,%edi
10003f07:	75 0e                	jne    0x10003f17
10003f09:	53                   	push   %ebx
10003f0a:	ff 15 a4 21 01 10    	call   *0x100121a4
10003f10:	33 c0                	xor    %eax,%eax
10003f12:	e9 9f 00 00 00       	jmp    0x10003fb6
10003f17:	56                   	push   %esi
10003f18:	56                   	push   %esi
10003f19:	8d 45 f8             	lea    -0x8(%ebp),%eax
10003f1c:	50                   	push   %eax
10003f1d:	8d 45 fc             	lea    -0x4(%ebp),%eax
10003f20:	50                   	push   %eax
10003f21:	ff 75 fc             	pushl  -0x4(%ebp)
10003f24:	57                   	push   %edi
10003f25:	6a 01                	push   $0x1
10003f27:	6a 30                	push   $0x30
10003f29:	56                   	push   %esi
10003f2a:	53                   	push   %ebx
10003f2b:	ff 15 d0 22 01 10    	call   *0x100122d0
10003f31:	85 c0                	test   %eax,%eax
10003f33:	74 78                	je     0x10003fad
10003f35:	89 75 f4             	mov    %esi,-0xc(%ebp)
10003f38:	39 75 f8             	cmp    %esi,-0x8(%ebp)
10003f3b:	76 6d                	jbe    0x10003faa
10003f3d:	ff 37                	pushl  (%edi)
10003f3f:	e8 83 f0 ff ff       	call   0x10002fc7
10003f44:	59                   	pop    %ecx
10003f45:	85 c0                	test   %eax,%eax
10003f47:	74 46                	je     0x10003f8f
10003f49:	68 20 00 01 00       	push   $0x10020
10003f4e:	ff 37                	pushl  (%edi)
10003f50:	53                   	push   %ebx
10003f51:	ff 15 58 22 01 10    	call   *0x10012258
10003f57:	8b d0                	mov    %eax,%edx
10003f59:	89 55 ec             	mov    %edx,-0x14(%ebp)
10003f5c:	85 d2                	test   %edx,%edx
10003f5e:	74 4a                	je     0x10003faa
10003f60:	6a 06                	push   $0x6
10003f62:	59                   	pop    %ecx
10003f63:	33 c0                	xor    %eax,%eax
10003f65:	89 75 d0             	mov    %esi,-0x30(%ebp)
10003f68:	8d 7d d4             	lea    -0x2c(%ebp),%edi
10003f6b:	f3 ab                	rep stos %eax,%es:(%edi)
10003f6d:	8d 45 d0             	lea    -0x30(%ebp),%eax
10003f70:	50                   	push   %eax
10003f71:	6a 01                	push   $0x1
10003f73:	52                   	push   %edx
10003f74:	ff 15 50 21 01 10    	call   *0x10012150
10003f7a:	8b 7d ec             	mov    -0x14(%ebp),%edi
10003f7d:	57                   	push   %edi
10003f7e:	85 c0                	test   %eax,%eax
10003f80:	74 22                	je     0x10003fa4
10003f82:	ff 15 40 20 01 10    	call   *0x10012040
10003f88:	85 c0                	test   %eax,%eax
10003f8a:	74 17                	je     0x10003fa3
10003f8c:	8b 7d f0             	mov    -0x10(%ebp),%edi
10003f8f:	8b 45 f4             	mov    -0xc(%ebp),%eax
10003f92:	83 c7 2c             	add    $0x2c,%edi
10003f95:	40                   	inc    %eax
10003f96:	89 7d f0             	mov    %edi,-0x10(%ebp)
10003f99:	89 45 f4             	mov    %eax,-0xc(%ebp)
10003f9c:	3b 45 f8             	cmp    -0x8(%ebp),%eax
10003f9f:	72 9c                	jb     0x10003f3d
10003fa1:	eb 07                	jmp    0x10003faa
10003fa3:	57                   	push   %edi
10003fa4:	ff 15 a4 21 01 10    	call   *0x100121a4
10003faa:	33 f6                	xor    %esi,%esi
10003fac:	46                   	inc    %esi
10003fad:	53                   	push   %ebx
10003fae:	ff 15 a4 21 01 10    	call   *0x100121a4
10003fb4:	8b c6                	mov    %esi,%eax
10003fb6:	5f                   	pop    %edi
10003fb7:	5e                   	pop    %esi
10003fb8:	5b                   	pop    %ebx
10003fb9:	8b e5                	mov    %ebp,%esp
10003fbb:	5d                   	pop    %ebp
10003fbc:	c3                   	ret    
10003fbd:	55                   	push   %ebp
10003fbe:	8b ec                	mov    %esp,%ebp
10003fc0:	81 ec 54 01 00 00    	sub    $0x154,%esp
10003fc6:	56                   	push   %esi
10003fc7:	ff 75 08             	pushl  0x8(%ebp)
10003fca:	e8 5c 25 00 00       	call   0x1000652b
10003fcf:	8d 04 45 00 08 00 00 	lea    0x800(,%eax,2),%eax
10003fd6:	50                   	push   %eax
10003fd7:	e8 ac 0a 00 00       	call   0x10004a88
10003fdc:	8b f0                	mov    %eax,%esi
10003fde:	59                   	pop    %ecx
10003fdf:	59                   	pop    %ecx
10003fe0:	85 f6                	test   %esi,%esi
10003fe2:	0f 84 02 04 00 00    	je     0x100043ea
10003fe8:	53                   	push   %ebx
10003fe9:	57                   	push   %edi
10003fea:	8d 85 d8 fe ff ff    	lea    -0x128(%ebp),%eax
10003ff0:	bf 70 12 01 10       	mov    $0x10011270,%edi
10003ff5:	50                   	push   %eax
10003ff6:	6a 10                	push   $0x10
10003ff8:	6a 08                	push   $0x8
10003ffa:	68 90 0a 00 00       	push   $0xa90
10003fff:	57                   	push   %edi
10004000:	e8 b8 20 00 00       	call   0x100060bd
10004005:	33 c0                	xor    %eax,%eax
10004007:	66 89 85 e8 fe ff ff 	mov    %ax,-0x118(%ebp)
1000400e:	8d 85 d8 fe ff ff    	lea    -0x128(%ebp),%eax
10004014:	50                   	push   %eax
10004015:	56                   	push   %esi
10004016:	e8 67 24 00 00       	call   0x10006482
1000401b:	ff 75 08             	pushl  0x8(%ebp)
1000401e:	56                   	push   %esi
1000401f:	e8 7c 23 00 00       	call   0x100063a0
10004024:	68 48 d1 00 10       	push   $0x1000d148
10004029:	56                   	push   %esi
1000402a:	e8 71 23 00 00       	call   0x100063a0
1000402f:	8d 85 ac fe ff ff    	lea    -0x154(%ebp),%eax
10004035:	50                   	push   %eax
10004036:	6a 14                	push   $0x14
10004038:	6a 04                	push   $0x4
1000403a:	68 ab 0c 00 00       	push   $0xcab
1000403f:	57                   	push   %edi
10004040:	e8 78 20 00 00       	call   0x100060bd
10004045:	83 c4 40             	add    $0x40,%esp
10004048:	33 c0                	xor    %eax,%eax
1000404a:	66 89 85 c0 fe ff ff 	mov    %ax,-0x140(%ebp)
10004051:	8d 85 4c ff ff ff    	lea    -0xb4(%ebp),%eax
10004057:	50                   	push   %eax
10004058:	6a 0c                	push   $0xc
1000405a:	6a 06                	push   $0x6
1000405c:	68 07 09 00 00       	push   $0x907
10004061:	57                   	push   %edi
10004062:	e8 56 20 00 00       	call   0x100060bd
10004067:	33 c0                	xor    %eax,%eax
10004069:	66 89 85 58 ff ff ff 	mov    %ax,-0xa8(%ebp)
10004070:	8d 85 1c ff ff ff    	lea    -0xe4(%ebp),%eax
10004076:	50                   	push   %eax
10004077:	6a 0e                	push   $0xe
10004079:	5b                   	pop    %ebx
1000407a:	53                   	push   %ebx
1000407b:	6a 0c                	push   $0xc
1000407d:	68 77 03 00 00       	push   $0x377
10004082:	57                   	push   %edi
10004083:	e8 35 20 00 00       	call   0x100060bd
10004088:	33 c0                	xor    %eax,%eax
1000408a:	66 89 85 2a ff ff ff 	mov    %ax,-0xd6(%ebp)
10004091:	8d 85 0c ff ff ff    	lea    -0xf4(%ebp),%eax
10004097:	50                   	push   %eax
10004098:	53                   	push   %ebx
10004099:	53                   	push   %ebx
1000409a:	68 c3 07 00 00       	push   $0x7c3
1000409f:	57                   	push   %edi
100040a0:	e8 18 20 00 00       	call   0x100060bd
100040a5:	33 c0                	xor    %eax,%eax
100040a7:	66 89 85 1a ff ff ff 	mov    %ax,-0xe6(%ebp)
100040ae:	8d 85 fc fe ff ff    	lea    -0x104(%ebp),%eax
100040b4:	50                   	push   %eax
100040b5:	53                   	push   %ebx
100040b6:	6a 08                	push   $0x8
100040b8:	68 2d 09 00 00       	push   $0x92d
100040bd:	57                   	push   %edi
100040be:	e8 fa 1f 00 00       	call   0x100060bd
100040c3:	83 c4 50             	add    $0x50,%esp
100040c6:	33 c0                	xor    %eax,%eax
100040c8:	66 89 85 0a ff ff ff 	mov    %ax,-0xf6(%ebp)
100040cf:	8d 45 a4             	lea    -0x5c(%ebp),%eax
100040d2:	50                   	push   %eax
100040d3:	6a 08                	push   $0x8
100040d5:	6a 0a                	push   $0xa
100040d7:	5f                   	pop    %edi
100040d8:	57                   	push   %edi
100040d9:	68 28 07 00 00       	push   $0x728
100040de:	68 70 12 01 10       	push   $0x10011270
100040e3:	e8 d5 1f 00 00       	call   0x100060bd
100040e8:	33 c0                	xor    %eax,%eax
100040ea:	66 89 45 ac          	mov    %ax,-0x54(%ebp)
100040ee:	8d 45 98             	lea    -0x68(%ebp),%eax
100040f1:	50                   	push   %eax
100040f2:	6a 08                	push   $0x8
100040f4:	6a 0f                	push   $0xf
100040f6:	68 41 04 00 00       	push   $0x441
100040fb:	68 70 12 01 10       	push   $0x10011270
10004100:	e8 b8 1f 00 00       	call   0x100060bd
10004105:	33 c0                	xor    %eax,%eax
10004107:	66 89 45 a0          	mov    %ax,-0x60(%ebp)
1000410b:	8d 85 68 ff ff ff    	lea    -0x98(%ebp),%eax
10004111:	50                   	push   %eax
10004112:	57                   	push   %edi
10004113:	6a 0c                	push   $0xc
10004115:	68 28 01 00 00       	push   $0x128
1000411a:	68 70 12 01 10       	push   $0x10011270
1000411f:	e8 99 1f 00 00       	call   0x100060bd
10004124:	33 c0                	xor    %eax,%eax
10004126:	66 89 85 72 ff ff ff 	mov    %ax,-0x8e(%ebp)
1000412d:	8d 85 ac fe ff ff    	lea    -0x154(%ebp),%eax
10004133:	89 45 d4             	mov    %eax,-0x2c(%ebp)
10004136:	8d 85 4c ff ff ff    	lea    -0xb4(%ebp),%eax
1000413c:	89 45 d8             	mov    %eax,-0x28(%ebp)
1000413f:	8d 85 1c ff ff ff    	lea    -0xe4(%ebp),%eax
10004145:	89 45 dc             	mov    %eax,-0x24(%ebp)
10004148:	8d 85 0c ff ff ff    	lea    -0xf4(%ebp),%eax
1000414e:	89 45 e0             	mov    %eax,-0x20(%ebp)
10004151:	8d 85 fc fe ff ff    	lea    -0x104(%ebp),%eax
10004157:	89 45 e4             	mov    %eax,-0x1c(%ebp)
1000415a:	8d 45 a4             	lea    -0x5c(%ebp),%eax
1000415d:	89 45 e8             	mov    %eax,-0x18(%ebp)
10004160:	8d 45 98             	lea    -0x68(%ebp),%eax
10004163:	89 45 ec             	mov    %eax,-0x14(%ebp)
10004166:	8d 85 68 ff ff ff    	lea    -0x98(%ebp),%eax
1000416c:	6a 07                	push   $0x7
1000416e:	6a 00                	push   $0x0
10004170:	89 45 f0             	mov    %eax,-0x10(%ebp)
10004173:	e8 ad 15 00 00       	call   0x10005725
10004178:	83 c4 44             	add    $0x44,%esp
1000417b:	ff 74 85 d4          	pushl  -0x2c(%ebp,%eax,4)
1000417f:	56                   	push   %esi
10004180:	e8 1b 22 00 00       	call   0x100063a0
10004185:	68 48 d1 00 10       	push   $0x1000d148
1000418a:	56                   	push   %esi
1000418b:	e8 10 22 00 00       	call   0x100063a0
10004190:	8d 85 3c ff ff ff    	lea    -0xc4(%ebp),%eax
10004196:	50                   	push   %eax
10004197:	6a 0c                	push   $0xc
10004199:	6a 09                	push   $0x9
1000419b:	68 d7 09 00 00       	push   $0x9d7
100041a0:	68 70 12 01 10       	push   $0x10011270
100041a5:	e8 13 1f 00 00       	call   0x100060bd
100041aa:	33 c0                	xor    %eax,%eax
100041ac:	66 89 85 48 ff ff ff 	mov    %ax,-0xb8(%ebp)
100041b3:	8d 85 c4 fe ff ff    	lea    -0x13c(%ebp),%eax
100041b9:	50                   	push   %eax
100041ba:	6a 10                	push   $0x10
100041bc:	6a 05                	push   $0x5
100041be:	68 6f 01 00 00       	push   $0x16f
100041c3:	68 70 12 01 10       	push   $0x10011270
100041c8:	e8 f0 1e 00 00       	call   0x100060bd
100041cd:	33 c0                	xor    %eax,%eax
100041cf:	66 89 85 d4 fe ff ff 	mov    %ax,-0x12c(%ebp)
100041d6:	8d 85 5c ff ff ff    	lea    -0xa4(%ebp),%eax
100041dc:	50                   	push   %eax
100041dd:	57                   	push   %edi
100041de:	6a 09                	push   $0x9
100041e0:	68 3c 0a 00 00       	push   $0xa3c
100041e5:	68 70 12 01 10       	push   $0x10011270
100041ea:	e8 ce 1e 00 00       	call   0x100060bd
100041ef:	83 c4 4c             	add    $0x4c,%esp
100041f2:	33 c0                	xor    %eax,%eax
100041f4:	66 89 85 66 ff ff ff 	mov    %ax,-0x9a(%ebp)
100041fb:	8d 45 8c             	lea    -0x74(%ebp),%eax
100041fe:	50                   	push   %eax
100041ff:	6a 08                	push   $0x8
10004201:	6a 0f                	push   $0xf
10004203:	68 b8 0a 00 00       	push   $0xab8
10004208:	68 70 12 01 10       	push   $0x10011270
1000420d:	e8 ab 1e 00 00       	call   0x100060bd
10004212:	33 c0                	xor    %eax,%eax
10004214:	66 89 45 94          	mov    %ax,-0x6c(%ebp)
10004218:	8d 45 c8             	lea    -0x38(%ebp),%eax
1000421b:	50                   	push   %eax
1000421c:	6a 06                	push   $0x6
1000421e:	6a 04                	push   $0x4
10004220:	68 23 04 00 00       	push   $0x423
10004225:	68 70 12 01 10       	push   $0x10011270
1000422a:	e8 8e 1e 00 00       	call   0x100060bd
1000422f:	33 c0                	xor    %eax,%eax
10004231:	66 89 45 ce          	mov    %ax,-0x32(%ebp)
10004235:	8d 85 ec fe ff ff    	lea    -0x114(%ebp),%eax
1000423b:	50                   	push   %eax
1000423c:	53                   	push   %ebx
1000423d:	57                   	push   %edi
1000423e:	68 3d 0c 00 00       	push   $0xc3d
10004243:	bb 70 12 01 10       	mov    $0x10011270,%ebx
10004248:	53                   	push   %ebx
10004249:	e8 6f 1e 00 00       	call   0x100060bd
1000424e:	33 c0                	xor    %eax,%eax
10004250:	66 89 85 fa fe ff ff 	mov    %ax,-0x106(%ebp)
10004257:	8d 85 2c ff ff ff    	lea    -0xd4(%ebp),%eax
1000425d:	50                   	push   %eax
1000425e:	6a 0c                	push   $0xc
10004260:	6a 06                	push   $0x6
10004262:	68 33 06 00 00       	push   $0x633
10004267:	53                   	push   %ebx
10004268:	e8 50 1e 00 00       	call   0x100060bd
1000426d:	83 c4 50             	add    $0x50,%esp
10004270:	33 c0                	xor    %eax,%eax
10004272:	66 89 85 38 ff ff ff 	mov    %ax,-0xc8(%ebp)
10004279:	8d 45 80             	lea    -0x80(%ebp),%eax
1000427c:	50                   	push   %eax
1000427d:	6a 08                	push   $0x8
1000427f:	6a 07                	push   $0x7
10004281:	68 e4 0c 00 00       	push   $0xce4
10004286:	53                   	push   %ebx
10004287:	e8 31 1e 00 00       	call   0x100060bd
1000428c:	33 c0                	xor    %eax,%eax
1000428e:	66 89 45 88          	mov    %ax,-0x78(%ebp)
10004292:	8d 85 74 ff ff ff    	lea    -0x8c(%ebp),%eax
10004298:	50                   	push   %eax
10004299:	6a 08                	push   $0x8
1000429b:	6a 09                	push   $0x9
1000429d:	68 78 0a 00 00       	push   $0xa78
100042a2:	53                   	push   %ebx
100042a3:	e8 15 1e 00 00       	call   0x100060bd
100042a8:	33 c0                	xor    %eax,%eax
100042aa:	66 89 85 7c ff ff ff 	mov    %ax,-0x84(%ebp)
100042b1:	8d 85 3c ff ff ff    	lea    -0xc4(%ebp),%eax
100042b7:	89 45 d0             	mov    %eax,-0x30(%ebp)
100042ba:	8d 85 c4 fe ff ff    	lea    -0x13c(%ebp),%eax
100042c0:	89 45 d4             	mov    %eax,-0x2c(%ebp)
100042c3:	8d 85 5c ff ff ff    	lea    -0xa4(%ebp),%eax
100042c9:	89 45 d8             	mov    %eax,-0x28(%ebp)
100042cc:	8d 45 8c             	lea    -0x74(%ebp),%eax
100042cf:	89 45 dc             	mov    %eax,-0x24(%ebp)
100042d2:	8d 45 c8             	lea    -0x38(%ebp),%eax
100042d5:	89 45 e0             	mov    %eax,-0x20(%ebp)
100042d8:	8d 85 ec fe ff ff    	lea    -0x114(%ebp),%eax
100042de:	89 45 e4             	mov    %eax,-0x1c(%ebp)
100042e1:	8d 85 2c ff ff ff    	lea    -0xd4(%ebp),%eax
100042e7:	89 45 e8             	mov    %eax,-0x18(%ebp)
100042ea:	8d 45 80             	lea    -0x80(%ebp),%eax
100042ed:	89 45 ec             	mov    %eax,-0x14(%ebp)
100042f0:	8d 85 74 ff ff ff    	lea    -0x8c(%ebp),%eax
100042f6:	6a 08                	push   $0x8
100042f8:	6a 00                	push   $0x0
100042fa:	89 45 f0             	mov    %eax,-0x10(%ebp)
100042fd:	e8 23 14 00 00       	call   0x10005725
10004302:	ff 74 85 d0          	pushl  -0x30(%ebp,%eax,4)
10004306:	56                   	push   %esi
10004307:	e8 94 20 00 00       	call   0x100063a0
1000430c:	68 48 d1 00 10       	push   $0x1000d148
10004311:	56                   	push   %esi
10004312:	e8 89 20 00 00       	call   0x100063a0
10004317:	83 c4 40             	add    $0x40,%esp
1000431a:	33 ff                	xor    %edi,%edi
1000431c:	6a 09                	push   $0x9
1000431e:	57                   	push   %edi
1000431f:	e8 01 14 00 00       	call   0x10005725
10004324:	59                   	pop    %ecx
10004325:	59                   	pop    %ecx
10004326:	83 c0 01             	add    $0x1,%eax
10004329:	74 3c                	je     0x10004367
1000432b:	6a 7a                	push   $0x7a
1000432d:	6a 61                	push   $0x61
1000432f:	e8 f1 13 00 00       	call   0x10005725
10004334:	6a 7a                	push   $0x7a
10004336:	6a 61                	push   $0x61
10004338:	66 89 45 f8          	mov    %ax,-0x8(%ebp)
1000433c:	e8 e4 13 00 00       	call   0x10005725
10004341:	66 89 45 fa          	mov    %ax,-0x6(%ebp)
10004345:	33 c0                	xor    %eax,%eax
10004347:	66 89 45 fc          	mov    %ax,-0x4(%ebp)
1000434b:	8d 45 f8             	lea    -0x8(%ebp),%eax
1000434e:	50                   	push   %eax
1000434f:	56                   	push   %esi
10004350:	e8 4b 20 00 00       	call   0x100063a0
10004355:	6a 09                	push   $0x9
10004357:	6a 00                	push   $0x0
10004359:	47                   	inc    %edi
1000435a:	e8 c6 13 00 00       	call   0x10005725
1000435f:	83 c4 20             	add    $0x20,%esp
10004362:	40                   	inc    %eax
10004363:	3b f8                	cmp    %eax,%edi
10004365:	72 c4                	jb     0x1000432b
10004367:	68 4c d1 00 10       	push   $0x1000d14c
1000436c:	56                   	push   %esi
1000436d:	e8 2e 20 00 00       	call   0x100063a0
10004372:	8d 45 c0             	lea    -0x40(%ebp),%eax
10004375:	50                   	push   %eax
10004376:	6a 06                	push   $0x6
10004378:	6a 07                	push   $0x7
1000437a:	68 17 08 00 00       	push   $0x817
1000437f:	53                   	push   %ebx
10004380:	e8 38 1d 00 00       	call   0x100060bd
10004385:	33 c0                	xor    %eax,%eax
10004387:	66 89 45 c6          	mov    %ax,-0x3a(%ebp)
1000438b:	8d 45 b8             	lea    -0x48(%ebp),%eax
1000438e:	50                   	push   %eax
1000438f:	6a 06                	push   $0x6
10004391:	6a 0b                	push   $0xb
10004393:	68 06 04 00 00       	push   $0x406
10004398:	53                   	push   %ebx
10004399:	e8 1f 1d 00 00       	call   0x100060bd
1000439e:	33 c0                	xor    %eax,%eax
100043a0:	66 89 45 be          	mov    %ax,-0x42(%ebp)
100043a4:	8d 45 b0             	lea    -0x50(%ebp),%eax
100043a7:	50                   	push   %eax
100043a8:	6a 06                	push   $0x6
100043aa:	6a 0f                	push   $0xf
100043ac:	68 96 09 00 00       	push   $0x996
100043b1:	53                   	push   %ebx
100043b2:	e8 06 1d 00 00       	call   0x100060bd
100043b7:	33 c0                	xor    %eax,%eax
100043b9:	83 c4 44             	add    $0x44,%esp
100043bc:	66 89 45 b6          	mov    %ax,-0x4a(%ebp)
100043c0:	8d 45 c0             	lea    -0x40(%ebp),%eax
100043c3:	89 45 f4             	mov    %eax,-0xc(%ebp)
100043c6:	8d 45 b8             	lea    -0x48(%ebp),%eax
100043c9:	89 45 f8             	mov    %eax,-0x8(%ebp)
100043cc:	8d 45 b0             	lea    -0x50(%ebp),%eax
100043cf:	6a 02                	push   $0x2
100043d1:	6a 00                	push   $0x0
100043d3:	89 45 fc             	mov    %eax,-0x4(%ebp)
100043d6:	e8 4a 13 00 00       	call   0x10005725
100043db:	ff 74 85 f4          	pushl  -0xc(%ebp,%eax,4)
100043df:	56                   	push   %esi
100043e0:	e8 bb 1f 00 00       	call   0x100063a0
100043e5:	83 c4 10             	add    $0x10,%esp
100043e8:	5f                   	pop    %edi
100043e9:	5b                   	pop    %ebx
100043ea:	5e                   	pop    %esi
100043eb:	8b e5                	mov    %ebp,%esp
100043ed:	5d                   	pop    %ebp
100043ee:	c3                   	ret    
100043ef:	55                   	push   %ebp
100043f0:	8b ec                	mov    %esp,%ebp
100043f2:	51                   	push   %ecx
100043f3:	56                   	push   %esi
100043f4:	ff 75 08             	pushl  0x8(%ebp)
100043f7:	e8 2f 21 00 00       	call   0x1000652b
100043fc:	03 05 a8 32 01 10    	add    0x100132a8,%eax
10004402:	8d 04 45 02 00 00 00 	lea    0x2(,%eax,2),%eax
10004409:	50                   	push   %eax
1000440a:	e8 79 06 00 00       	call   0x10004a88
1000440f:	8b f0                	mov    %eax,%esi
10004411:	59                   	pop    %ecx
10004412:	59                   	pop    %ecx
10004413:	85 f6                	test   %esi,%esi
10004415:	74 5f                	je     0x10004476
10004417:	57                   	push   %edi
10004418:	ff 75 08             	pushl  0x8(%ebp)
1000441b:	56                   	push   %esi
1000441c:	e8 61 20 00 00       	call   0x10006482
10004421:	ff 35 20 32 01 10    	pushl  0x10013220
10004427:	56                   	push   %esi
10004428:	e8 73 1f 00 00       	call   0x100063a0
1000442d:	6a 00                	push   $0x0
1000442f:	6a 02                	push   $0x2
10004431:	6a 00                	push   $0x0
10004433:	68 00 00 00 40       	push   $0x40000000
10004438:	56                   	push   %esi
10004439:	e8 6f 35 00 00       	call   0x100079ad
1000443e:	56                   	push   %esi
1000443f:	8b f8                	mov    %eax,%edi
10004441:	e8 8f 06 00 00       	call   0x10004ad5
10004446:	83 c4 28             	add    $0x28,%esp
10004449:	85 ff                	test   %edi,%edi
1000444b:	75 04                	jne    0x10004451
1000444d:	33 c0                	xor    %eax,%eax
1000444f:	eb 24                	jmp    0x10004475
10004451:	8d 45 fc             	lea    -0x4(%ebp),%eax
10004454:	50                   	push   %eax
10004455:	a1 a4 32 01 10       	mov    0x100132a4,%eax
1000445a:	03 c0                	add    %eax,%eax
1000445c:	50                   	push   %eax
1000445d:	ff 35 1c 32 01 10    	pushl  0x1001321c
10004463:	57                   	push   %edi
10004464:	e8 9c 35 00 00       	call   0x10007a05
10004469:	57                   	push   %edi
1000446a:	e8 8f 09 00 00       	call   0x10004dfe
1000446f:	33 c0                	xor    %eax,%eax
10004471:	83 c4 14             	add    $0x14,%esp
10004474:	40                   	inc    %eax
10004475:	5f                   	pop    %edi
10004476:	5e                   	pop    %esi
10004477:	8b e5                	mov    %ebp,%esp
10004479:	5d                   	pop    %ebp
1000447a:	c3                   	ret    
1000447b:	6a ff                	push   $0xffffffff
1000447d:	ff 35 04 31 01 10    	pushl  0x10013104
10004483:	ff 15 04 d0 00 10    	call   *0x1000d004
10004489:	ff 35 04 31 01 10    	pushl  0x10013104
1000448f:	ff 15 00 d0 00 10    	call   *0x1000d000
10004495:	c3                   	ret    
10004496:	e8 3b 3c 00 00       	call   0x100080d6
1000449b:	e8 73 d0 ff ff       	call   0x10001513
100044a0:	85 c0                	test   %eax,%eax
100044a2:	74 16                	je     0x100044ba
100044a4:	83 3d b4 32 01 10 00 	cmpl   $0x0,0x100132b4
100044ab:	75 15                	jne    0x100044c2
100044ad:	e8 67 0f 00 00       	call   0x10005419
100044b2:	85 c0                	test   %eax,%eax
100044b4:	74 0c                	je     0x100044c2
100044b6:	6a 00                	push   $0x0
100044b8:	eb 02                	jmp    0x100044bc
100044ba:	6a 01                	push   $0x1
100044bc:	e8 d6 09 00 00       	call   0x10004e97
100044c1:	59                   	pop    %ecx
100044c2:	6a 01                	push   $0x1
100044c4:	ff 15 14 d0 00 10    	call   *0x1000d014
100044ca:	e8 92 11 00 00       	call   0x10005661
100044cf:	b9 00 06 00 00       	mov    $0x600,%ecx
100044d4:	66 3b c1             	cmp    %cx,%ax
100044d7:	72 0a                	jb     0x100044e3
100044d9:	6a 12                	push   $0x12
100044db:	6a 00                	push   $0x0
100044dd:	ff 15 88 20 01 10    	call   *0x10012088
100044e3:	83 3d cc 32 01 10 00 	cmpl   $0x0,0x100132cc
100044ea:	75 35                	jne    0x10004521
100044ec:	e8 f8 0f 00 00       	call   0x100054e9
100044f1:	85 c0                	test   %eax,%eax
100044f3:	74 1e                	je     0x10004513
100044f5:	6a 10                	push   $0x10
100044f7:	68 a8 d2 00 10       	push   $0x1000d2a8
100044fc:	68 b4 d2 00 10       	push   $0x1000d2b4
10004501:	6a 00                	push   $0x0
10004503:	ff 15 4c d0 00 10    	call   *0x1000d04c
10004509:	6a 01                	push   $0x1
1000450b:	e8 87 09 00 00       	call   0x10004e97
10004510:	59                   	pop    %ecx
10004511:	eb 0e                	jmp    0x10004521
10004513:	83 3d b8 32 01 10 00 	cmpl   $0x0,0x100132b8
1000451a:	74 05                	je     0x10004521
1000451c:	e8 e6 16 00 00       	call   0x10005c07
10004521:	e8 70 f5 ff ff       	call   0x10003a96
10004526:	e8 aa 3b 00 00       	call   0x100080d5
1000452b:	33 c0                	xor    %eax,%eax
1000452d:	c2 04 00             	ret    $0x4
10004530:	55                   	push   %ebp
10004531:	8b ec                	mov    %esp,%ebp
10004533:	ff 75 08             	pushl  0x8(%ebp)
10004536:	ff 15 1c d0 00 10    	call   *0x1000d01c
1000453c:	83 6d 0c 01          	subl   $0x1,0xc(%ebp)
10004540:	75 17                	jne    0x10004559
10004542:	33 c0                	xor    %eax,%eax
10004544:	50                   	push   %eax
10004545:	50                   	push   %eax
10004546:	50                   	push   %eax
10004547:	68 96 44 00 10       	push   $0x10004496
1000454c:	50                   	push   %eax
1000454d:	50                   	push   %eax
1000454e:	ff 15 18 d0 00 10    	call   *0x1000d018
10004554:	a3 04 31 01 10       	mov    %eax,0x10013104
10004559:	33 c0                	xor    %eax,%eax
1000455b:	40                   	inc    %eax
1000455c:	5d                   	pop    %ebp
1000455d:	c2 0c 00             	ret    $0xc
10004560:	55                   	push   %ebp
10004561:	8b ec                	mov    %esp,%ebp
10004563:	83 ec 2c             	sub    $0x2c,%esp
10004566:	8d 45 d4             	lea    -0x2c(%ebp),%eax
10004569:	56                   	push   %esi
1000456a:	50                   	push   %eax
1000456b:	6a 18                	push   $0x18
1000456d:	5e                   	pop    %esi
1000456e:	56                   	push   %esi
1000456f:	ff 75 08             	pushl  0x8(%ebp)
10004572:	ff 15 64 21 01 10    	call   *0x10012164
10004578:	85 c0                	test   %eax,%eax
1000457a:	0f 84 90 01 00 00    	je     0x10004710
10004580:	8b 45 e6             	mov    -0x1a(%ebp),%eax
10004583:	0f af 45 e4          	imul   -0x1c(%ebp),%eax
10004587:	53                   	push   %ebx
10004588:	57                   	push   %edi
10004589:	33 ff                	xor    %edi,%edi
1000458b:	47                   	inc    %edi
1000458c:	0f b7 c0             	movzwl %ax,%eax
1000458f:	66 3b c7             	cmp    %di,%ax
10004592:	75 04                	jne    0x10004598
10004594:	8b df                	mov    %edi,%ebx
10004596:	eb 26                	jmp    0x100045be
10004598:	6a 04                	push   $0x4
1000459a:	5b                   	pop    %ebx
1000459b:	66 3b c3             	cmp    %bx,%ax
1000459e:	76 1e                	jbe    0x100045be
100045a0:	6a 08                	push   $0x8
100045a2:	5b                   	pop    %ebx
100045a3:	66 3b c3             	cmp    %bx,%ax
100045a6:	76 16                	jbe    0x100045be
100045a8:	6a 10                	push   $0x10
100045aa:	5b                   	pop    %ebx
100045ab:	66 3b c3             	cmp    %bx,%ax
100045ae:	76 0e                	jbe    0x100045be
100045b0:	66 3b c6             	cmp    %si,%ax
100045b3:	77 06                	ja     0x100045bb
100045b5:	8b de                	mov    %esi,%ebx
100045b7:	6a 28                	push   $0x28
100045b9:	eb 11                	jmp    0x100045cc
100045bb:	6a 20                	push   $0x20
100045bd:	5b                   	pop    %ebx
100045be:	8b c7                	mov    %edi,%eax
100045c0:	8a cb                	mov    %bl,%cl
100045c2:	d3 e0                	shl    %cl,%eax
100045c4:	8d 04 85 28 00 00 00 	lea    0x28(,%eax,4),%eax
100045cb:	50                   	push   %eax
100045cc:	6a 40                	push   $0x40
100045ce:	ff 15 e8 20 01 10    	call   *0x100120e8
100045d4:	8b f0                	mov    %eax,%esi
100045d6:	6a 18                	push   $0x18
100045d8:	c7 06 28 00 00 00    	movl   $0x28,(%esi)
100045de:	8b 45 d8             	mov    -0x28(%ebp),%eax
100045e1:	89 46 04             	mov    %eax,0x4(%esi)
100045e4:	8b 45 dc             	mov    -0x24(%ebp),%eax
100045e7:	89 46 08             	mov    %eax,0x8(%esi)
100045ea:	66 8b 45 e4          	mov    -0x1c(%ebp),%ax
100045ee:	66 89 46 0c          	mov    %ax,0xc(%esi)
100045f2:	66 8b 45 e6          	mov    -0x1a(%ebp),%ax
100045f6:	66 89 46 0e          	mov    %ax,0xe(%esi)
100045fa:	58                   	pop    %eax
100045fb:	66 3b d8             	cmp    %ax,%bx
100045fe:	73 07                	jae    0x10004607
10004600:	8a cb                	mov    %bl,%cl
10004602:	d3 e7                	shl    %cl,%edi
10004604:	89 7e 20             	mov    %edi,0x20(%esi)
10004607:	8b 46 04             	mov    0x4(%esi),%eax
1000460a:	33 ff                	xor    %edi,%edi
1000460c:	83 c0 07             	add    $0x7,%eax
1000460f:	0f b7 cb             	movzwl %bx,%ecx
10004612:	99                   	cltd   
10004613:	83 e2 07             	and    $0x7,%edx
10004616:	89 7e 10             	mov    %edi,0x10(%esi)
10004619:	03 c2                	add    %edx,%eax
1000461b:	89 7e 24             	mov    %edi,0x24(%esi)
1000461e:	c1 f8 03             	sar    $0x3,%eax
10004621:	0f af c1             	imul   %ecx,%eax
10004624:	0f af 46 08          	imul   0x8(%esi),%eax
10004628:	50                   	push   %eax
10004629:	57                   	push   %edi
1000462a:	89 46 14             	mov    %eax,0x14(%esi)
1000462d:	ff 15 0c 22 01 10    	call   *0x1001220c
10004633:	8b d8                	mov    %eax,%ebx
10004635:	85 db                	test   %ebx,%ebx
10004637:	0f 84 d1 00 00 00    	je     0x1000470e
1000463d:	0f b7 4e 08          	movzwl 0x8(%esi),%ecx
10004641:	57                   	push   %edi
10004642:	56                   	push   %esi
10004643:	53                   	push   %ebx
10004644:	51                   	push   %ecx
10004645:	57                   	push   %edi
10004646:	ff 75 08             	pushl  0x8(%ebp)
10004649:	ff 75 0c             	pushl  0xc(%ebp)
1000464c:	ff 15 54 21 01 10    	call   *0x10012154
10004652:	85 c0                	test   %eax,%eax
10004654:	0f 84 b4 00 00 00    	je     0x1000470e
1000465a:	57                   	push   %edi
1000465b:	68 80 00 00 00       	push   $0x80
10004660:	6a 02                	push   $0x2
10004662:	57                   	push   %edi
10004663:	57                   	push   %edi
10004664:	68 00 00 00 c0       	push   $0xc0000000
10004669:	ff 75 10             	pushl  0x10(%ebp)
1000466c:	ff 15 a8 22 01 10    	call   *0x100122a8
10004672:	8b f8                	mov    %eax,%edi
10004674:	83 ff ff             	cmp    $0xffffffff,%edi
10004677:	0f 84 91 00 00 00    	je     0x1000470e
1000467d:	b8 42 4d 00 00       	mov    $0x4d42,%eax
10004682:	66 89 45 ec          	mov    %ax,-0x14(%ebp)
10004686:	8b 56 20             	mov    0x20(%esi),%edx
10004689:	8b 4e 14             	mov    0x14(%esi),%ecx
1000468c:	8b 06                	mov    (%esi),%eax
1000468e:	6a 00                	push   $0x0
10004690:	8d 0c 91             	lea    (%ecx,%edx,4),%ecx
10004693:	83 c1 0e             	add    $0xe,%ecx
10004696:	03 c1                	add    %ecx,%eax
10004698:	89 45 ee             	mov    %eax,-0x12(%ebp)
1000469b:	33 c0                	xor    %eax,%eax
1000469d:	89 45 f2             	mov    %eax,-0xe(%ebp)
100046a0:	8b 4e 20             	mov    0x20(%esi),%ecx
100046a3:	8b 06                	mov    (%esi),%eax
100046a5:	8d 04 88             	lea    (%eax,%ecx,4),%eax
100046a8:	83 c0 0e             	add    $0xe,%eax
100046ab:	89 45 f6             	mov    %eax,-0xa(%ebp)
100046ae:	8d 45 fc             	lea    -0x4(%ebp),%eax
100046b1:	50                   	push   %eax
100046b2:	6a 0e                	push   $0xe
100046b4:	8d 45 ec             	lea    -0x14(%ebp),%eax
100046b7:	50                   	push   %eax
100046b8:	57                   	push   %edi
100046b9:	ff 15 70 21 01 10    	call   *0x10012170
100046bf:	85 c0                	test   %eax,%eax
100046c1:	74 1d                	je     0x100046e0
100046c3:	6a 00                	push   $0x0
100046c5:	8d 45 fc             	lea    -0x4(%ebp),%eax
100046c8:	50                   	push   %eax
100046c9:	8b 46 20             	mov    0x20(%esi),%eax
100046cc:	8d 04 85 28 00 00 00 	lea    0x28(,%eax,4),%eax
100046d3:	50                   	push   %eax
100046d4:	56                   	push   %esi
100046d5:	57                   	push   %edi
100046d6:	ff 15 70 21 01 10    	call   *0x10012170
100046dc:	85 c0                	test   %eax,%eax
100046de:	75 03                	jne    0x100046e3
100046e0:	57                   	push   %edi
100046e1:	eb 16                	jmp    0x100046f9
100046e3:	6a 00                	push   $0x0
100046e5:	8d 45 fc             	lea    -0x4(%ebp),%eax
100046e8:	50                   	push   %eax
100046e9:	ff 76 14             	pushl  0x14(%esi)
100046ec:	53                   	push   %ebx
100046ed:	57                   	push   %edi
100046ee:	ff 15 70 21 01 10    	call   *0x10012170
100046f4:	57                   	push   %edi
100046f5:	85 c0                	test   %eax,%eax
100046f7:	75 08                	jne    0x10004701
100046f9:	e8 00 07 00 00       	call   0x10004dfe
100046fe:	59                   	pop    %ecx
100046ff:	eb 0d                	jmp    0x1000470e
10004701:	e8 f8 06 00 00       	call   0x10004dfe
10004706:	59                   	pop    %ecx
10004707:	53                   	push   %ebx
10004708:	ff 15 5c 20 01 10    	call   *0x1001205c
1000470e:	5f                   	pop    %edi
1000470f:	5b                   	pop    %ebx
10004710:	5e                   	pop    %esi
10004711:	8b e5                	mov    %ebp,%esp
10004713:	5d                   	pop    %ebp
10004714:	c3                   	ret    
10004715:	55                   	push   %ebp
10004716:	8b ec                	mov    %esp,%ebp
10004718:	83 ec 10             	sub    $0x10,%esp
1000471b:	53                   	push   %ebx
1000471c:	6a 0d                	push   $0xd
1000471e:	6a 03                	push   $0x3
10004720:	e8 00 10 00 00       	call   0x10005725
10004725:	8b d8                	mov    %eax,%ebx
10004727:	59                   	pop    %ecx
10004728:	59                   	pop    %ecx
10004729:	85 db                	test   %ebx,%ebx
1000472b:	0f 84 e4 00 00 00    	je     0x10004815
10004731:	8d 04 5d 0a 00 00 00 	lea    0xa(,%ebx,2),%eax
10004738:	57                   	push   %edi
10004739:	50                   	push   %eax
1000473a:	e8 49 03 00 00       	call   0x10004a88
1000473f:	8b f8                	mov    %eax,%edi
10004741:	59                   	pop    %ecx
10004742:	85 ff                	test   %edi,%edi
10004744:	0f 84 ca 00 00 00    	je     0x10004814
1000474a:	83 65 fc 00          	andl   $0x0,-0x4(%ebp)
1000474e:	56                   	push   %esi
1000474f:	85 db                	test   %ebx,%ebx
10004751:	74 38                	je     0x1000478b
10004753:	6a 01                	push   $0x1
10004755:	6a 00                	push   $0x0
10004757:	e8 c9 0f 00 00       	call   0x10005725
1000475c:	6a 09                	push   $0x9
1000475e:	59                   	pop    %ecx
1000475f:	8b f0                	mov    %eax,%esi
10004761:	6a 19                	push   $0x19
10004763:	58                   	pop    %eax
10004764:	85 f6                	test   %esi,%esi
10004766:	0f 45 c8             	cmovne %eax,%ecx
10004769:	51                   	push   %ecx
1000476a:	6a 00                	push   $0x0
1000476c:	e8 b4 0f 00 00       	call   0x10005725
10004771:	8b 4d fc             	mov    -0x4(%ebp),%ecx
10004774:	83 c4 10             	add    $0x10,%esp
10004777:	66 03 04 75 60 d0 00 	add    0x1000d060(,%esi,2),%ax
1000477e:	10 
1000477f:	66 89 04 4f          	mov    %ax,(%edi,%ecx,2)
10004783:	41                   	inc    %ecx
10004784:	89 4d fc             	mov    %ecx,-0x4(%ebp)
10004787:	3b cb                	cmp    %ebx,%ecx
10004789:	72 c8                	jb     0x10004753
1000478b:	8d 45 f0             	lea    -0x10(%ebp),%eax
1000478e:	50                   	push   %eax
1000478f:	6a 08                	push   $0x8
10004791:	6a 0d                	push   $0xd
10004793:	68 5b 0a 00 00       	push   $0xa5b
10004798:	68 70 12 01 10       	push   $0x10011270
1000479d:	e8 1b 19 00 00       	call   0x100060bd
100047a2:	33 c0                	xor    %eax,%eax
100047a4:	66 89 45 f8          	mov    %ax,-0x8(%ebp)
100047a8:	8d 45 f0             	lea    -0x10(%ebp),%eax
100047ab:	50                   	push   %eax
100047ac:	57                   	push   %edi
100047ad:	e8 ee 1b 00 00       	call   0x100063a0
100047b2:	83 c4 1c             	add    $0x1c,%esp
100047b5:	e8 74 12 00 00       	call   0x10005a2e
100047ba:	8b d8                	mov    %eax,%ebx
100047bc:	85 db                	test   %ebx,%ebx
100047be:	75 08                	jne    0x100047c8
100047c0:	57                   	push   %edi
100047c1:	e8 0f 03 00 00       	call   0x10004ad5
100047c6:	eb 33                	jmp    0x100047fb
100047c8:	53                   	push   %ebx
100047c9:	e8 5d 1d 00 00       	call   0x1000652b
100047ce:	57                   	push   %edi
100047cf:	8b f0                	mov    %eax,%esi
100047d1:	e8 55 1d 00 00       	call   0x1000652b
100047d6:	03 f0                	add    %eax,%esi
100047d8:	8d 04 75 02 00 00 00 	lea    0x2(,%esi,2),%eax
100047df:	50                   	push   %eax
100047e0:	e8 a3 02 00 00       	call   0x10004a88
100047e5:	8b f0                	mov    %eax,%esi
100047e7:	83 c4 0c             	add    $0xc,%esp
100047ea:	85 f6                	test   %esi,%esi
100047ec:	75 12                	jne    0x10004800
100047ee:	57                   	push   %edi
100047ef:	e8 e1 02 00 00       	call   0x10004ad5
100047f4:	53                   	push   %ebx
100047f5:	e8 db 02 00 00       	call   0x10004ad5
100047fa:	59                   	pop    %ecx
100047fb:	59                   	pop    %ecx
100047fc:	33 c0                	xor    %eax,%eax
100047fe:	eb 13                	jmp    0x10004813
10004800:	53                   	push   %ebx
10004801:	56                   	push   %esi
10004802:	e8 7b 1c 00 00       	call   0x10006482
10004807:	57                   	push   %edi
10004808:	56                   	push   %esi
10004809:	e8 92 1b 00 00       	call   0x100063a0
1000480e:	83 c4 10             	add    $0x10,%esp
10004811:	8b c6                	mov    %esi,%eax
10004813:	5e                   	pop    %esi
10004814:	5f                   	pop    %edi
10004815:	5b                   	pop    %ebx
10004816:	8b e5                	mov    %ebp,%esp
10004818:	5d                   	pop    %ebp
10004819:	c3                   	ret    
1000481a:	55                   	push   %ebp
1000481b:	8b ec                	mov    %esp,%ebp
1000481d:	83 ec 34             	sub    $0x34,%esp
10004820:	53                   	push   %ebx
10004821:	6a 00                	push   $0x0
10004823:	ff 15 c0 20 01 10    	call   *0x100120c0
10004829:	8b d8                	mov    %eax,%ebx
1000482b:	89 5d e4             	mov    %ebx,-0x1c(%ebp)
1000482e:	85 db                	test   %ebx,%ebx
10004830:	0f 84 ef 01 00 00    	je     0x10004a25
10004836:	56                   	push   %esi
10004837:	53                   	push   %ebx
10004838:	ff 15 08 20 01 10    	call   *0x10012008
1000483e:	8b f0                	mov    %eax,%esi
10004840:	89 75 f0             	mov    %esi,-0x10(%ebp)
10004843:	85 f6                	test   %esi,%esi
10004845:	0f 84 d0 01 00 00    	je     0x10004a1b
1000484b:	57                   	push   %edi
1000484c:	6a 08                	push   $0x8
1000484e:	53                   	push   %ebx
1000484f:	ff 15 c0 22 01 10    	call   *0x100122c0
10004855:	6a 0a                	push   $0xa
10004857:	8b f8                	mov    %eax,%edi
10004859:	58                   	pop    %eax
1000485a:	50                   	push   %eax
1000485b:	53                   	push   %ebx
1000485c:	89 7d e8             	mov    %edi,-0x18(%ebp)
1000485f:	89 45 f4             	mov    %eax,-0xc(%ebp)
10004862:	ff 15 c0 22 01 10    	call   *0x100122c0
10004868:	50                   	push   %eax
10004869:	57                   	push   %edi
1000486a:	53                   	push   %ebx
1000486b:	89 45 fc             	mov    %eax,-0x4(%ebp)
1000486e:	ff 15 08 21 01 10    	call   *0x10012108
10004874:	89 45 ec             	mov    %eax,-0x14(%ebp)
10004877:	85 c0                	test   %eax,%eax
10004879:	0f 84 94 01 00 00    	je     0x10004a13
1000487f:	50                   	push   %eax
10004880:	56                   	push   %esi
10004881:	ff 15 68 22 01 10    	call   *0x10012268
10004887:	6a 5a                	push   $0x5a
10004889:	53                   	push   %ebx
1000488a:	ff 15 c0 22 01 10    	call   *0x100122c0
10004890:	6a 48                	push   $0x48
10004892:	50                   	push   %eax
10004893:	6a 12                	push   $0x12
10004895:	ff 15 80 21 01 10    	call   *0x10012180
1000489b:	33 c9                	xor    %ecx,%ecx
1000489d:	f7 d8                	neg    %eax
1000489f:	51                   	push   %ecx
100048a0:	51                   	push   %ecx
100048a1:	6a 04                	push   $0x4
100048a3:	51                   	push   %ecx
100048a4:	51                   	push   %ecx
100048a5:	6a 01                	push   $0x1
100048a7:	51                   	push   %ecx
100048a8:	51                   	push   %ecx
100048a9:	51                   	push   %ecx
100048aa:	51                   	push   %ecx
100048ab:	51                   	push   %ecx
100048ac:	51                   	push   %ecx
100048ad:	51                   	push   %ecx
100048ae:	50                   	push   %eax
100048af:	89 45 e0             	mov    %eax,-0x20(%ebp)
100048b2:	ff 15 80 20 01 10    	call   *0x10012080
100048b8:	89 45 dc             	mov    %eax,-0x24(%ebp)
100048bb:	85 c0                	test   %eax,%eax
100048bd:	0f 84 47 01 00 00    	je     0x10004a0a
100048c3:	50                   	push   %eax
100048c4:	56                   	push   %esi
100048c5:	ff 15 68 22 01 10    	call   *0x10012268
100048cb:	6a 01                	push   $0x1
100048cd:	56                   	push   %esi
100048ce:	ff 15 9c 20 01 10    	call   *0x1001209c
100048d4:	68 ff ff ff 00       	push   $0xffffff
100048d9:	56                   	push   %esi
100048da:	ff 15 90 20 01 10    	call   *0x10012090
100048e0:	6a 02                	push   $0x2
100048e2:	ff 15 10 22 01 10    	call   *0x10012210
100048e8:	8b 55 fc             	mov    -0x4(%ebp),%edx
100048eb:	83 65 cc 00          	andl   $0x0,-0x34(%ebp)
100048ef:	83 65 d0 00          	andl   $0x0,-0x30(%ebp)
100048f3:	50                   	push   %eax
100048f4:	8d 45 cc             	lea    -0x34(%ebp),%eax
100048f7:	89 7d d4             	mov    %edi,-0x2c(%ebp)
100048fa:	50                   	push   %eax
100048fb:	56                   	push   %esi
100048fc:	89 55 d8             	mov    %edx,-0x28(%ebp)
100048ff:	ff 15 88 21 01 10    	call   *0x10012188
10004905:	8b 4d fc             	mov    -0x4(%ebp),%ecx
10004908:	8b c1                	mov    %ecx,%eax
1000490a:	0f af c7             	imul   %edi,%eax
1000490d:	99                   	cltd   
1000490e:	f7 7d f4             	idivl  -0xc(%ebp)
10004911:	85 c0                	test   %eax,%eax
10004913:	0f 8e 8d 00 00 00    	jle    0x100049a6
10004919:	33 c0                	xor    %eax,%eax
1000491b:	89 45 f8             	mov    %eax,-0x8(%ebp)
1000491e:	85 ff                	test   %edi,%edi
10004920:	0f 8e 80 00 00 00    	jle    0x100049a6
10004926:	8b de                	mov    %esi,%ebx
10004928:	83 65 f4 00          	andl   $0x0,-0xc(%ebp)
1000492c:	85 c9                	test   %ecx,%ecx
1000492e:	7e 68                	jle    0x10004998
10004930:	6a ff                	push   $0xffffffff
10004932:	6a 00                	push   $0x0
10004934:	e8 ec 0d 00 00       	call   0x10005725
10004939:	33 d2                	xor    %edx,%edx
1000493b:	b9 c8 00 00 00       	mov    $0xc8,%ecx
10004940:	f7 f1                	div    %ecx
10004942:	6a ff                	push   $0xffffffff
10004944:	0f b6 f2             	movzbl %dl,%esi
10004947:	6a 00                	push   $0x0
10004949:	c1 e6 08             	shl    $0x8,%esi
1000494c:	e8 d4 0d 00 00       	call   0x10005725
10004951:	6a 1e                	push   $0x1e
10004953:	59                   	pop    %ecx
10004954:	33 d2                	xor    %edx,%edx
10004956:	f7 f1                	div    %ecx
10004958:	6a ff                	push   $0xffffffff
1000495a:	0f b6 fa             	movzbl %dl,%edi
1000495d:	0b fe                	or     %esi,%edi
1000495f:	6a 00                	push   $0x0
10004961:	c1 e7 08             	shl    $0x8,%edi
10004964:	e8 bc 0d 00 00       	call   0x10005725
10004969:	83 c4 18             	add    $0x18,%esp
1000496c:	8b 75 f4             	mov    -0xc(%ebp),%esi
1000496f:	33 d2                	xor    %edx,%edx
10004971:	6a 1e                	push   $0x1e
10004973:	59                   	pop    %ecx
10004974:	f7 f1                	div    %ecx
10004976:	0f b6 c2             	movzbl %dl,%eax
10004979:	0b c7                	or     %edi,%eax
1000497b:	50                   	push   %eax
1000497c:	56                   	push   %esi
1000497d:	ff 75 f8             	pushl  -0x8(%ebp)
10004980:	53                   	push   %ebx
10004981:	ff 15 68 20 01 10    	call   *0x10012068
10004987:	8b 4d fc             	mov    -0x4(%ebp),%ecx
1000498a:	46                   	inc    %esi
1000498b:	89 75 f4             	mov    %esi,-0xc(%ebp)
1000498e:	3b f1                	cmp    %ecx,%esi
10004990:	7c 9e                	jl     0x10004930
10004992:	8b 7d e8             	mov    -0x18(%ebp),%edi
10004995:	8b 45 f8             	mov    -0x8(%ebp),%eax
10004998:	40                   	inc    %eax
10004999:	89 45 f8             	mov    %eax,-0x8(%ebp)
1000499c:	3b c7                	cmp    %edi,%eax
1000499e:	7c 88                	jl     0x10004928
100049a0:	8b 5d e4             	mov    -0x1c(%ebp),%ebx
100049a3:	8b 75 f0             	mov    -0x10(%ebp),%esi
100049a6:	8b 45 d8             	mov    -0x28(%ebp),%eax
100049a9:	99                   	cltd   
100049aa:	2b c2                	sub    %edx,%eax
100049ac:	8b c8                	mov    %eax,%ecx
100049ae:	8b 45 fc             	mov    -0x4(%ebp),%eax
100049b1:	99                   	cltd   
100049b2:	2b c2                	sub    %edx,%eax
100049b4:	d1 f9                	sar    %ecx
100049b6:	d1 f8                	sar    %eax
100049b8:	6a 11                	push   $0x11
100049ba:	2b c8                	sub    %eax,%ecx
100049bc:	8d 45 cc             	lea    -0x34(%ebp),%eax
100049bf:	2b 4d e0             	sub    -0x20(%ebp),%ecx
100049c2:	50                   	push   %eax
100049c3:	6a ff                	push   $0xffffffff
100049c5:	ff 35 24 32 01 10    	pushl  0x10013224
100049cb:	89 4d d0             	mov    %ecx,-0x30(%ebp)
100049ce:	56                   	push   %esi
100049cf:	ff 15 b0 22 01 10    	call   *0x100122b0
100049d5:	e8 3b fd ff ff       	call   0x10004715
100049da:	8b f8                	mov    %eax,%edi
100049dc:	85 ff                	test   %edi,%edi
100049de:	74 21                	je     0x10004a01
100049e0:	57                   	push   %edi
100049e1:	53                   	push   %ebx
100049e2:	ff 75 ec             	pushl  -0x14(%ebp)
100049e5:	e8 76 fb ff ff       	call   0x10004560
100049ea:	83 c4 0c             	add    $0xc,%esp
100049ed:	6a 03                	push   $0x3
100049ef:	57                   	push   %edi
100049f0:	6a 00                	push   $0x0
100049f2:	6a 14                	push   $0x14
100049f4:	ff 15 88 22 01 10    	call   *0x10012288
100049fa:	57                   	push   %edi
100049fb:	e8 d5 00 00 00       	call   0x10004ad5
10004a00:	59                   	pop    %ecx
10004a01:	ff 75 dc             	pushl  -0x24(%ebp)
10004a04:	ff 15 d8 21 01 10    	call   *0x100121d8
10004a0a:	ff 75 ec             	pushl  -0x14(%ebp)
10004a0d:	ff 15 d8 21 01 10    	call   *0x100121d8
10004a13:	56                   	push   %esi
10004a14:	ff 15 94 22 01 10    	call   *0x10012294
10004a1a:	5f                   	pop    %edi
10004a1b:	53                   	push   %ebx
10004a1c:	6a 00                	push   $0x0
10004a1e:	ff 15 48 20 01 10    	call   *0x10012048
10004a24:	5e                   	pop    %esi
10004a25:	5b                   	pop    %ebx
10004a26:	8b e5                	mov    %ebp,%esp
10004a28:	5d                   	pop    %ebp
10004a29:	c3                   	ret    
10004a2a:	55                   	push   %ebp
10004a2b:	8b ec                	mov    %esp,%ebp
10004a2d:	83 7d 0c 00          	cmpl   $0x0,0xc(%ebp)
10004a31:	75 04                	jne    0x10004a37
10004a33:	33 c0                	xor    %eax,%eax
10004a35:	5d                   	pop    %ebp
10004a36:	c3                   	ret    
10004a37:	ff 75 0c             	pushl  0xc(%ebp)
10004a3a:	6a 08                	push   $0x8
10004a3c:	ff 75 08             	pushl  0x8(%ebp)
10004a3f:	ff 15 80 22 01 10    	call   *0x10012280
10004a45:	5d                   	pop    %ebp
10004a46:	c3                   	ret    
10004a47:	55                   	push   %ebp
10004a48:	8b ec                	mov    %esp,%ebp
10004a4a:	83 7d 08 00          	cmpl   $0x0,0x8(%ebp)
10004a4e:	b8 00 00 40 00       	mov    $0x400000,%eax
10004a53:	6a 00                	push   $0x0
10004a55:	0f 45 45 08          	cmovne 0x8(%ebp),%eax
10004a59:	50                   	push   %eax
10004a5a:	6a 00                	push   $0x0
10004a5c:	ff 15 f0 21 01 10    	call   *0x100121f0
10004a62:	5d                   	pop    %ebp
10004a63:	c3                   	ret    
10004a64:	55                   	push   %ebp
10004a65:	8b ec                	mov    %esp,%ebp
10004a67:	ff 75 08             	pushl  0x8(%ebp)
10004a6a:	ff 15 2c 22 01 10    	call   *0x1001222c
10004a70:	5d                   	pop    %ebp
10004a71:	c3                   	ret    
10004a72:	55                   	push   %ebp
10004a73:	8b ec                	mov    %esp,%ebp
10004a75:	ff 75 0c             	pushl  0xc(%ebp)
10004a78:	6a 00                	push   $0x0
10004a7a:	ff 75 08             	pushl  0x8(%ebp)
10004a7d:	ff 15 00 20 01 10    	call   *0x10012000
10004a83:	0f b6 c0             	movzbl %al,%eax
10004a86:	5d                   	pop    %ebp
10004a87:	c3                   	ret    
10004a88:	55                   	push   %ebp
10004a89:	8b ec                	mov    %esp,%ebp
10004a8b:	83 3d 44 2d 01 10 00 	cmpl   $0x0,0x10012d44
10004a92:	75 2f                	jne    0x10004ac3
10004a94:	6a 00                	push   $0x0
10004a96:	68 00 00 40 00       	push   $0x400000
10004a9b:	6a 00                	push   $0x0
10004a9d:	ff 15 f0 21 01 10    	call   *0x100121f0
10004aa3:	a3 40 2d 01 10       	mov    %eax,0x10012d40
10004aa8:	85 c0                	test   %eax,%eax
10004aaa:	75 0b                	jne    0x10004ab7
10004aac:	ff 15 b8 20 01 10    	call   *0x100120b8
10004ab2:	a3 40 2d 01 10       	mov    %eax,0x10012d40
10004ab7:	c7 05 44 2d 01 10 01 	movl   $0x1,0x10012d44
10004abe:	00 00 00 
10004ac1:	eb 05                	jmp    0x10004ac8
10004ac3:	a1 40 2d 01 10       	mov    0x10012d40,%eax
10004ac8:	ff 75 08             	pushl  0x8(%ebp)
10004acb:	50                   	push   %eax
10004acc:	e8 59 ff ff ff       	call   0x10004a2a
10004ad1:	59                   	pop    %ecx
10004ad2:	59                   	pop    %ecx
10004ad3:	5d                   	pop    %ebp
10004ad4:	c3                   	ret    
10004ad5:	55                   	push   %ebp
10004ad6:	8b ec                	mov    %esp,%ebp
10004ad8:	ff 75 08             	pushl  0x8(%ebp)
10004adb:	ff 35 40 2d 01 10    	pushl  0x10012d40
10004ae1:	e8 8c ff ff ff       	call   0x10004a72
10004ae6:	59                   	pop    %ecx
10004ae7:	59                   	pop    %ecx
10004ae8:	5d                   	pop    %ebp
10004ae9:	c3                   	ret    
10004aea:	55                   	push   %ebp
10004aeb:	8b ec                	mov    %esp,%ebp
10004aed:	8b 45 08             	mov    0x8(%ebp),%eax
10004af0:	56                   	push   %esi
10004af1:	8b 75 10             	mov    0x10(%ebp),%esi
10004af4:	85 f6                	test   %esi,%esi
10004af6:	74 14                	je     0x10004b0c
10004af8:	8b 55 0c             	mov    0xc(%ebp),%edx
10004afb:	57                   	push   %edi
10004afc:	8b f8                	mov    %eax,%edi
10004afe:	2b fa                	sub    %edx,%edi
10004b00:	8a 0a                	mov    (%edx),%cl
10004b02:	88 0c 17             	mov    %cl,(%edi,%edx,1)
10004b05:	42                   	inc    %edx
10004b06:	83 ee 01             	sub    $0x1,%esi
10004b09:	75 f5                	jne    0x10004b00
10004b0b:	5f                   	pop    %edi
10004b0c:	5e                   	pop    %esi
10004b0d:	5d                   	pop    %ebp
10004b0e:	c3                   	ret    
10004b0f:	55                   	push   %ebp
10004b10:	8b ec                	mov    %esp,%ebp
10004b12:	8b 4d 10             	mov    0x10(%ebp),%ecx
10004b15:	85 c9                	test   %ecx,%ecx
10004b17:	74 1f                	je     0x10004b38
10004b19:	0f b6 45 0c          	movzbl 0xc(%ebp),%eax
10004b1d:	56                   	push   %esi
10004b1e:	8b f1                	mov    %ecx,%esi
10004b20:	69 c0 01 01 01 01    	imul   $0x1010101,%eax,%eax
10004b26:	57                   	push   %edi
10004b27:	8b 7d 08             	mov    0x8(%ebp),%edi
10004b2a:	c1 e9 02             	shr    $0x2,%ecx
10004b2d:	f3 ab                	rep stos %eax,%es:(%edi)
10004b2f:	8b ce                	mov    %esi,%ecx
10004b31:	83 e1 03             	and    $0x3,%ecx
10004b34:	f3 aa                	rep stos %al,%es:(%edi)
10004b36:	5f                   	pop    %edi
10004b37:	5e                   	pop    %esi
10004b38:	8b 45 08             	mov    0x8(%ebp),%eax
10004b3b:	5d                   	pop    %ebp
10004b3c:	c3                   	ret    
10004b3d:	55                   	push   %ebp
10004b3e:	8b ec                	mov    %esp,%ebp
10004b40:	83 ec 48             	sub    $0x48,%esp
10004b43:	56                   	push   %esi
10004b44:	c7 45 b8 19 04 00 00 	movl   $0x419,-0x48(%ebp)
10004b4b:	c7 45 bc 22 04 00 00 	movl   $0x422,-0x44(%ebp)
10004b52:	c7 45 c0 23 04 00 00 	movl   $0x423,-0x40(%ebp)
10004b59:	c7 45 c4 28 04 00 00 	movl   $0x428,-0x3c(%ebp)
10004b60:	c7 45 c8 2b 04 00 00 	movl   $0x42b,-0x38(%ebp)
10004b67:	c7 45 cc 2c 04 00 00 	movl   $0x42c,-0x34(%ebp)
10004b6e:	c7 45 d0 37 04 00 00 	movl   $0x437,-0x30(%ebp)
10004b75:	c7 45 d4 3f 04 00 00 	movl   $0x43f,-0x2c(%ebp)
10004b7c:	c7 45 d8 40 04 00 00 	movl   $0x440,-0x28(%ebp)
10004b83:	c7 45 dc 42 04 00 00 	movl   $0x442,-0x24(%ebp)
10004b8a:	c7 45 e0 43 04 00 00 	movl   $0x443,-0x20(%ebp)
10004b91:	c7 45 e4 44 04 00 00 	movl   $0x444,-0x1c(%ebp)
10004b98:	c7 45 e8 18 08 00 00 	movl   $0x818,-0x18(%ebp)
10004b9f:	c7 45 ec 19 08 00 00 	movl   $0x819,-0x14(%ebp)
10004ba6:	c7 45 f0 2c 08 00 00 	movl   $0x82c,-0x10(%ebp)
10004bad:	c7 45 f4 43 08 00 00 	movl   $0x843,-0xc(%ebp)
10004bb4:	c7 45 f8 5a 04 00 00 	movl   $0x45a,-0x8(%ebp)
10004bbb:	c7 45 fc 01 28 00 00 	movl   $0x2801,-0x4(%ebp)
10004bc2:	ff 15 98 21 01 10    	call   *0x10012198
10004bc8:	0f b7 f0             	movzwl %ax,%esi
10004bcb:	ff 15 e4 21 01 10    	call   *0x100121e4
10004bd1:	0f b7 c8             	movzwl %ax,%ecx
10004bd4:	33 c0                	xor    %eax,%eax
10004bd6:	39 74 85 b8          	cmp    %esi,-0x48(%ebp,%eax,4)
10004bda:	74 10                	je     0x10004bec
10004bdc:	39 4c 85 b8          	cmp    %ecx,-0x48(%ebp,%eax,4)
10004be0:	74 0a                	je     0x10004bec
10004be2:	40                   	inc    %eax
10004be3:	83 f8 12             	cmp    $0x12,%eax
10004be6:	72 ee                	jb     0x10004bd6
10004be8:	33 c0                	xor    %eax,%eax
10004bea:	eb 03                	jmp    0x10004bef
10004bec:	33 c0                	xor    %eax,%eax
10004bee:	40                   	inc    %eax
10004bef:	5e                   	pop    %esi
10004bf0:	8b e5                	mov    %ebp,%esp
10004bf2:	5d                   	pop    %ebp
10004bf3:	c3                   	ret    
10004bf4:	55                   	push   %ebp
10004bf5:	8b ec                	mov    %esp,%ebp
10004bf7:	51                   	push   %ecx
10004bf8:	83 65 fc 00          	andl   $0x0,-0x4(%ebp)
10004bfc:	56                   	push   %esi
10004bfd:	ff 75 08             	pushl  0x8(%ebp)
10004c00:	6a 00                	push   $0x0
10004c02:	68 00 04 00 00       	push   $0x400
10004c07:	ff 15 18 22 01 10    	call   *0x10012218
10004c0d:	8b f0                	mov    %eax,%esi
10004c0f:	85 f6                	test   %esi,%esi
10004c11:	74 29                	je     0x10004c3c
10004c13:	8d 45 fc             	lea    -0x4(%ebp),%eax
10004c16:	50                   	push   %eax
10004c17:	56                   	push   %esi
10004c18:	ff 15 24 d0 00 10    	call   *0x1000d024
10004c1e:	68 e8 03 00 00       	push   $0x3e8
10004c23:	ff 15 24 22 01 10    	call   *0x10012224
10004c29:	81 7d fc 03 01 00 00 	cmpl   $0x103,-0x4(%ebp)
10004c30:	74 e1                	je     0x10004c13
10004c32:	56                   	push   %esi
10004c33:	ff 15 00 d0 00 10    	call   *0x1000d000
10004c39:	33 c0                	xor    %eax,%eax
10004c3b:	40                   	inc    %eax
10004c3c:	5e                   	pop    %esi
10004c3d:	8b e5                	mov    %ebp,%esp
10004c3f:	5d                   	pop    %ebp
10004c40:	c3                   	ret    
10004c41:	55                   	push   %ebp
10004c42:	8b ec                	mov    %esp,%ebp
10004c44:	51                   	push   %ecx
10004c45:	a1 9c 2d 01 10       	mov    0x10012d9c,%eax
10004c4a:	b9 00 08 00 00       	mov    $0x800,%ecx
10004c4f:	89 4d fc             	mov    %ecx,-0x4(%ebp)
10004c52:	51                   	push   %ecx
10004c53:	85 c0                	test   %eax,%eax
10004c55:	75 0d                	jne    0x10004c64
10004c57:	e8 2c fe ff ff       	call   0x10004a88
10004c5c:	59                   	pop    %ecx
10004c5d:	a3 9c 2d 01 10       	mov    %eax,0x10012d9c
10004c62:	eb 0b                	jmp    0x10004c6f
10004c64:	6a 00                	push   $0x0
10004c66:	50                   	push   %eax
10004c67:	e8 a3 fe ff ff       	call   0x10004b0f
10004c6c:	83 c4 0c             	add    $0xc,%esp
10004c6f:	56                   	push   %esi
10004c70:	ff 75 08             	pushl  0x8(%ebp)
10004c73:	6a 00                	push   $0x0
10004c75:	68 00 10 00 00       	push   $0x1000
10004c7a:	ff 15 18 22 01 10    	call   *0x10012218
10004c80:	8b f0                	mov    %eax,%esi
10004c82:	85 f6                	test   %esi,%esi
10004c84:	74 72                	je     0x10004cf8
10004c86:	8d 45 fc             	lea    -0x4(%ebp),%eax
10004c89:	50                   	push   %eax
10004c8a:	ff 35 9c 2d 01 10    	pushl  0x10012d9c
10004c90:	6a 00                	push   $0x0
10004c92:	56                   	push   %esi
10004c93:	ff 15 b4 22 01 10    	call   *0x100122b4
10004c99:	56                   	push   %esi
10004c9a:	e8 5f 01 00 00       	call   0x10004dfe
10004c9f:	59                   	pop    %ecx
10004ca0:	ff 35 9c 2d 01 10    	pushl  0x10012d9c
10004ca6:	ff 15 d8 22 01 10    	call   *0x100122d8
10004cac:	8b f0                	mov    %eax,%esi
10004cae:	68 64 d3 00 10       	push   $0x1000d364
10004cb3:	56                   	push   %esi
10004cb4:	e8 68 17 00 00       	call   0x10006421
10004cb9:	59                   	pop    %ecx
10004cba:	59                   	pop    %ecx
10004cbb:	85 c0                	test   %eax,%eax
10004cbd:	75 05                	jne    0x10004cc4
10004cbf:	33 c0                	xor    %eax,%eax
10004cc1:	40                   	inc    %eax
10004cc2:	eb 34                	jmp    0x10004cf8
10004cc4:	68 80 d3 00 10       	push   $0x1000d380
10004cc9:	56                   	push   %esi
10004cca:	e8 52 17 00 00       	call   0x10006421
10004ccf:	59                   	pop    %ecx
10004cd0:	59                   	pop    %ecx
10004cd1:	85 c0                	test   %eax,%eax
10004cd3:	74 ea                	je     0x10004cbf
10004cd5:	68 94 d3 00 10       	push   $0x1000d394
10004cda:	56                   	push   %esi
10004cdb:	e8 41 17 00 00       	call   0x10006421
10004ce0:	59                   	pop    %ecx
10004ce1:	59                   	pop    %ecx
10004ce2:	85 c0                	test   %eax,%eax
10004ce4:	74 d9                	je     0x10004cbf
10004ce6:	68 a8 d3 00 10       	push   $0x1000d3a8
10004ceb:	56                   	push   %esi
10004cec:	e8 30 17 00 00       	call   0x10006421
10004cf1:	f7 d8                	neg    %eax
10004cf3:	59                   	pop    %ecx
10004cf4:	1b c0                	sbb    %eax,%eax
10004cf6:	59                   	pop    %ecx
10004cf7:	40                   	inc    %eax
10004cf8:	5e                   	pop    %esi
10004cf9:	8b e5                	mov    %ebp,%esp
10004cfb:	5d                   	pop    %ebp
10004cfc:	c3                   	ret    
10004cfd:	55                   	push   %ebp
10004cfe:	8b ec                	mov    %esp,%ebp
10004d00:	51                   	push   %ecx
10004d01:	51                   	push   %ecx
10004d02:	53                   	push   %ebx
10004d03:	33 db                	xor    %ebx,%ebx
10004d05:	66 c7 45 fc 00 01    	movw   $0x100,-0x4(%ebp)
10004d0b:	89 5d f8             	mov    %ebx,-0x8(%ebp)
10004d0e:	39 1d 78 2d 01 10    	cmp    %ebx,0x10012d78
10004d14:	0f 85 8a 00 00 00    	jne    0x10004da4
10004d1a:	68 48 2d 01 10       	push   $0x10012d48
10004d1f:	53                   	push   %ebx
10004d20:	53                   	push   %ebx
10004d21:	53                   	push   %ebx
10004d22:	53                   	push   %ebx
10004d23:	53                   	push   %ebx
10004d24:	53                   	push   %ebx
10004d25:	53                   	push   %ebx
10004d26:	53                   	push   %ebx
10004d27:	6a 01                	push   $0x1
10004d29:	8d 45 f8             	lea    -0x8(%ebp),%eax
10004d2c:	50                   	push   %eax
10004d2d:	ff 15 a8 21 01 10    	call   *0x100121a8
10004d33:	85 c0                	test   %eax,%eax
10004d35:	75 08                	jne    0x10004d3f
10004d37:	83 c8 ff             	or     $0xffffffff,%eax
10004d3a:	e9 8d 00 00 00       	jmp    0x10004dcc
10004d3f:	57                   	push   %edi
10004d40:	6a 08                	push   $0x8
10004d42:	59                   	pop    %ecx
10004d43:	68 4c 2d 01 10       	push   $0x10012d4c
10004d48:	ba 7c 2d 01 10       	mov    $0x10012d7c,%edx
10004d4d:	33 c0                	xor    %eax,%eax
10004d4f:	53                   	push   %ebx
10004d50:	8b fa                	mov    %edx,%edi
10004d52:	f3 ab                	rep stos %eax,%es:(%edi)
10004d54:	a1 48 2d 01 10       	mov    0x10012d48,%eax
10004d59:	52                   	push   %edx
10004d5a:	6a 01                	push   $0x1
10004d5c:	c7 05 7c 2d 01 10 00 	movl   $0x10000000,0x10012d7c
10004d63:	00 00 10 
10004d66:	c7 05 80 2d 01 10 02 	movl   $0x2,0x10012d80
10004d6d:	00 00 00 
10004d70:	c7 05 84 2d 01 10 03 	movl   $0x3,0x10012d84
10004d77:	00 00 00 
10004d7a:	89 1d 90 2d 01 10    	mov    %ebx,0x10012d90
10004d80:	c7 05 94 2d 01 10 05 	movl   $0x5,0x10012d94
10004d87:	00 00 00 
10004d8a:	a3 98 2d 01 10       	mov    %eax,0x10012d98
10004d8f:	ff 15 d0 20 01 10    	call   *0x100120d0
10004d95:	5f                   	pop    %edi
10004d96:	85 c0                	test   %eax,%eax
10004d98:	75 9d                	jne    0x10004d37
10004d9a:	c7 05 78 2d 01 10 01 	movl   $0x1,0x10012d78
10004da1:	00 00 00 
10004da4:	53                   	push   %ebx
10004da5:	ff 35 4c 2d 01 10    	pushl  0x10012d4c
10004dab:	53                   	push   %ebx
10004dac:	53                   	push   %ebx
10004dad:	6a 04                	push   $0x4
10004daf:	6a 01                	push   $0x1
10004db1:	ff 75 08             	pushl  0x8(%ebp)
10004db4:	ff 15 fc 1f 01 10    	call   *0x10011ffc
10004dba:	8b c8                	mov    %eax,%ecx
10004dbc:	33 c0                	xor    %eax,%eax
10004dbe:	85 c9                	test   %ecx,%ecx
10004dc0:	75 03                	jne    0x10004dc5
10004dc2:	40                   	inc    %eax
10004dc3:	eb 07                	jmp    0x10004dcc
10004dc5:	83 f9 05             	cmp    $0x5,%ecx
10004dc8:	0f 94 c0             	sete   %al
10004dcb:	48                   	dec    %eax
10004dcc:	5b                   	pop    %ebx
10004dcd:	8b e5                	mov    %ebp,%esp
10004dcf:	5d                   	pop    %ebp
10004dd0:	c3                   	ret    
10004dd1:	55                   	push   %ebp
10004dd2:	8b ec                	mov    %esp,%ebp
10004dd4:	56                   	push   %esi
10004dd5:	8b 75 08             	mov    0x8(%ebp),%esi
10004dd8:	57                   	push   %edi
10004dd9:	8b 7d 0c             	mov    0xc(%ebp),%edi
10004ddc:	ff 36                	pushl  (%esi)
10004dde:	8d 47 24             	lea    0x24(%edi),%eax
10004de1:	50                   	push   %eax
10004de2:	e8 3a 16 00 00       	call   0x10006421
10004de7:	59                   	pop    %ecx
10004de8:	59                   	pop    %ecx
10004de9:	85 c0                	test   %eax,%eax
10004deb:	74 04                	je     0x10004df1
10004ded:	33 c0                	xor    %eax,%eax
10004def:	eb 09                	jmp    0x10004dfa
10004df1:	8b 47 08             	mov    0x8(%edi),%eax
10004df4:	89 46 04             	mov    %eax,0x4(%esi)
10004df7:	33 c0                	xor    %eax,%eax
10004df9:	40                   	inc    %eax
10004dfa:	5f                   	pop    %edi
10004dfb:	5e                   	pop    %esi
10004dfc:	5d                   	pop    %ebp
10004dfd:	c3                   	ret    
10004dfe:	55                   	push   %ebp
10004dff:	8b ec                	mov    %esp,%ebp
10004e01:	83 7d 08 00          	cmpl   $0x0,0x8(%ebp)
10004e05:	74 09                	je     0x10004e10
10004e07:	ff 75 08             	pushl  0x8(%ebp)
10004e0a:	ff 15 24 20 01 10    	call   *0x10012024
10004e10:	5d                   	pop    %ebp
10004e11:	c3                   	ret    
10004e12:	55                   	push   %ebp
10004e13:	8b ec                	mov    %esp,%ebp
10004e15:	ff 75 08             	pushl  0x8(%ebp)
10004e18:	ff 15 98 20 01 10    	call   *0x10012098
10004e1e:	5d                   	pop    %ebp
10004e1f:	c3                   	ret    
10004e20:	55                   	push   %ebp
10004e21:	8b ec                	mov    %esp,%ebp
10004e23:	ff 75 08             	pushl  0x8(%ebp)
10004e26:	ff 15 f4 20 01 10    	call   *0x100120f4
10004e2c:	50                   	push   %eax
10004e2d:	ff 15 9c 21 01 10    	call   *0x1001219c
10004e33:	5d                   	pop    %ebp
10004e34:	c3                   	ret    
10004e35:	55                   	push   %ebp
10004e36:	8b ec                	mov    %esp,%ebp
10004e38:	83 ec 18             	sub    $0x18,%esp
10004e3b:	53                   	push   %ebx
10004e3c:	56                   	push   %esi
10004e3d:	57                   	push   %edi
10004e3e:	8b 7d 08             	mov    0x8(%ebp),%edi
10004e41:	33 c0                	xor    %eax,%eax
10004e43:	89 45 fc             	mov    %eax,-0x4(%ebp)
10004e46:	89 7d f8             	mov    %edi,-0x8(%ebp)
10004e49:	05 02 00 00 80       	add    $0x80000002,%eax
10004e4e:	33 c9                	xor    %ecx,%ecx
10004e50:	53                   	push   %ebx
10004e51:	0f a2                	cpuid  
10004e53:	8b f3                	mov    %ebx,%esi
10004e55:	5b                   	pop    %ebx
10004e56:	8d 5d e8             	lea    -0x18(%ebp),%ebx
10004e59:	89 03                	mov    %eax,(%ebx)
10004e5b:	8b 45 fc             	mov    -0x4(%ebp),%eax
10004e5e:	89 73 04             	mov    %esi,0x4(%ebx)
10004e61:	40                   	inc    %eax
10004e62:	89 4b 08             	mov    %ecx,0x8(%ebx)
10004e65:	8b f3                	mov    %ebx,%esi
10004e67:	89 53 0c             	mov    %edx,0xc(%ebx)
10004e6a:	89 45 fc             	mov    %eax,-0x4(%ebp)
10004e6d:	a5                   	movsl  %ds:(%esi),%es:(%edi)
10004e6e:	a5                   	movsl  %ds:(%esi),%es:(%edi)
10004e6f:	a5                   	movsl  %ds:(%esi),%es:(%edi)
10004e70:	a5                   	movsl  %ds:(%esi),%es:(%edi)
10004e71:	8b 7d f8             	mov    -0x8(%ebp),%edi
10004e74:	83 c7 10             	add    $0x10,%edi
10004e77:	89 7d f8             	mov    %edi,-0x8(%ebp)
10004e7a:	83 f8 03             	cmp    $0x3,%eax
10004e7d:	7c ca                	jl     0x10004e49
10004e7f:	8b 45 08             	mov    0x8(%ebp),%eax
10004e82:	5f                   	pop    %edi
10004e83:	5e                   	pop    %esi
10004e84:	5b                   	pop    %ebx
10004e85:	8b e5                	mov    %ebp,%esp
10004e87:	5d                   	pop    %ebp
10004e88:	c3                   	ret    
10004e89:	55                   	push   %ebp
10004e8a:	8b ec                	mov    %esp,%ebp
10004e8c:	ff 75 08             	pushl  0x8(%ebp)
10004e8f:	ff 15 cc 22 01 10    	call   *0x100122cc
10004e95:	5d                   	pop    %ebp
10004e96:	c3                   	ret    
10004e97:	55                   	push   %ebp
10004e98:	8b ec                	mov    %esp,%ebp
10004e9a:	ff 75 08             	pushl  0x8(%ebp)
10004e9d:	ff 15 2c 20 01 10    	call   *0x1001202c
10004ea3:	5d                   	pop    %ebp
10004ea4:	c3                   	ret    
10004ea5:	55                   	push   %ebp
10004ea6:	8b ec                	mov    %esp,%ebp
10004ea8:	51                   	push   %ecx
10004ea9:	56                   	push   %esi
10004eaa:	6a 20                	push   $0x20
10004eac:	e8 d7 fb ff ff       	call   0x10004a88
10004eb1:	8b f0                	mov    %eax,%esi
10004eb3:	59                   	pop    %ecx
10004eb4:	85 f6                	test   %esi,%esi
10004eb6:	74 21                	je     0x10004ed9
10004eb8:	8d 45 fc             	lea    -0x4(%ebp),%eax
10004ebb:	c7 45 fc 10 00 00 00 	movl   $0x10,-0x4(%ebp)
10004ec2:	50                   	push   %eax
10004ec3:	56                   	push   %esi
10004ec4:	ff 15 1c 20 01 10    	call   *0x1001201c
10004eca:	85 c0                	test   %eax,%eax
10004ecc:	75 09                	jne    0x10004ed7
10004ece:	56                   	push   %esi
10004ecf:	e8 01 fc ff ff       	call   0x10004ad5
10004ed4:	59                   	pop    %ecx
10004ed5:	33 f6                	xor    %esi,%esi
10004ed7:	8b c6                	mov    %esi,%eax
10004ed9:	5e                   	pop    %esi
10004eda:	8b e5                	mov    %ebp,%esp
10004edc:	5d                   	pop    %ebp
10004edd:	c3                   	ret    
10004ede:	ff 25 30 22 01 10    	jmp    *0x10012230
10004ee4:	55                   	push   %ebp
10004ee5:	8b ec                	mov    %esp,%ebp
10004ee7:	83 ec 18             	sub    $0x18,%esp
10004eea:	53                   	push   %ebx
10004eeb:	56                   	push   %esi
10004eec:	57                   	push   %edi
10004eed:	33 d2                	xor    %edx,%edx
10004eef:	33 f6                	xor    %esi,%esi
10004ef1:	6a 5a                	push   $0x5a
10004ef3:	89 55 fc             	mov    %edx,-0x4(%ebp)
10004ef6:	33 db                	xor    %ebx,%ebx
10004ef8:	5f                   	pop    %edi
10004ef9:	85 db                	test   %ebx,%ebx
10004efb:	74 26                	je     0x10004f23
10004efd:	85 f6                	test   %esi,%esi
10004eff:	0f 84 ae 00 00 00    	je     0x10004fb3
10004f05:	6b c6 16             	imul   $0x16,%esi,%eax
10004f08:	50                   	push   %eax
10004f09:	e8 7a fb ff ff       	call   0x10004a88
10004f0e:	8b d0                	mov    %eax,%edx
10004f10:	89 55 fc             	mov    %edx,-0x4(%ebp)
10004f13:	59                   	pop    %ecx
10004f14:	85 d2                	test   %edx,%edx
10004f16:	0f 84 97 00 00 00    	je     0x10004fb3
10004f1c:	8b 45 08             	mov    0x8(%ebp),%eax
10004f1f:	89 30                	mov    %esi,(%eax)
10004f21:	33 f6                	xor    %esi,%esi
10004f23:	8b 0d 58 d3 00 10    	mov    0x1000d358,%ecx
10004f29:	a1 5c d3 00 10       	mov    0x1000d35c,%eax
10004f2e:	89 4d f0             	mov    %ecx,-0x10(%ebp)
10004f31:	89 45 f4             	mov    %eax,-0xc(%ebp)
10004f34:	66 3b cf             	cmp    %di,%cx
10004f37:	77 6c                	ja     0x10004fa5
10004f39:	6b c6 16             	imul   $0x16,%esi,%eax
10004f3c:	8d 7a 0e             	lea    0xe(%edx),%edi
10004f3f:	03 f8                	add    %eax,%edi
10004f41:	8d 45 f0             	lea    -0x10(%ebp),%eax
10004f44:	50                   	push   %eax
10004f45:	ff 15 8c 22 01 10    	call   *0x1001228c
10004f4b:	50                   	push   %eax
10004f4c:	89 45 f8             	mov    %eax,-0x8(%ebp)
10004f4f:	e8 ca 2a 00 00       	call   0x10007a1e
10004f54:	59                   	pop    %ecx
10004f55:	85 c0                	test   %eax,%eax
10004f57:	74 38                	je     0x10004f91
10004f59:	85 db                	test   %ebx,%ebx
10004f5b:	74 30                	je     0x10004f8d
10004f5d:	66 8b 45 f0          	mov    -0x10(%ebp),%ax
10004f61:	66 89 47 f2          	mov    %ax,-0xe(%edi)
10004f65:	8b 45 f8             	mov    -0x8(%ebp),%eax
10004f68:	89 47 f4             	mov    %eax,-0xc(%edi)
10004f6b:	8d 47 f8             	lea    -0x8(%edi),%eax
10004f6e:	57                   	push   %edi
10004f6f:	50                   	push   %eax
10004f70:	8d 45 e8             	lea    -0x18(%ebp),%eax
10004f73:	50                   	push   %eax
10004f74:	8d 45 f0             	lea    -0x10(%ebp),%eax
10004f77:	50                   	push   %eax
10004f78:	ff 15 cc 21 01 10    	call   *0x100121cc
10004f7e:	85 c0                	test   %eax,%eax
10004f80:	75 0b                	jne    0x10004f8d
10004f82:	89 07                	mov    %eax,(%edi)
10004f84:	89 47 04             	mov    %eax,0x4(%edi)
10004f87:	89 47 f8             	mov    %eax,-0x8(%edi)
10004f8a:	89 47 fc             	mov    %eax,-0x4(%edi)
10004f8d:	46                   	inc    %esi
10004f8e:	83 c7 16             	add    $0x16,%edi
10004f91:	66 8b 45 f0          	mov    -0x10(%ebp),%ax
10004f95:	6a 5a                	push   $0x5a
10004f97:	66 40                	inc    %ax
10004f99:	59                   	pop    %ecx
10004f9a:	66 89 45 f0          	mov    %ax,-0x10(%ebp)
10004f9e:	66 3b c1             	cmp    %cx,%ax
10004fa1:	76 9e                	jbe    0x10004f41
10004fa3:	51                   	push   %ecx
10004fa4:	5f                   	pop    %edi
10004fa5:	8b 55 fc             	mov    -0x4(%ebp),%edx
10004fa8:	43                   	inc    %ebx
10004fa9:	83 fb 01             	cmp    $0x1,%ebx
10004fac:	7f 0b                	jg     0x10004fb9
10004fae:	e9 46 ff ff ff       	jmp    0x10004ef9
10004fb3:	8b 45 08             	mov    0x8(%ebp),%eax
10004fb6:	83 20 00             	andl   $0x0,(%eax)
10004fb9:	5f                   	pop    %edi
10004fba:	5e                   	pop    %esi
10004fbb:	8b c2                	mov    %edx,%eax
10004fbd:	5b                   	pop    %ebx
10004fbe:	8b e5                	mov    %ebp,%esp
10004fc0:	5d                   	pop    %ebp
10004fc1:	c3                   	ret    
10004fc2:	55                   	push   %ebp
10004fc3:	8b ec                	mov    %esp,%ebp
10004fc5:	83 ec 0c             	sub    $0xc,%esp
10004fc8:	83 65 fc 00          	andl   $0x0,-0x4(%ebp)
10004fcc:	8d 45 f8             	lea    -0x8(%ebp),%eax
10004fcf:	50                   	push   %eax
10004fd0:	6a 08                	push   $0x8
10004fd2:	ff 75 08             	pushl  0x8(%ebp)
10004fd5:	ff 15 c4 20 01 10    	call   *0x100120c4
10004fdb:	85 c0                	test   %eax,%eax
10004fdd:	74 25                	je     0x10005004
10004fdf:	8d 45 f4             	lea    -0xc(%ebp),%eax
10004fe2:	50                   	push   %eax
10004fe3:	6a 04                	push   $0x4
10004fe5:	8d 45 fc             	lea    -0x4(%ebp),%eax
10004fe8:	50                   	push   %eax
10004fe9:	6a 12                	push   $0x12
10004feb:	ff 75 f8             	pushl  -0x8(%ebp)
10004fee:	ff 15 08 22 01 10    	call   *0x10012208
10004ff4:	ff 75 f8             	pushl  -0x8(%ebp)
10004ff7:	f7 d8                	neg    %eax
10004ff9:	1b c0                	sbb    %eax,%eax
10004ffb:	21 45 fc             	and    %eax,-0x4(%ebp)
10004ffe:	e8 fb fd ff ff       	call   0x10004dfe
10005003:	59                   	pop    %ecx
10005004:	8b 45 fc             	mov    -0x4(%ebp),%eax
10005007:	8b e5                	mov    %ebp,%esp
10005009:	5d                   	pop    %ebp
1000500a:	c3                   	ret    
1000500b:	55                   	push   %ebp
1000500c:	8b ec                	mov    %esp,%ebp
1000500e:	81 ec 94 00 00 00    	sub    $0x94,%esp
10005014:	53                   	push   %ebx
10005015:	56                   	push   %esi
10005016:	57                   	push   %edi
10005017:	8d 85 6c ff ff ff    	lea    -0x94(%ebp),%eax
1000501d:	bb e0 22 01 10       	mov    $0x100122e0,%ebx
10005022:	50                   	push   %eax
10005023:	6a 64                	push   $0x64
10005025:	6a 06                	push   $0x6
10005027:	68 75 08 00 00       	push   $0x875
1000502c:	53                   	push   %ebx
1000502d:	e8 8b 10 00 00       	call   0x100060bd
10005032:	33 c0                	xor    %eax,%eax
10005034:	66 89 45 d0          	mov    %ax,-0x30(%ebp)
10005038:	8d 45 e8             	lea    -0x18(%ebp),%eax
1000503b:	50                   	push   %eax
1000503c:	6a 0c                	push   $0xc
1000503e:	6a 07                	push   $0x7
10005040:	68 79 09 00 00       	push   $0x979
10005045:	53                   	push   %ebx
10005046:	e8 72 10 00 00       	call   0x100060bd
1000504b:	33 c0                	xor    %eax,%eax
1000504d:	33 ff                	xor    %edi,%edi
1000504f:	66 89 45 f4          	mov    %ax,-0xc(%ebp)
10005053:	8d 45 fc             	lea    -0x4(%ebp),%eax
10005056:	50                   	push   %eax
10005057:	8d 45 f8             	lea    -0x8(%ebp),%eax
1000505a:	89 7d fc             	mov    %edi,-0x4(%ebp)
1000505d:	50                   	push   %eax
1000505e:	8d 45 e8             	lea    -0x18(%ebp),%eax
10005061:	50                   	push   %eax
10005062:	8d 85 6c ff ff ff    	lea    -0x94(%ebp),%eax
10005068:	50                   	push   %eax
10005069:	68 02 00 00 80       	push   $0x80000002
1000506e:	e8 71 07 00 00       	call   0x100057e4
10005073:	8b f0                	mov    %eax,%esi
10005075:	83 c4 3c             	add    $0x3c,%esp
10005078:	85 f6                	test   %esi,%esi
1000507a:	75 04                	jne    0x10005080
1000507c:	33 c0                	xor    %eax,%eax
1000507e:	eb 43                	jmp    0x100050c3
10005080:	83 7d f8 01          	cmpl   $0x1,-0x8(%ebp)
10005084:	74 09                	je     0x1000508f
10005086:	56                   	push   %esi
10005087:	e8 49 fa ff ff       	call   0x10004ad5
1000508c:	59                   	pop    %ecx
1000508d:	eb ed                	jmp    0x1000507c
1000508f:	66 39 3e             	cmp    %di,(%esi)
10005092:	75 2d                	jne    0x100050c1
10005094:	8d 45 d4             	lea    -0x2c(%ebp),%eax
10005097:	50                   	push   %eax
10005098:	6a 12                	push   $0x12
1000509a:	6a 0c                	push   $0xc
1000509c:	68 51 03 00 00       	push   $0x351
100050a1:	53                   	push   %ebx
100050a2:	e8 16 10 00 00       	call   0x100060bd
100050a7:	33 c0                	xor    %eax,%eax
100050a9:	56                   	push   %esi
100050aa:	66 89 45 e6          	mov    %ax,-0x1a(%ebp)
100050ae:	e8 22 fa ff ff       	call   0x10004ad5
100050b3:	8d 45 d4             	lea    -0x2c(%ebp),%eax
100050b6:	50                   	push   %eax
100050b7:	e8 21 14 00 00       	call   0x100064dd
100050bc:	83 c4 1c             	add    $0x1c,%esp
100050bf:	8b f0                	mov    %eax,%esi
100050c1:	8b c6                	mov    %esi,%eax
100050c3:	5f                   	pop    %edi
100050c4:	5e                   	pop    %esi
100050c5:	5b                   	pop    %ebx
100050c6:	8b e5                	mov    %ebp,%esp
100050c8:	5d                   	pop    %ebp
100050c9:	c3                   	ret    
100050ca:	55                   	push   %ebp
100050cb:	8b ec                	mov    %esp,%ebp
100050cd:	83 ec 54             	sub    $0x54,%esp
100050d0:	8d 45 fc             	lea    -0x4(%ebp),%eax
100050d3:	57                   	push   %edi
100050d4:	50                   	push   %eax
100050d5:	6a 08                	push   $0x8
100050d7:	ff 75 08             	pushl  0x8(%ebp)
100050da:	33 ff                	xor    %edi,%edi
100050dc:	ff 15 c4 20 01 10    	call   *0x100120c4
100050e2:	85 c0                	test   %eax,%eax
100050e4:	74 3a                	je     0x10005120
100050e6:	8d 45 f8             	lea    -0x8(%ebp),%eax
100050e9:	50                   	push   %eax
100050ea:	6a 4c                	push   $0x4c
100050ec:	8d 45 ac             	lea    -0x54(%ebp),%eax
100050ef:	50                   	push   %eax
100050f0:	6a 19                	push   $0x19
100050f2:	ff 75 fc             	pushl  -0x4(%ebp)
100050f5:	ff 15 08 22 01 10    	call   *0x10012208
100050fb:	85 c0                	test   %eax,%eax
100050fd:	74 18                	je     0x10005117
100050ff:	56                   	push   %esi
10005100:	8b 75 ac             	mov    -0x54(%ebp),%esi
10005103:	56                   	push   %esi
10005104:	ff 15 24 21 01 10    	call   *0x10012124
1000510a:	85 c0                	test   %eax,%eax
1000510c:	74 08                	je     0x10005116
1000510e:	0f b6 46 01          	movzbl 0x1(%esi),%eax
10005112:	8b 7c 86 04          	mov    0x4(%esi,%eax,4),%edi
10005116:	5e                   	pop    %esi
10005117:	ff 75 fc             	pushl  -0x4(%ebp)
1000511a:	e8 df fc ff ff       	call   0x10004dfe
1000511f:	59                   	pop    %ecx
10005120:	8b c7                	mov    %edi,%eax
10005122:	5f                   	pop    %edi
10005123:	8b e5                	mov    %ebp,%esp
10005125:	5d                   	pop    %ebp
10005126:	c3                   	ret    
10005127:	55                   	push   %ebp
10005128:	8b ec                	mov    %esp,%ebp
1000512a:	83 ec 58             	sub    $0x58,%esp
1000512d:	56                   	push   %esi
1000512e:	8d 45 a8             	lea    -0x58(%ebp),%eax
10005131:	be e0 22 01 10       	mov    $0x100122e0,%esi
10005136:	50                   	push   %eax
10005137:	6a 36                	push   $0x36
10005139:	6a 0c                	push   $0xc
1000513b:	68 a4 06 00 00       	push   $0x6a4
10005140:	56                   	push   %esi
10005141:	e8 77 0f 00 00       	call   0x100060bd
10005146:	33 c0                	xor    %eax,%eax
10005148:	66 89 45 de          	mov    %ax,-0x22(%ebp)
1000514c:	8d 45 e0             	lea    -0x20(%ebp),%eax
1000514f:	50                   	push   %eax
10005150:	6a 14                	push   $0x14
10005152:	6a 08                	push   $0x8
10005154:	68 58 09 00 00       	push   $0x958
10005159:	56                   	push   %esi
1000515a:	e8 5e 0f 00 00       	call   0x100060bd
1000515f:	33 c0                	xor    %eax,%eax
10005161:	21 45 fc             	and    %eax,-0x4(%ebp)
10005164:	66 89 45 f4          	mov    %ax,-0xc(%ebp)
10005168:	8d 45 fc             	lea    -0x4(%ebp),%eax
1000516b:	50                   	push   %eax
1000516c:	8d 45 f8             	lea    -0x8(%ebp),%eax
1000516f:	50                   	push   %eax
10005170:	8d 45 e0             	lea    -0x20(%ebp),%eax
10005173:	50                   	push   %eax
10005174:	8d 45 a8             	lea    -0x58(%ebp),%eax
10005177:	50                   	push   %eax
10005178:	68 01 00 00 80       	push   $0x80000001
1000517d:	e8 62 06 00 00       	call   0x100057e4
10005182:	83 c4 3c             	add    $0x3c,%esp
10005185:	5e                   	pop    %esi
10005186:	85 c0                	test   %eax,%eax
10005188:	74 0d                	je     0x10005197
1000518a:	83 7d f8 01          	cmpl   $0x1,-0x8(%ebp)
1000518e:	74 09                	je     0x10005199
10005190:	50                   	push   %eax
10005191:	e8 3f f9 ff ff       	call   0x10004ad5
10005196:	59                   	pop    %ecx
10005197:	33 c0                	xor    %eax,%eax
10005199:	8b e5                	mov    %ebp,%esp
1000519b:	5d                   	pop    %ebp
1000519c:	c3                   	ret    
1000519d:	55                   	push   %ebp
1000519e:	8b ec                	mov    %esp,%ebp
100051a0:	56                   	push   %esi
100051a1:	57                   	push   %edi
100051a2:	68 0c 02 00 00       	push   $0x20c
100051a7:	bf 06 01 00 00       	mov    $0x106,%edi
100051ac:	e8 d7 f8 ff ff       	call   0x10004a88
100051b1:	8b f0                	mov    %eax,%esi
100051b3:	59                   	pop    %ecx
100051b4:	85 f6                	test   %esi,%esi
100051b6:	74 3e                	je     0x100051f6
100051b8:	53                   	push   %ebx
100051b9:	8b 5d 0c             	mov    0xc(%ebp),%ebx
100051bc:	57                   	push   %edi
100051bd:	56                   	push   %esi
100051be:	ff 75 08             	pushl  0x8(%ebp)
100051c1:	ff 15 6c 20 01 10    	call   *0x1001206c
100051c7:	89 03                	mov    %eax,(%ebx)
100051c9:	3b c7                	cmp    %edi,%eax
100051cb:	75 1b                	jne    0x100051e8
100051cd:	56                   	push   %esi
100051ce:	e8 02 f9 ff ff       	call   0x10004ad5
100051d3:	03 ff                	add    %edi,%edi
100051d5:	8d 04 3f             	lea    (%edi,%edi,1),%eax
100051d8:	50                   	push   %eax
100051d9:	e8 aa f8 ff ff       	call   0x10004a88
100051de:	8b f0                	mov    %eax,%esi
100051e0:	59                   	pop    %ecx
100051e1:	59                   	pop    %ecx
100051e2:	85 f6                	test   %esi,%esi
100051e4:	75 d6                	jne    0x100051bc
100051e6:	eb 0d                	jmp    0x100051f5
100051e8:	85 c0                	test   %eax,%eax
100051ea:	75 09                	jne    0x100051f5
100051ec:	56                   	push   %esi
100051ed:	e8 e3 f8 ff ff       	call   0x10004ad5
100051f2:	59                   	pop    %ecx
100051f3:	33 f6                	xor    %esi,%esi
100051f5:	5b                   	pop    %ebx
100051f6:	5f                   	pop    %edi
100051f7:	8b c6                	mov    %esi,%eax
100051f9:	5e                   	pop    %esi
100051fa:	5d                   	pop    %ebp
100051fb:	c3                   	ret    
100051fc:	55                   	push   %ebp
100051fd:	8b ec                	mov    %esp,%ebp
100051ff:	83 ec 58             	sub    $0x58,%esp
10005202:	57                   	push   %edi
10005203:	6a 22                	push   $0x22
10005205:	e8 7e f8 ff ff       	call   0x10004a88
1000520a:	8b f8                	mov    %eax,%edi
1000520c:	59                   	pop    %ecx
1000520d:	85 ff                	test   %edi,%edi
1000520f:	74 7d                	je     0x1000528e
10005211:	56                   	push   %esi
10005212:	e8 5f 07 00 00       	call   0x10005976
10005217:	89 45 fc             	mov    %eax,-0x4(%ebp)
1000521a:	8d 45 fc             	lea    -0x4(%ebp),%eax
1000521d:	6a 04                	push   $0x4
1000521f:	50                   	push   %eax
10005220:	68 39 05 00 00       	push   $0x539
10005225:	e8 16 1a 00 00       	call   0x10006c40
1000522a:	6a 40                	push   $0x40
1000522c:	8b f0                	mov    %eax,%esi
1000522e:	8d 45 a8             	lea    -0x58(%ebp),%eax
10005231:	6a 00                	push   $0x0
10005233:	50                   	push   %eax
10005234:	e8 d6 f8 ff ff       	call   0x10004b0f
10005239:	8d 45 a8             	lea    -0x58(%ebp),%eax
1000523c:	50                   	push   %eax
1000523d:	e8 f3 fb ff ff       	call   0x10004e35
10005242:	8d 45 e8             	lea    -0x18(%ebp),%eax
10005245:	50                   	push   %eax
10005246:	6a 10                	push   $0x10
10005248:	6a 07                	push   $0x7
1000524a:	68 0e 04 00 00       	push   $0x40e
1000524f:	68 e0 22 01 10       	push   $0x100122e0
10005254:	e8 64 0e 00 00       	call   0x100060bd
10005259:	83 c4 30             	add    $0x30,%esp
1000525c:	33 c0                	xor    %eax,%eax
1000525e:	66 89 45 f8          	mov    %ax,-0x8(%ebp)
10005262:	8d 45 a8             	lea    -0x58(%ebp),%eax
10005265:	ff 75 fc             	pushl  -0x4(%ebp)
10005268:	50                   	push   %eax
10005269:	e8 aa 12 00 00       	call   0x10006518
1000526e:	50                   	push   %eax
1000526f:	8d 45 a8             	lea    -0x58(%ebp),%eax
10005272:	50                   	push   %eax
10005273:	56                   	push   %esi
10005274:	e8 c7 19 00 00       	call   0x10006c40
10005279:	83 c4 10             	add    $0x10,%esp
1000527c:	50                   	push   %eax
1000527d:	8d 45 e8             	lea    -0x18(%ebp),%eax
10005280:	50                   	push   %eax
10005281:	57                   	push   %edi
10005282:	ff 15 50 22 01 10    	call   *0x10012250
10005288:	83 c4 10             	add    $0x10,%esp
1000528b:	8b c7                	mov    %edi,%eax
1000528d:	5e                   	pop    %esi
1000528e:	5f                   	pop    %edi
1000528f:	8b e5                	mov    %ebp,%esp
10005291:	5d                   	pop    %ebp
10005292:	c3                   	ret    
10005293:	64 a1 30 00 00 00    	mov    %fs:0x30,%eax
10005299:	c3                   	ret    
1000529a:	55                   	push   %ebp
1000529b:	8b ec                	mov    %esp,%ebp
1000529d:	51                   	push   %ecx
1000529e:	51                   	push   %ecx
1000529f:	8b 45 08             	mov    0x8(%ebp),%eax
100052a2:	83 4d fc ff          	orl    $0xffffffff,-0x4(%ebp)
100052a6:	89 45 f8             	mov    %eax,-0x8(%ebp)
100052a9:	8d 45 f8             	lea    -0x8(%ebp),%eax
100052ac:	68 d1 4d 00 10       	push   $0x10004dd1
100052b1:	50                   	push   %eax
100052b2:	6a 01                	push   $0x1
100052b4:	e8 c5 03 00 00       	call   0x1000567e
100052b9:	8b 45 fc             	mov    -0x4(%ebp),%eax
100052bc:	83 c4 0c             	add    $0xc,%esp
100052bf:	8b e5                	mov    %ebp,%esp
100052c1:	5d                   	pop    %ebp
100052c2:	c3                   	ret    
100052c3:	55                   	push   %ebp
100052c4:	8b ec                	mov    %esp,%ebp
100052c6:	83 ec 7c             	sub    $0x7c,%esp
100052c9:	56                   	push   %esi
100052ca:	8d 45 84             	lea    -0x7c(%ebp),%eax
100052cd:	be e0 22 01 10       	mov    $0x100122e0,%esi
100052d2:	50                   	push   %eax
100052d3:	6a 58                	push   $0x58
100052d5:	6a 0b                	push   $0xb
100052d7:	68 ef 08 00 00       	push   $0x8ef
100052dc:	56                   	push   %esi
100052dd:	e8 db 0d 00 00       	call   0x100060bd
100052e2:	33 c0                	xor    %eax,%eax
100052e4:	66 89 45 dc          	mov    %ax,-0x24(%ebp)
100052e8:	8d 45 e0             	lea    -0x20(%ebp),%eax
100052eb:	50                   	push   %eax
100052ec:	6a 16                	push   $0x16
100052ee:	6a 0f                	push   $0xf
100052f0:	68 0c 08 00 00       	push   $0x80c
100052f5:	56                   	push   %esi
100052f6:	e8 c2 0d 00 00       	call   0x100060bd
100052fb:	33 c0                	xor    %eax,%eax
100052fd:	21 45 fc             	and    %eax,-0x4(%ebp)
10005300:	66 89 45 f6          	mov    %ax,-0xa(%ebp)
10005304:	8d 45 fc             	lea    -0x4(%ebp),%eax
10005307:	50                   	push   %eax
10005308:	8d 45 f8             	lea    -0x8(%ebp),%eax
1000530b:	50                   	push   %eax
1000530c:	8d 45 e0             	lea    -0x20(%ebp),%eax
1000530f:	50                   	push   %eax
10005310:	8d 45 84             	lea    -0x7c(%ebp),%eax
10005313:	50                   	push   %eax
10005314:	68 02 00 00 80       	push   $0x80000002
10005319:	e8 c6 04 00 00       	call   0x100057e4
1000531e:	83 c4 3c             	add    $0x3c,%esp
10005321:	5e                   	pop    %esi
10005322:	85 c0                	test   %eax,%eax
10005324:	74 0d                	je     0x10005333
10005326:	83 7d f8 01          	cmpl   $0x1,-0x8(%ebp)
1000532a:	74 09                	je     0x10005335
1000532c:	50                   	push   %eax
1000532d:	e8 a3 f7 ff ff       	call   0x10004ad5
10005332:	59                   	pop    %ecx
10005333:	33 c0                	xor    %eax,%eax
10005335:	8b e5                	mov    %ebp,%esp
10005337:	5d                   	pop    %ebp
10005338:	c3                   	ret    
10005339:	55                   	push   %ebp
1000533a:	8b ec                	mov    %esp,%ebp
1000533c:	51                   	push   %ecx
1000533d:	56                   	push   %esi
1000533e:	68 02 02 00 00       	push   $0x202
10005343:	e8 40 f7 ff ff       	call   0x10004a88
10005348:	8b f0                	mov    %eax,%esi
1000534a:	59                   	pop    %ecx
1000534b:	85 f6                	test   %esi,%esi
1000534d:	74 21                	je     0x10005370
1000534f:	8d 45 fc             	lea    -0x4(%ebp),%eax
10005352:	c7 45 fc 01 01 00 00 	movl   $0x101,-0x4(%ebp)
10005359:	50                   	push   %eax
1000535a:	56                   	push   %esi
1000535b:	ff 15 c0 21 01 10    	call   *0x100121c0
10005361:	85 c0                	test   %eax,%eax
10005363:	75 09                	jne    0x1000536e
10005365:	56                   	push   %esi
10005366:	e8 6a f7 ff ff       	call   0x10004ad5
1000536b:	59                   	pop    %ecx
1000536c:	33 f6                	xor    %esi,%esi
1000536e:	8b c6                	mov    %esi,%eax
10005370:	5e                   	pop    %esi
10005371:	8b e5                	mov    %ebp,%esp
10005373:	5d                   	pop    %ebp
10005374:	c3                   	ret    
10005375:	55                   	push   %ebp
10005376:	8b ec                	mov    %esp,%ebp
10005378:	83 ec 1c             	sub    $0x1c,%esp
1000537b:	56                   	push   %esi
1000537c:	8d 45 e4             	lea    -0x1c(%ebp),%eax
1000537f:	50                   	push   %eax
10005380:	6a 18                	push   $0x18
10005382:	6a 0b                	push   $0xb
10005384:	68 12 07 00 00       	push   $0x712
10005389:	68 e0 22 01 10       	push   $0x100122e0
1000538e:	e8 2a 0d 00 00       	call   0x100060bd
10005393:	33 c0                	xor    %eax,%eax
10005395:	83 c4 14             	add    $0x14,%esp
10005398:	66 89 45 fc          	mov    %ax,-0x4(%ebp)
1000539c:	39 05 64 2d 01 10    	cmp    %eax,0x10012d64
100053a2:	75 4a                	jne    0x100053ee
100053a4:	8d 45 e4             	lea    -0x1c(%ebp),%eax
100053a7:	50                   	push   %eax
100053a8:	e8 ed fe ff ff       	call   0x1000529a
100053ad:	59                   	pop    %ecx
100053ae:	50                   	push   %eax
100053af:	6a 00                	push   $0x0
100053b1:	68 00 00 00 02       	push   $0x2000000
100053b6:	ff 15 18 22 01 10    	call   *0x10012218
100053bc:	8b f0                	mov    %eax,%esi
100053be:	85 f6                	test   %esi,%esi
100053c0:	75 04                	jne    0x100053c6
100053c2:	33 c0                	xor    %eax,%eax
100053c4:	eb 3a                	jmp    0x10005400
100053c6:	68 68 2d 01 10       	push   $0x10012d68
100053cb:	68 ff 01 0f 00       	push   $0xf01ff
100053d0:	56                   	push   %esi
100053d1:	ff 15 c4 20 01 10    	call   *0x100120c4
100053d7:	85 c0                	test   %eax,%eax
100053d9:	75 09                	jne    0x100053e4
100053db:	56                   	push   %esi
100053dc:	e8 1d fa ff ff       	call   0x10004dfe
100053e1:	59                   	pop    %ecx
100053e2:	eb de                	jmp    0x100053c2
100053e4:	c7 05 64 2d 01 10 01 	movl   $0x1,0x10012d64
100053eb:	00 00 00 
100053ee:	ff 35 68 2d 01 10    	pushl  0x10012d68
100053f4:	ff 15 38 22 01 10    	call   *0x10012238
100053fa:	f7 d8                	neg    %eax
100053fc:	1b c0                	sbb    %eax,%eax
100053fe:	f7 d8                	neg    %eax
10005400:	5e                   	pop    %esi
10005401:	8b e5                	mov    %ebp,%esp
10005403:	5d                   	pop    %ebp
10005404:	c3                   	ret    
10005405:	ff 25 7c 22 01 10    	jmp    *0x1001227c
1000540b:	55                   	push   %ebp
1000540c:	8b ec                	mov    %esp,%ebp
1000540e:	ff 75 08             	pushl  0x8(%ebp)
10005411:	ff 15 10 21 01 10    	call   *0x10012110
10005417:	5d                   	pop    %ebp
10005418:	c3                   	ret    
10005419:	55                   	push   %ebp
1000541a:	8b ec                	mov    %esp,%ebp
1000541c:	51                   	push   %ecx
1000541d:	53                   	push   %ebx
1000541e:	56                   	push   %esi
1000541f:	57                   	push   %edi
10005420:	e8 18 f7 ff ff       	call   0x10004b3d
10005425:	33 f6                	xor    %esi,%esi
10005427:	89 45 fc             	mov    %eax,-0x4(%ebp)
1000542a:	56                   	push   %esi
1000542b:	56                   	push   %esi
1000542c:	ff 15 3c 22 01 10    	call   *0x1001223c
10005432:	8b f8                	mov    %eax,%edi
10005434:	85 ff                	test   %edi,%edi
10005436:	74 46                	je     0x1000547e
10005438:	8b cf                	mov    %edi,%ecx
1000543a:	c1 e1 02             	shl    $0x2,%ecx
1000543d:	51                   	push   %ecx
1000543e:	e8 45 f6 ff ff       	call   0x10004a88
10005443:	8b d8                	mov    %eax,%ebx
10005445:	59                   	pop    %ecx
10005446:	85 db                	test   %ebx,%ebx
10005448:	74 34                	je     0x1000547e
1000544a:	53                   	push   %ebx
1000544b:	57                   	push   %edi
1000544c:	ff 15 3c 22 01 10    	call   *0x1001223c
10005452:	85 c0                	test   %eax,%eax
10005454:	74 21                	je     0x10005477
10005456:	85 ff                	test   %edi,%edi
10005458:	7e 1d                	jle    0x10005477
1000545a:	8b 4d fc             	mov    -0x4(%ebp),%ecx
1000545d:	0f b7 04 b3          	movzwl (%ebx,%esi,4),%eax
10005461:	50                   	push   %eax
10005462:	e8 25 00 00 00       	call   0x1000548c
10005467:	83 c4 04             	add    $0x4,%esp
1000546a:	85 c0                	test   %eax,%eax
1000546c:	74 04                	je     0x10005472
1000546e:	85 c9                	test   %ecx,%ecx
10005470:	75 15                	jne    0x10005487
10005472:	46                   	inc    %esi
10005473:	3b f7                	cmp    %edi,%esi
10005475:	7c e6                	jl     0x1000545d
10005477:	53                   	push   %ebx
10005478:	e8 58 f6 ff ff       	call   0x10004ad5
1000547d:	59                   	pop    %ecx
1000547e:	33 c0                	xor    %eax,%eax
10005480:	5f                   	pop    %edi
10005481:	5e                   	pop    %esi
10005482:	5b                   	pop    %ebx
10005483:	8b e5                	mov    %ebp,%esp
10005485:	5d                   	pop    %ebp
10005486:	c3                   	ret    
10005487:	33 c0                	xor    %eax,%eax
10005489:	40                   	inc    %eax
1000548a:	eb f4                	jmp    0x10005480
1000548c:	55                   	push   %ebp
1000548d:	8b ec                	mov    %esp,%ebp
1000548f:	0f b6 45 08          	movzbl 0x8(%ebp),%eax
10005493:	83 c0 e8             	add    $0xffffffe8,%eax
10005496:	83 f8 2c             	cmp    $0x2c,%eax
10005499:	77 13                	ja     0x100054ae
1000549b:	0f b6 80 bc 54 00 10 	movzbl 0x100054bc(%eax),%eax
100054a2:	ff 24 85 b4 54 00 10 	jmp    *0x100054b4(,%eax,4)
100054a9:	33 c0                	xor    %eax,%eax
100054ab:	40                   	inc    %eax
100054ac:	5d                   	pop    %ebp
100054ad:	c3                   	ret    
100054ae:	33 c0                	xor    %eax,%eax
100054b0:	5d                   	pop    %ebp
100054b1:	c3                   	ret    
100054b2:	8b ff                	mov    %edi,%edi
100054b4:	a9 54 00 10 ae       	test   $0xae100054,%eax
100054b9:	54                   	push   %esp
100054ba:	00 10                	add    %dl,(%eax)
100054bc:	00 00                	add    %al,(%eax)
100054be:	01 01                	add    %eax,(%ecx)
100054c0:	01 01                	add    %eax,(%ecx)
100054c2:	01 01                	add    %eax,(%ecx)
100054c4:	01 01                	add    %eax,(%ecx)
100054c6:	00 00                	add    %al,(%eax)
100054c8:	01 00                	add    %eax,(%eax)
100054ca:	00 00                	add    %al,(%eax)
100054cc:	00 00                	add    %al,(%eax)
100054ce:	01 00                	add    %eax,(%eax)
100054d0:	00 01                	add    %al,(%ecx)
100054d2:	01 01                	add    %eax,(%ecx)
100054d4:	01 01                	add    %eax,(%ecx)
100054d6:	01 01                	add    %eax,(%ecx)
100054d8:	01 01                	add    %eax,(%ecx)
100054da:	01 00                	add    %eax,(%eax)
100054dc:	01 01                	add    %eax,(%ecx)
100054de:	01 01                	add    %eax,(%ecx)
100054e0:	01 01                	add    %eax,(%ecx)
100054e2:	01 00                	add    %eax,(%eax)
100054e4:	00 01                	add    %al,(%ecx)
100054e6:	00 00                	add    %al,(%eax)
100054e8:	00 55 8b             	add    %dl,-0x75(%ebp)
100054eb:	ec                   	in     (%dx),%al
100054ec:	83 ec 58             	sub    $0x58,%esp
100054ef:	56                   	push   %esi
100054f0:	8d 45 a8             	lea    -0x58(%ebp),%eax
100054f3:	50                   	push   %eax
100054f4:	6a 56                	push   $0x56
100054f6:	6a 0c                	push   $0xc
100054f8:	68 57 04 00 00       	push   $0x457
100054fd:	68 e0 22 01 10       	push   $0x100122e0
10005502:	e8 b6 0b 00 00       	call   0x100060bd
10005507:	83 c4 14             	add    $0x14,%esp
1000550a:	33 c0                	xor    %eax,%eax
1000550c:	66 89 45 fe          	mov    %ax,-0x2(%ebp)
10005510:	33 f6                	xor    %esi,%esi
10005512:	8d 45 a8             	lea    -0x58(%ebp),%eax
10005515:	50                   	push   %eax
10005516:	56                   	push   %esi
10005517:	56                   	push   %esi
10005518:	ff 15 bc 21 01 10    	call   *0x100121bc
1000551e:	a3 50 2d 01 10       	mov    %eax,0x10012d50
10005523:	85 c0                	test   %eax,%eax
10005525:	74 0e                	je     0x10005535
10005527:	ff 15 20 22 01 10    	call   *0x10012220
1000552d:	3d b7 00 00 00       	cmp    $0xb7,%eax
10005532:	75 01                	jne    0x10005535
10005534:	46                   	inc    %esi
10005535:	8b c6                	mov    %esi,%eax
10005537:	5e                   	pop    %esi
10005538:	8b e5                	mov    %ebp,%esp
1000553a:	5d                   	pop    %ebp
1000553b:	c3                   	ret    
1000553c:	55                   	push   %ebp
1000553d:	8b ec                	mov    %esp,%ebp
1000553f:	83 ec 24             	sub    $0x24,%esp
10005542:	8d 45 dc             	lea    -0x24(%ebp),%eax
10005545:	50                   	push   %eax
10005546:	ff 15 60 20 01 10    	call   *0x10012060
1000554c:	33 c0                	xor    %eax,%eax
1000554e:	66 83 7d dc 09       	cmpw   $0x9,-0x24(%ebp)
10005553:	0f 94 c0             	sete   %al
10005556:	8b e5                	mov    %ebp,%esp
10005558:	5d                   	pop    %ebp
10005559:	c3                   	ret    
1000555a:	ff 25 20 22 01 10    	jmp    *0x10012220
10005560:	55                   	push   %ebp
10005561:	8b ec                	mov    %esp,%ebp
10005563:	ff 75 08             	pushl  0x8(%ebp)
10005566:	ff 15 74 22 01 10    	call   *0x10012274
1000556c:	5d                   	pop    %ebp
1000556d:	c3                   	ret    
1000556e:	55                   	push   %ebp
1000556f:	8b ec                	mov    %esp,%ebp
10005571:	51                   	push   %ecx
10005572:	51                   	push   %ecx
10005573:	8d 45 fc             	lea    -0x4(%ebp),%eax
10005576:	57                   	push   %edi
10005577:	50                   	push   %eax
10005578:	e8 a3 f8 ff ff       	call   0x10004e20
1000557d:	8b f8                	mov    %eax,%edi
1000557f:	59                   	pop    %ecx
10005580:	85 ff                	test   %edi,%edi
10005582:	74 7d                	je     0x10005601
10005584:	56                   	push   %esi
10005585:	33 f6                	xor    %esi,%esi
10005587:	46                   	inc    %esi
10005588:	39 75 fc             	cmp    %esi,-0x4(%ebp)
1000558b:	7f 0b                	jg     0x10005598
1000558d:	57                   	push   %edi
1000558e:	ff 15 98 20 01 10    	call   *0x10012098
10005594:	33 c0                	xor    %eax,%eax
10005596:	eb 68                	jmp    0x10005600
10005598:	53                   	push   %ebx
10005599:	33 db                	xor    %ebx,%ebx
1000559b:	39 75 fc             	cmp    %esi,-0x4(%ebp)
1000559e:	7e 56                	jle    0x100055f6
100055a0:	ff 34 b7             	pushl  (%edi,%esi,4)
100055a3:	e8 83 0f 00 00       	call   0x1000652b
100055a8:	43                   	inc    %ebx
100055a9:	03 d8                	add    %eax,%ebx
100055ab:	46                   	inc    %esi
100055ac:	59                   	pop    %ecx
100055ad:	3b 75 fc             	cmp    -0x4(%ebp),%esi
100055b0:	7c ee                	jl     0x100055a0
100055b2:	6a 01                	push   $0x1
100055b4:	5e                   	pop    %esi
100055b5:	85 db                	test   %ebx,%ebx
100055b7:	74 3d                	je     0x100055f6
100055b9:	8d 04 1b             	lea    (%ebx,%ebx,1),%eax
100055bc:	50                   	push   %eax
100055bd:	e8 c6 f4 ff ff       	call   0x10004a88
100055c2:	8b d8                	mov    %eax,%ebx
100055c4:	59                   	pop    %ecx
100055c5:	85 db                	test   %ebx,%ebx
100055c7:	74 22                	je     0x100055eb
100055c9:	39 75 fc             	cmp    %esi,-0x4(%ebp)
100055cc:	7e 1d                	jle    0x100055eb
100055ce:	ff 34 b7             	pushl  (%edi,%esi,4)
100055d1:	53                   	push   %ebx
100055d2:	e8 c9 0d 00 00       	call   0x100063a0
100055d7:	68 60 d3 00 10       	push   $0x1000d360
100055dc:	53                   	push   %ebx
100055dd:	e8 be 0d 00 00       	call   0x100063a0
100055e2:	83 c4 10             	add    $0x10,%esp
100055e5:	46                   	inc    %esi
100055e6:	3b 75 fc             	cmp    -0x4(%ebp),%esi
100055e9:	7c e3                	jl     0x100055ce
100055eb:	57                   	push   %edi
100055ec:	ff 15 98 20 01 10    	call   *0x10012098
100055f2:	8b c3                	mov    %ebx,%eax
100055f4:	eb 09                	jmp    0x100055ff
100055f6:	57                   	push   %edi
100055f7:	ff 15 98 20 01 10    	call   *0x10012098
100055fd:	33 c0                	xor    %eax,%eax
100055ff:	5b                   	pop    %ebx
10005600:	5e                   	pop    %esi
10005601:	5f                   	pop    %edi
10005602:	8b e5                	mov    %ebp,%esp
10005604:	5d                   	pop    %ebp
10005605:	c3                   	ret    
10005606:	55                   	push   %ebp
10005607:	8b ec                	mov    %esp,%ebp
10005609:	51                   	push   %ecx
1000560a:	8d 45 ff             	lea    -0x1(%ebp),%eax
1000560d:	c6 45 ff 00          	movb   $0x0,-0x1(%ebp)
10005611:	50                   	push   %eax
10005612:	6a 01                	push   $0x1
10005614:	6a 01                	push   $0x1
10005616:	ff 75 08             	pushl  0x8(%ebp)
10005619:	ff 15 e0 20 01 10    	call   *0x100120e0
1000561f:	85 c0                	test   %eax,%eax
10005621:	74 20                	je     0x10005643
10005623:	3d 7c 00 00 c0       	cmp    $0xc000007c,%eax
10005628:	75 19                	jne    0x10005643
1000562a:	8d 45 ff             	lea    -0x1(%ebp),%eax
1000562d:	50                   	push   %eax
1000562e:	6a 00                	push   $0x0
10005630:	6a 01                	push   $0x1
10005632:	ff 75 08             	pushl  0x8(%ebp)
10005635:	ff 15 e0 20 01 10    	call   *0x100120e0
1000563b:	85 c0                	test   %eax,%eax
1000563d:	74 04                	je     0x10005643
1000563f:	33 c0                	xor    %eax,%eax
10005641:	eb 03                	jmp    0x10005646
10005643:	33 c0                	xor    %eax,%eax
10005645:	40                   	inc    %eax
10005646:	8b e5                	mov    %ebp,%esp
10005648:	5d                   	pop    %ebp
10005649:	c3                   	ret    
1000564a:	55                   	push   %ebp
1000564b:	8b ec                	mov    %esp,%ebp
1000564d:	83 ec 24             	sub    $0x24,%esp
10005650:	8d 45 dc             	lea    -0x24(%ebp),%eax
10005653:	50                   	push   %eax
10005654:	ff 15 34 21 01 10    	call   *0x10012134
1000565a:	8b 45 f0             	mov    -0x10(%ebp),%eax
1000565d:	8b e5                	mov    %ebp,%esp
1000565f:	5d                   	pop    %ebp
10005660:	c3                   	ret    
10005661:	64 8b 0d 30 00 00 00 	mov    %fs:0x30,%ecx
10005668:	0f b6 81 a4 00 00 00 	movzbl 0xa4(%ecx),%eax
1000566f:	0f b6 89 a8 00 00 00 	movzbl 0xa8(%ecx),%ecx
10005676:	66 c1 e0 08          	shl    $0x8,%ax
1000567a:	66 0b c1             	or     %cx,%ax
1000567d:	c3                   	ret    
1000567e:	55                   	push   %ebp
1000567f:	8b ec                	mov    %esp,%ebp
10005681:	81 ec 2c 02 00 00    	sub    $0x22c,%esp
10005687:	56                   	push   %esi
10005688:	57                   	push   %edi
10005689:	33 ff                	xor    %edi,%edi
1000568b:	57                   	push   %edi
1000568c:	6a 02                	push   $0x2
1000568e:	ff 15 c4 22 01 10    	call   *0x100122c4
10005694:	8b f0                	mov    %eax,%esi
10005696:	83 fe ff             	cmp    $0xffffffff,%esi
10005699:	75 04                	jne    0x1000569f
1000569b:	33 c0                	xor    %eax,%eax
1000569d:	eb 50                	jmp    0x100056ef
1000569f:	8d 85 d4 fd ff ff    	lea    -0x22c(%ebp),%eax
100056a5:	c7 85 d4 fd ff ff 2c 	movl   $0x22c,-0x22c(%ebp)
100056ac:	02 00 00 
100056af:	50                   	push   %eax
100056b0:	56                   	push   %esi
100056b1:	ff 15 b4 20 01 10    	call   *0x100120b4
100056b7:	eb 29                	jmp    0x100056e2
100056b9:	8d 85 d4 fd ff ff    	lea    -0x22c(%ebp),%eax
100056bf:	50                   	push   %eax
100056c0:	ff 75 0c             	pushl  0xc(%ebp)
100056c3:	ff 55 10             	call   *0x10(%ebp)
100056c6:	8b f8                	mov    %eax,%edi
100056c8:	59                   	pop    %ecx
100056c9:	59                   	pop    %ecx
100056ca:	85 ff                	test   %edi,%edi
100056cc:	74 06                	je     0x100056d4
100056ce:	83 7d 08 00          	cmpl   $0x0,0x8(%ebp)
100056d2:	75 12                	jne    0x100056e6
100056d4:	8d 85 d4 fd ff ff    	lea    -0x22c(%ebp),%eax
100056da:	50                   	push   %eax
100056db:	56                   	push   %esi
100056dc:	ff 15 ac 22 01 10    	call   *0x100122ac
100056e2:	85 c0                	test   %eax,%eax
100056e4:	75 d3                	jne    0x100056b9
100056e6:	56                   	push   %esi
100056e7:	e8 12 f7 ff ff       	call   0x10004dfe
100056ec:	59                   	pop    %ecx
100056ed:	8b c7                	mov    %edi,%eax
100056ef:	5f                   	pop    %edi
100056f0:	5e                   	pop    %esi
100056f1:	8b e5                	mov    %ebp,%esp
100056f3:	5d                   	pop    %ebp
100056f4:	c3                   	ret    
100056f5:	55                   	push   %ebp
100056f6:	8b ec                	mov    %esp,%ebp
100056f8:	ff 75 0c             	pushl  0xc(%ebp)
100056fb:	ff 75 08             	pushl  0x8(%ebp)
100056fe:	e8 ec 03 00 00       	call   0x10005aef
10005703:	59                   	pop    %ecx
10005704:	59                   	pop    %ecx
10005705:	85 c0                	test   %eax,%eax
10005707:	74 05                	je     0x1000570e
10005709:	33 c0                	xor    %eax,%eax
1000570b:	40                   	inc    %eax
1000570c:	5d                   	pop    %ebp
1000570d:	c3                   	ret    
1000570e:	ff 75 0c             	pushl  0xc(%ebp)
10005711:	ff 75 08             	pushl  0x8(%ebp)
10005714:	e8 4d 00 00 00       	call   0x10005766
10005719:	59                   	pop    %ecx
1000571a:	59                   	pop    %ecx
1000571b:	85 c0                	test   %eax,%eax
1000571d:	75 ea                	jne    0x10005709
1000571f:	5d                   	pop    %ebp
10005720:	e9 f7 01 00 00       	jmp    0x1000591c
10005725:	55                   	push   %ebp
10005726:	8b ec                	mov    %esp,%ebp
10005728:	56                   	push   %esi
10005729:	8b 75 08             	mov    0x8(%ebp),%esi
1000572c:	3b 75 0c             	cmp    0xc(%ebp),%esi
1000572f:	76 04                	jbe    0x10005735
10005731:	33 c0                	xor    %eax,%eax
10005733:	eb 2e                	jmp    0x10005763
10005735:	8d 45 08             	lea    0x8(%ebp),%eax
10005738:	6a 04                	push   $0x4
1000573a:	50                   	push   %eax
1000573b:	e8 ac 15 00 00       	call   0x10006cec
10005740:	59                   	pop    %ecx
10005741:	59                   	pop    %ecx
10005742:	85 c0                	test   %eax,%eax
10005744:	74 eb                	je     0x10005731
10005746:	8b 45 0c             	mov    0xc(%ebp),%eax
10005749:	2b c6                	sub    %esi,%eax
1000574b:	8d 48 01             	lea    0x1(%eax),%ecx
1000574e:	85 f6                	test   %esi,%esi
10005750:	75 07                	jne    0x10005759
10005752:	83 7d 0c ff          	cmpl   $0xffffffff,0xc(%ebp)
10005756:	0f 44 c8             	cmove  %eax,%ecx
10005759:	8b 45 08             	mov    0x8(%ebp),%eax
1000575c:	33 d2                	xor    %edx,%edx
1000575e:	f7 f1                	div    %ecx
10005760:	8d 04 16             	lea    (%esi,%edx,1),%eax
10005763:	5e                   	pop    %esi
10005764:	5d                   	pop    %ebp
10005765:	c3                   	ret    
10005766:	55                   	push   %ebp
10005767:	8b ec                	mov    %esp,%ebp
10005769:	83 ec 10             	sub    $0x10,%esp
1000576c:	83 3d 5c 2d 01 10 00 	cmpl   $0x0,0x10012d5c
10005773:	53                   	push   %ebx
10005774:	56                   	push   %esi
10005775:	75 3a                	jne    0x100057b1
10005777:	57                   	push   %edi
10005778:	33 c0                	xor    %eax,%eax
1000577a:	8d 7d f0             	lea    -0x10(%ebp),%edi
1000577d:	40                   	inc    %eax
1000577e:	33 c9                	xor    %ecx,%ecx
10005780:	53                   	push   %ebx
10005781:	0f a2                	cpuid  
10005783:	8b f3                	mov    %ebx,%esi
10005785:	5b                   	pop    %ebx
10005786:	89 07                	mov    %eax,(%edi)
10005788:	a1 60 2d 01 10       	mov    0x10012d60,%eax
1000578d:	89 77 04             	mov    %esi,0x4(%edi)
10005790:	89 4f 08             	mov    %ecx,0x8(%edi)
10005793:	89 57 0c             	mov    %edx,0xc(%edi)
10005796:	f7 45 f8 00 00 00 40 	testl  $0x40000000,-0x8(%ebp)
1000579d:	6a 01                	push   $0x1
1000579f:	59                   	pop    %ecx
100057a0:	0f 45 c1             	cmovne %ecx,%eax
100057a3:	89 0d 5c 2d 01 10    	mov    %ecx,0x10012d5c
100057a9:	a3 60 2d 01 10       	mov    %eax,0x10012d60
100057ae:	5f                   	pop    %edi
100057af:	eb 05                	jmp    0x100057b6
100057b1:	a1 60 2d 01 10       	mov    0x10012d60,%eax
100057b6:	85 c0                	test   %eax,%eax
100057b8:	74 19                	je     0x100057d3
100057ba:	33 c9                	xor    %ecx,%ecx
100057bc:	39 4d 0c             	cmp    %ecx,0xc(%ebp)
100057bf:	76 12                	jbe    0x100057d3
100057c1:	8b 75 08             	mov    0x8(%ebp),%esi
100057c4:	33 d2                	xor    %edx,%edx
100057c6:	0f c7 f3             	rdrand %ebx
100057c9:	72 0e                	jb     0x100057d9
100057cb:	42                   	inc    %edx
100057cc:	83 fa 10             	cmp    $0x10,%edx
100057cf:	7c f5                	jl     0x100057c6
100057d1:	33 c0                	xor    %eax,%eax
100057d3:	5e                   	pop    %esi
100057d4:	5b                   	pop    %ebx
100057d5:	8b e5                	mov    %ebp,%esp
100057d7:	5d                   	pop    %ebp
100057d8:	c3                   	ret    
100057d9:	88 1c 31             	mov    %bl,(%ecx,%esi,1)
100057dc:	41                   	inc    %ecx
100057dd:	3b 4d 0c             	cmp    0xc(%ebp),%ecx
100057e0:	72 e2                	jb     0x100057c4
100057e2:	eb ef                	jmp    0x100057d3
100057e4:	55                   	push   %ebp
100057e5:	8b ec                	mov    %esp,%ebp
100057e7:	51                   	push   %ecx
100057e8:	53                   	push   %ebx
100057e9:	56                   	push   %esi
100057ea:	8d 45 fc             	lea    -0x4(%ebp),%eax
100057ed:	33 db                	xor    %ebx,%ebx
100057ef:	50                   	push   %eax
100057f0:	6a 01                	push   $0x1
100057f2:	53                   	push   %ebx
100057f3:	ff 75 0c             	pushl  0xc(%ebp)
100057f6:	8b f3                	mov    %ebx,%esi
100057f8:	ff 75 08             	pushl  0x8(%ebp)
100057fb:	ff 15 44 21 01 10    	call   *0x10012144
10005801:	85 c0                	test   %eax,%eax
10005803:	75 56                	jne    0x1000585b
10005805:	57                   	push   %edi
10005806:	8b 7d 18             	mov    0x18(%ebp),%edi
10005809:	57                   	push   %edi
1000580a:	53                   	push   %ebx
1000580b:	ff 75 14             	pushl  0x14(%ebp)
1000580e:	53                   	push   %ebx
1000580f:	ff 75 10             	pushl  0x10(%ebp)
10005812:	ff 75 fc             	pushl  -0x4(%ebp)
10005815:	ff 15 c8 20 01 10    	call   *0x100120c8
1000581b:	85 c0                	test   %eax,%eax
1000581d:	75 32                	jne    0x10005851
1000581f:	83 3f 02             	cmpl   $0x2,(%edi)
10005822:	76 2d                	jbe    0x10005851
10005824:	ff 37                	pushl  (%edi)
10005826:	e8 5d f2 ff ff       	call   0x10004a88
1000582b:	8b f0                	mov    %eax,%esi
1000582d:	59                   	pop    %ecx
1000582e:	85 f6                	test   %esi,%esi
10005830:	74 1f                	je     0x10005851
10005832:	57                   	push   %edi
10005833:	56                   	push   %esi
10005834:	ff 75 14             	pushl  0x14(%ebp)
10005837:	53                   	push   %ebx
10005838:	ff 75 10             	pushl  0x10(%ebp)
1000583b:	ff 75 fc             	pushl  -0x4(%ebp)
1000583e:	ff 15 c8 20 01 10    	call   *0x100120c8
10005844:	85 c0                	test   %eax,%eax
10005846:	74 09                	je     0x10005851
10005848:	56                   	push   %esi
10005849:	e8 87 f2 ff ff       	call   0x10004ad5
1000584e:	59                   	pop    %ecx
1000584f:	8b f3                	mov    %ebx,%esi
10005851:	ff 75 fc             	pushl  -0x4(%ebp)
10005854:	ff 15 ec 20 01 10    	call   *0x100120ec
1000585a:	5f                   	pop    %edi
1000585b:	8b c6                	mov    %esi,%eax
1000585d:	5e                   	pop    %esi
1000585e:	5b                   	pop    %ebx
1000585f:	8b e5                	mov    %ebp,%esp
10005861:	5d                   	pop    %ebp
10005862:	c3                   	ret    
10005863:	55                   	push   %ebp
10005864:	8b ec                	mov    %esp,%ebp
10005866:	51                   	push   %ecx
10005867:	56                   	push   %esi
10005868:	33 f6                	xor    %esi,%esi
1000586a:	8d 45 fc             	lea    -0x4(%ebp),%eax
1000586d:	56                   	push   %esi
1000586e:	50                   	push   %eax
1000586f:	56                   	push   %esi
10005870:	6a 02                	push   $0x2
10005872:	56                   	push   %esi
10005873:	56                   	push   %esi
10005874:	56                   	push   %esi
10005875:	ff 75 0c             	pushl  0xc(%ebp)
10005878:	ff 75 08             	pushl  0x8(%ebp)
1000587b:	ff 15 84 20 01 10    	call   *0x10012084
10005881:	85 c0                	test   %eax,%eax
10005883:	75 27                	jne    0x100058ac
10005885:	ff 75 1c             	pushl  0x1c(%ebp)
10005888:	ff 75 18             	pushl  0x18(%ebp)
1000588b:	ff 75 14             	pushl  0x14(%ebp)
1000588e:	56                   	push   %esi
1000588f:	ff 75 10             	pushl  0x10(%ebp)
10005892:	ff 75 fc             	pushl  -0x4(%ebp)
10005895:	ff 15 dc 22 01 10    	call   *0x100122dc
1000589b:	ff 75 fc             	pushl  -0x4(%ebp)
1000589e:	33 c9                	xor    %ecx,%ecx
100058a0:	41                   	inc    %ecx
100058a1:	85 c0                	test   %eax,%eax
100058a3:	0f 44 f1             	cmove  %ecx,%esi
100058a6:	ff 15 ec 20 01 10    	call   *0x100120ec
100058ac:	8b c6                	mov    %esi,%eax
100058ae:	5e                   	pop    %esi
100058af:	8b e5                	mov    %ebp,%esp
100058b1:	5d                   	pop    %ebp
100058b2:	c3                   	ret    
100058b3:	55                   	push   %ebp
100058b4:	8b ec                	mov    %esp,%ebp
100058b6:	56                   	push   %esi
100058b7:	ff 75 08             	pushl  0x8(%ebp)
100058ba:	33 f6                	xor    %esi,%esi
100058bc:	39 75 0c             	cmp    %esi,0xc(%ebp)
100058bf:	74 22                	je     0x100058e3
100058c1:	e8 37 f4 ff ff       	call   0x10004cfd
100058c6:	59                   	pop    %ecx
100058c7:	85 c0                	test   %eax,%eax
100058c9:	75 2b                	jne    0x100058f6
100058cb:	ff 75 08             	pushl  0x8(%ebp)
100058ce:	e8 e2 00 00 00       	call   0x100059b5
100058d3:	59                   	pop    %ecx
100058d4:	85 c0                	test   %eax,%eax
100058d6:	74 26                	je     0x100058fe
100058d8:	ff 75 08             	pushl  0x8(%ebp)
100058db:	e8 1d f4 ff ff       	call   0x10004cfd
100058e0:	59                   	pop    %ecx
100058e1:	eb 1b                	jmp    0x100058fe
100058e3:	e8 cd 00 00 00       	call   0x100059b5
100058e8:	59                   	pop    %ecx
100058e9:	85 c0                	test   %eax,%eax
100058eb:	74 11                	je     0x100058fe
100058ed:	ff 75 08             	pushl  0x8(%ebp)
100058f0:	e8 08 f4 ff ff       	call   0x10004cfd
100058f5:	59                   	pop    %ecx
100058f6:	83 f8 01             	cmp    $0x1,%eax
100058f9:	75 03                	jne    0x100058fe
100058fb:	33 f6                	xor    %esi,%esi
100058fd:	46                   	inc    %esi
100058fe:	8b c6                	mov    %esi,%eax
10005900:	5e                   	pop    %esi
10005901:	5d                   	pop    %ebp
10005902:	c3                   	ret    
10005903:	ff 35 50 2d 01 10    	pushl  0x10012d50
10005909:	ff 15 e0 21 01 10    	call   *0x100121e0
1000590f:	ff 35 50 2d 01 10    	pushl  0x10012d50
10005915:	e8 e4 f4 ff ff       	call   0x10004dfe
1000591a:	59                   	pop    %ecx
1000591b:	c3                   	ret    
1000591c:	55                   	push   %ebp
1000591d:	8b ec                	mov    %esp,%ebp
1000591f:	83 3d 58 2d 01 10 00 	cmpl   $0x0,0x10012d58
10005926:	75 26                	jne    0x1000594e
10005928:	68 00 00 00 f0       	push   $0xf0000000
1000592d:	6a 01                	push   $0x1
1000592f:	6a 00                	push   $0x0
10005931:	6a 00                	push   $0x0
10005933:	68 54 2d 01 10       	push   $0x10012d54
10005938:	ff 15 38 20 01 10    	call   *0x10012038
1000593e:	85 c0                	test   %eax,%eax
10005940:	75 02                	jne    0x10005944
10005942:	5d                   	pop    %ebp
10005943:	c3                   	ret    
10005944:	c7 05 58 2d 01 10 01 	movl   $0x1,0x10012d58
1000594b:	00 00 00 
1000594e:	ff 75 08             	pushl  0x8(%ebp)
10005951:	ff 75 0c             	pushl  0xc(%ebp)
10005954:	ff 35 54 2d 01 10    	pushl  0x10012d54
1000595a:	ff 15 8c 20 01 10    	call   *0x1001208c
10005960:	f7 d8                	neg    %eax
10005962:	1b c0                	sbb    %eax,%eax
10005964:	f7 d8                	neg    %eax
10005966:	5d                   	pop    %ebp
10005967:	c3                   	ret    
10005968:	55                   	push   %ebp
10005969:	8b ec                	mov    %esp,%ebp
1000596b:	ff 75 08             	pushl  0x8(%ebp)
1000596e:	ff 15 24 22 01 10    	call   *0x10012224
10005974:	5d                   	pop    %ebp
10005975:	c3                   	ret    
10005976:	55                   	push   %ebp
10005977:	8b ec                	mov    %esp,%ebp
10005979:	51                   	push   %ecx
1000597a:	56                   	push   %esi
1000597b:	e8 2e 05 00 00       	call   0x10005eae
10005980:	8b f0                	mov    %eax,%esi
10005982:	33 c0                	xor    %eax,%eax
10005984:	85 f6                	test   %esi,%esi
10005986:	74 28                	je     0x100059b0
10005988:	33 c9                	xor    %ecx,%ecx
1000598a:	66 89 46 06          	mov    %ax,0x6(%esi)
1000598e:	51                   	push   %ecx
1000598f:	51                   	push   %ecx
10005990:	51                   	push   %ecx
10005991:	51                   	push   %ecx
10005992:	8d 45 fc             	lea    -0x4(%ebp),%eax
10005995:	50                   	push   %eax
10005996:	51                   	push   %ecx
10005997:	51                   	push   %ecx
10005998:	56                   	push   %esi
10005999:	ff 15 54 20 01 10    	call   *0x10012054
1000599f:	f7 d8                	neg    %eax
100059a1:	56                   	push   %esi
100059a2:	1b c0                	sbb    %eax,%eax
100059a4:	21 45 fc             	and    %eax,-0x4(%ebp)
100059a7:	e8 29 f1 ff ff       	call   0x10004ad5
100059ac:	8b 45 fc             	mov    -0x4(%ebp),%eax
100059af:	59                   	pop    %ecx
100059b0:	5e                   	pop    %esi
100059b1:	8b e5                	mov    %ebp,%esp
100059b3:	5d                   	pop    %ebp
100059b4:	c3                   	ret    
100059b5:	55                   	push   %ebp
100059b6:	8b ec                	mov    %esp,%ebp
100059b8:	51                   	push   %ecx
100059b9:	51                   	push   %ecx
100059ba:	56                   	push   %esi
100059bb:	33 f6                	xor    %esi,%esi
100059bd:	46                   	inc    %esi
100059be:	83 3d 6c 2d 01 10 00 	cmpl   $0x0,0x10012d6c
100059c5:	75 42                	jne    0x10005a09
100059c7:	ff 15 30 22 01 10    	call   *0x10012230
100059cd:	8d 4d fc             	lea    -0x4(%ebp),%ecx
100059d0:	51                   	push   %ecx
100059d1:	6a 08                	push   $0x8
100059d3:	50                   	push   %eax
100059d4:	ff 15 c4 20 01 10    	call   *0x100120c4
100059da:	85 c0                	test   %eax,%eax
100059dc:	74 45                	je     0x10005a23
100059de:	8d 45 f8             	lea    -0x8(%ebp),%eax
100059e1:	50                   	push   %eax
100059e2:	68 00 02 00 00       	push   $0x200
100059e7:	68 70 2d 01 10       	push   $0x10012d70
100059ec:	56                   	push   %esi
100059ed:	ff 75 fc             	pushl  -0x4(%ebp)
100059f0:	ff 15 08 22 01 10    	call   *0x10012208
100059f6:	85 c0                	test   %eax,%eax
100059f8:	74 29                	je     0x10005a23
100059fa:	ff 75 fc             	pushl  -0x4(%ebp)
100059fd:	89 35 6c 2d 01 10    	mov    %esi,0x10012d6c
10005a03:	e8 f6 f3 ff ff       	call   0x10004dfe
10005a08:	59                   	pop    %ecx
10005a09:	33 c0                	xor    %eax,%eax
10005a0b:	50                   	push   %eax
10005a0c:	50                   	push   %eax
10005a0d:	50                   	push   %eax
10005a0e:	ff 35 70 2d 01 10    	pushl  0x10012d70
10005a14:	56                   	push   %esi
10005a15:	56                   	push   %esi
10005a16:	ff 75 08             	pushl  0x8(%ebp)
10005a19:	ff 15 fc 1f 01 10    	call   *0x10011ffc
10005a1f:	85 c0                	test   %eax,%eax
10005a21:	74 04                	je     0x10005a27
10005a23:	33 c0                	xor    %eax,%eax
10005a25:	eb 02                	jmp    0x10005a29
10005a27:	8b c6                	mov    %esi,%eax
10005a29:	5e                   	pop    %esi
10005a2a:	8b e5                	mov    %ebp,%esp
10005a2c:	5d                   	pop    %ebp
10005a2d:	c3                   	ret    
10005a2e:	57                   	push   %edi
10005a2f:	6a 00                	push   $0x0
10005a31:	6a 00                	push   $0x0
10005a33:	ff 15 3c 21 01 10    	call   *0x1001213c
10005a39:	8b f8                	mov    %eax,%edi
10005a3b:	85 ff                	test   %edi,%edi
10005a3d:	75 02                	jne    0x10005a41
10005a3f:	5f                   	pop    %edi
10005a40:	c3                   	ret    
10005a41:	8d 04 3f             	lea    (%edi,%edi,1),%eax
10005a44:	56                   	push   %esi
10005a45:	50                   	push   %eax
10005a46:	e8 3d f0 ff ff       	call   0x10004a88
10005a4b:	8b f0                	mov    %eax,%esi
10005a4d:	59                   	pop    %ecx
10005a4e:	85 f6                	test   %esi,%esi
10005a50:	74 17                	je     0x10005a69
10005a52:	56                   	push   %esi
10005a53:	57                   	push   %edi
10005a54:	ff 15 3c 21 01 10    	call   *0x1001213c
10005a5a:	85 c0                	test   %eax,%eax
10005a5c:	75 09                	jne    0x10005a67
10005a5e:	56                   	push   %esi
10005a5f:	e8 71 f0 ff ff       	call   0x10004ad5
10005a64:	59                   	pop    %ecx
10005a65:	33 f6                	xor    %esi,%esi
10005a67:	8b c6                	mov    %esi,%eax
10005a69:	5e                   	pop    %esi
10005a6a:	5f                   	pop    %edi
10005a6b:	c3                   	ret    
10005a6c:	55                   	push   %ebp
10005a6d:	8b ec                	mov    %esp,%ebp
10005a6f:	83 ec 0c             	sub    $0xc,%esp
10005a72:	53                   	push   %ebx
10005a73:	56                   	push   %esi
10005a74:	8b 75 08             	mov    0x8(%ebp),%esi
10005a77:	0f b7 c6             	movzwl %si,%eax
10005a7a:	c1 ee 10             	shr    $0x10,%esi
10005a7d:	89 45 08             	mov    %eax,0x8(%ebp)
10005a80:	33 c0                	xor    %eax,%eax
10005a82:	66 8b 5d 08          	mov    0x8(%ebp),%bx
10005a86:	57                   	push   %edi
10005a87:	89 75 fc             	mov    %esi,-0x4(%ebp)
10005a8a:	66 8b fe             	mov    %si,%di
10005a8d:	c7 45 f8 40 00 00 00 	movl   $0x40,-0x8(%ebp)
10005a94:	2d 47 86 c8 61       	sub    $0x61c88647,%eax
10005a99:	0f b7 d0             	movzwl %ax,%edx
10005a9c:	89 45 f4             	mov    %eax,-0xc(%ebp)
10005a9f:	66 8b c7             	mov    %di,%ax
10005aa2:	66 c1 e8 05          	shr    $0x5,%ax
10005aa6:	8d 0c 32             	lea    (%edx,%esi,1),%ecx
10005aa9:	c1 e6 04             	shl    $0x4,%esi
10005aac:	66 33 c8             	xor    %ax,%cx
10005aaf:	66 33 ce             	xor    %si,%cx
10005ab2:	66 03 d9             	add    %cx,%bx
10005ab5:	66 89 5d 08          	mov    %bx,0x8(%ebp)
10005ab9:	66 8b c3             	mov    %bx,%ax
10005abc:	8b 4d 08             	mov    0x8(%ebp),%ecx
10005abf:	03 d1                	add    %ecx,%edx
10005ac1:	66 c1 e8 05          	shr    $0x5,%ax
10005ac5:	66 33 d0             	xor    %ax,%dx
10005ac8:	c1 e1 04             	shl    $0x4,%ecx
10005acb:	66 33 d1             	xor    %cx,%dx
10005ace:	66 03 fa             	add    %dx,%di
10005ad1:	83 6d f8 01          	subl   $0x1,-0x8(%ebp)
10005ad5:	66 89 7d fc          	mov    %di,-0x4(%ebp)
10005ad9:	74 08                	je     0x10005ae3
10005adb:	8b 75 fc             	mov    -0x4(%ebp),%esi
10005ade:	8b 45 f4             	mov    -0xc(%ebp),%eax
10005ae1:	eb b1                	jmp    0x10005a94
10005ae3:	8a 45 08             	mov    0x8(%ebp),%al
10005ae6:	5f                   	pop    %edi
10005ae7:	5e                   	pop    %esi
10005ae8:	24 01                	and    $0x1,%al
10005aea:	5b                   	pop    %ebx
10005aeb:	8b e5                	mov    %ebp,%esp
10005aed:	5d                   	pop    %ebp
10005aee:	c3                   	ret    
10005aef:	55                   	push   %ebp
10005af0:	8b ec                	mov    %esp,%ebp
10005af2:	51                   	push   %ecx
10005af3:	53                   	push   %ebx
10005af4:	56                   	push   %esi
10005af5:	33 f6                	xor    %esi,%esi
10005af7:	57                   	push   %edi
10005af8:	39 75 0c             	cmp    %esi,0xc(%ebp)
10005afb:	76 2d                	jbe    0x10005b2a
10005afd:	32 db                	xor    %bl,%bl
10005aff:	33 ff                	xor    %edi,%edi
10005b01:	8d 45 ff             	lea    -0x1(%ebp),%eax
10005b04:	50                   	push   %eax
10005b05:	e8 2e 00 00 00       	call   0x10005b38
10005b0a:	59                   	pop    %ecx
10005b0b:	85 c0                	test   %eax,%eax
10005b0d:	74 25                	je     0x10005b34
10005b0f:	8a 45 ff             	mov    -0x1(%ebp),%al
10005b12:	8b cf                	mov    %edi,%ecx
10005b14:	d2 e0                	shl    %cl,%al
10005b16:	0a d8                	or     %al,%bl
10005b18:	47                   	inc    %edi
10005b19:	83 ff 08             	cmp    $0x8,%edi
10005b1c:	72 e3                	jb     0x10005b01
10005b1e:	8b 45 08             	mov    0x8(%ebp),%eax
10005b21:	88 1c 06             	mov    %bl,(%esi,%eax,1)
10005b24:	46                   	inc    %esi
10005b25:	3b 75 0c             	cmp    0xc(%ebp),%esi
10005b28:	72 d3                	jb     0x10005afd
10005b2a:	33 c0                	xor    %eax,%eax
10005b2c:	40                   	inc    %eax
10005b2d:	5f                   	pop    %edi
10005b2e:	5e                   	pop    %esi
10005b2f:	5b                   	pop    %ebx
10005b30:	8b e5                	mov    %ebp,%esp
10005b32:	5d                   	pop    %ebp
10005b33:	c3                   	ret    
10005b34:	33 c0                	xor    %eax,%eax
10005b36:	eb f5                	jmp    0x10005b2d
10005b38:	55                   	push   %ebp
10005b39:	8b ec                	mov    %esp,%ebp
10005b3b:	83 ec 10             	sub    $0x10,%esp
10005b3e:	53                   	push   %ebx
10005b3f:	56                   	push   %esi
10005b40:	57                   	push   %edi
10005b41:	33 db                	xor    %ebx,%ebx
10005b43:	0f 31                	rdtsc  
10005b45:	8b f0                	mov    %eax,%esi
10005b47:	8b fa                	mov    %edx,%edi
10005b49:	e8 94 00 00 00       	call   0x10005be2
10005b4e:	0f 31                	rdtsc  
10005b50:	2b c6                	sub    %esi,%eax
10005b52:	8b ca                	mov    %edx,%ecx
10005b54:	89 45 f0             	mov    %eax,-0x10(%ebp)
10005b57:	1b cf                	sbb    %edi,%ecx
10005b59:	89 4d f8             	mov    %ecx,-0x8(%ebp)
10005b5c:	e8 81 00 00 00       	call   0x10005be2
10005b61:	8b 4d f0             	mov    -0x10(%ebp),%ecx
10005b64:	0f 31                	rdtsc  
10005b66:	2b c1                	sub    %ecx,%eax
10005b68:	1b 55 f8             	sbb    -0x8(%ebp),%edx
10005b6b:	2b c6                	sub    %esi,%eax
10005b6d:	89 45 f0             	mov    %eax,-0x10(%ebp)
10005b70:	1b d7                	sbb    %edi,%edx
10005b72:	8b 7d f8             	mov    -0x8(%ebp),%edi
10005b75:	85 ff                	test   %edi,%edi
10005b77:	77 49                	ja     0x10005bc2
10005b79:	72 05                	jb     0x10005b80
10005b7b:	83 f9 ff             	cmp    $0xffffffff,%ecx
10005b7e:	77 42                	ja     0x10005bc2
10005b80:	85 d2                	test   %edx,%edx
10005b82:	77 3e                	ja     0x10005bc2
10005b84:	72 05                	jb     0x10005b8b
10005b86:	83 f8 ff             	cmp    $0xffffffff,%eax
10005b89:	77 37                	ja     0x10005bc2
10005b8b:	8b f1                	mov    %ecx,%esi
10005b8d:	2b f0                	sub    %eax,%esi
10005b8f:	1b fa                	sbb    %edx,%edi
10005b91:	8b c7                	mov    %edi,%eax
10005b93:	99                   	cltd   
10005b94:	33 c2                	xor    %edx,%eax
10005b96:	33 f2                	xor    %edx,%esi
10005b98:	2b f2                	sub    %edx,%esi
10005b9a:	1b c2                	sbb    %edx,%eax
10005b9c:	89 45 f8             	mov    %eax,-0x8(%ebp)
10005b9f:	78 21                	js     0x10005bc2
10005ba1:	7f 05                	jg     0x10005ba8
10005ba3:	83 fe 40             	cmp    $0x40,%esi
10005ba6:	72 1a                	jb     0x10005bc2
10005ba8:	51                   	push   %ecx
10005ba9:	e8 be fe ff ff       	call   0x10005a6c
10005bae:	ff 75 f0             	pushl  -0x10(%ebp)
10005bb1:	88 45 ff             	mov    %al,-0x1(%ebp)
10005bb4:	e8 b3 fe ff ff       	call   0x10005a6c
10005bb9:	59                   	pop    %ecx
10005bba:	59                   	pop    %ecx
10005bbb:	8a 4d ff             	mov    -0x1(%ebp),%cl
10005bbe:	32 c1                	xor    %cl,%al
10005bc0:	75 16                	jne    0x10005bd8
10005bc2:	43                   	inc    %ebx
10005bc3:	81 fb 80 00 00 00    	cmp    $0x80,%ebx
10005bc9:	0f 8c 74 ff ff ff    	jl     0x10005b43
10005bcf:	33 c0                	xor    %eax,%eax
10005bd1:	5f                   	pop    %edi
10005bd2:	5e                   	pop    %esi
10005bd3:	5b                   	pop    %ebx
10005bd4:	8b e5                	mov    %ebp,%esp
10005bd6:	5d                   	pop    %ebp
10005bd7:	c3                   	ret    
10005bd8:	8b 45 08             	mov    0x8(%ebp),%eax
10005bdb:	88 08                	mov    %cl,(%eax)
10005bdd:	33 c0                	xor    %eax,%eax
10005bdf:	40                   	inc    %eax
10005be0:	eb ef                	jmp    0x10005bd1
10005be2:	56                   	push   %esi
10005be3:	6a 01                	push   $0x1
10005be5:	ff 15 fc 20 01 10    	call   *0x100120fc
10005beb:	ff 15 34 22 01 10    	call   *0x10012234
10005bf1:	8b f0                	mov    %eax,%esi
10005bf3:	6a 01                	push   $0x1
10005bf5:	ff 15 24 22 01 10    	call   *0x10012224
10005bfb:	ff 15 34 22 01 10    	call   *0x10012234
10005c01:	3b f0                	cmp    %eax,%esi
10005c03:	74 ee                	je     0x10005bf3
10005c05:	5e                   	pop    %esi
10005c06:	c3                   	ret    
10005c07:	55                   	push   %ebp
10005c08:	8b ec                	mov    %esp,%ebp
10005c0a:	83 ec 4c             	sub    $0x4c,%esp
10005c0d:	56                   	push   %esi
10005c0e:	ff 15 30 22 01 10    	call   *0x10012230
10005c14:	8b f0                	mov    %eax,%esi
10005c16:	e8 46 fa ff ff       	call   0x10005661
10005c1b:	b9 00 06 00 00       	mov    $0x600,%ecx
10005c20:	66 3b c1             	cmp    %cx,%ax
10005c23:	0f 82 ce 00 00 00    	jb     0x10005cf7
10005c29:	56                   	push   %esi
10005c2a:	e8 93 f3 ff ff       	call   0x10004fc2
10005c2f:	59                   	pop    %ecx
10005c30:	83 f8 03             	cmp    $0x3,%eax
10005c33:	0f 85 be 00 00 00    	jne    0x10005cf7
10005c39:	56                   	push   %esi
10005c3a:	e8 8b f4 ff ff       	call   0x100050ca
10005c3f:	59                   	pop    %ecx
10005c40:	3d 00 30 00 00       	cmp    $0x3000,%eax
10005c45:	0f 83 ac 00 00 00    	jae    0x10005cf7
10005c4b:	53                   	push   %ebx
10005c4c:	57                   	push   %edi
10005c4d:	e8 b1 fc ff ff       	call   0x10005903
10005c52:	8d 45 fc             	lea    -0x4(%ebp),%eax
10005c55:	33 db                	xor    %ebx,%ebx
10005c57:	50                   	push   %eax
10005c58:	53                   	push   %ebx
10005c59:	e8 3f f5 ff ff       	call   0x1000519d
10005c5e:	8b f0                	mov    %eax,%esi
10005c60:	59                   	pop    %ecx
10005c61:	59                   	pop    %ecx
10005c62:	85 f6                	test   %esi,%esi
10005c64:	75 07                	jne    0x10005c6d
10005c66:	53                   	push   %ebx
10005c67:	ff 15 2c 20 01 10    	call   *0x1001202c
10005c6d:	e8 fc f8 ff ff       	call   0x1000556e
10005c72:	8b f8                	mov    %eax,%edi
10005c74:	8d 45 f0             	lea    -0x10(%ebp),%eax
10005c77:	50                   	push   %eax
10005c78:	6a 0a                	push   $0xa
10005c7a:	6a 07                	push   $0x7
10005c7c:	68 55 08 00 00       	push   $0x855
10005c81:	68 e0 22 01 10       	push   $0x100122e0
10005c86:	e8 32 04 00 00       	call   0x100060bd
10005c8b:	83 c4 14             	add    $0x14,%esp
10005c8e:	c7 45 b4 3c 00 00 00 	movl   $0x3c,-0x4c(%ebp)
10005c95:	33 c0                	xor    %eax,%eax
10005c97:	89 5d b8             	mov    %ebx,-0x48(%ebp)
10005c9a:	66 89 45 fa          	mov    %ax,-0x6(%ebp)
10005c9e:	ff 15 14 20 01 10    	call   *0x10012014
10005ca4:	89 45 bc             	mov    %eax,-0x44(%ebp)
10005ca7:	8d 45 f0             	lea    -0x10(%ebp),%eax
10005caa:	89 45 c0             	mov    %eax,-0x40(%ebp)
10005cad:	89 75 c4             	mov    %esi,-0x3c(%ebp)
10005cb0:	89 7d c8             	mov    %edi,-0x38(%ebp)
10005cb3:	89 5d cc             	mov    %ebx,-0x34(%ebp)
10005cb6:	c7 45 d0 01 00 00 00 	movl   $0x1,-0x30(%ebp)
10005cbd:	89 5d d4             	mov    %ebx,-0x2c(%ebp)
10005cc0:	89 5d d8             	mov    %ebx,-0x28(%ebp)
10005cc3:	89 5d dc             	mov    %ebx,-0x24(%ebp)
10005cc6:	89 5d e0             	mov    %ebx,-0x20(%ebp)
10005cc9:	89 5d e4             	mov    %ebx,-0x1c(%ebp)
10005ccc:	89 5d e8             	mov    %ebx,-0x18(%ebp)
10005ccf:	89 5d ec             	mov    %ebx,-0x14(%ebp)
10005cd2:	8d 45 b4             	lea    -0x4c(%ebp),%eax
10005cd5:	50                   	push   %eax
10005cd6:	ff 15 f8 1f 01 10    	call   *0x10011ff8
10005cdc:	85 c0                	test   %eax,%eax
10005cde:	74 f2                	je     0x10005cd2
10005ce0:	56                   	push   %esi
10005ce1:	e8 ef ed ff ff       	call   0x10004ad5
10005ce6:	57                   	push   %edi
10005ce7:	e8 e9 ed ff ff       	call   0x10004ad5
10005cec:	59                   	pop    %ecx
10005ced:	59                   	pop    %ecx
10005cee:	53                   	push   %ebx
10005cef:	ff 15 2c 20 01 10    	call   *0x1001202c
10005cf5:	5f                   	pop    %edi
10005cf6:	5b                   	pop    %ebx
10005cf7:	5e                   	pop    %esi
10005cf8:	8b e5                	mov    %ebp,%esp
10005cfa:	5d                   	pop    %ebp
10005cfb:	c3                   	ret    
10005cfc:	55                   	push   %ebp
10005cfd:	8b ec                	mov    %esp,%ebp
10005cff:	b8 88 1a 00 00       	mov    $0x1a88,%eax
10005d04:	e8 67 6a 00 00       	call   0x1000c770
10005d09:	57                   	push   %edi
10005d0a:	6a 42                	push   $0x42
10005d0c:	33 ff                	xor    %edi,%edi
10005d0e:	8d 45 90             	lea    -0x70(%ebp),%eax
10005d11:	57                   	push   %edi
10005d12:	50                   	push   %eax
10005d13:	e8 f7 ed ff ff       	call   0x10004b0f
10005d18:	83 c4 0c             	add    $0xc,%esp
10005d1b:	e8 41 f9 ff ff       	call   0x10005661
10005d20:	b9 00 06 00 00       	mov    $0x600,%ecx
10005d25:	66 3b c1             	cmp    %cx,%ax
10005d28:	0f 82 79 01 00 00    	jb     0x10005ea7
10005d2e:	e8 b9 01 00 00       	call   0x10005eec
10005d33:	85 c0                	test   %eax,%eax
10005d35:	0f 84 6c 01 00 00    	je     0x10005ea7
10005d3b:	6a 04                	push   $0x4
10005d3d:	68 5c d1 00 10       	push   $0x1000d15c
10005d42:	57                   	push   %edi
10005d43:	ff 15 b0 20 01 10    	call   *0x100120b0
10005d49:	a3 a0 2d 01 10       	mov    %eax,0x10012da0
10005d4e:	8d 45 90             	lea    -0x70(%ebp),%eax
10005d51:	50                   	push   %eax
10005d52:	57                   	push   %edi
10005d53:	68 8c 1f 01 10       	push   $0x10011f8c
10005d58:	ff 15 18 20 01 10    	call   *0x10012018
10005d5e:	85 c0                	test   %eax,%eax
10005d60:	0f 85 41 01 00 00    	jne    0x10005ea7
10005d66:	57                   	push   %edi
10005d67:	57                   	push   %edi
10005d68:	57                   	push   %edi
10005d69:	57                   	push   %edi
10005d6a:	8d 45 08             	lea    0x8(%ebp),%eax
10005d6d:	50                   	push   %eax
10005d6e:	6a 01                	push   $0x1
10005d70:	ff 35 8c 1f 01 10    	pushl  0x10011f8c
10005d76:	ff 15 94 20 01 10    	call   *0x10012094
10005d7c:	85 c0                	test   %eax,%eax
10005d7e:	0f 85 23 01 00 00    	jne    0x10005ea7
10005d84:	53                   	push   %ebx
10005d85:	56                   	push   %esi
10005d86:	8d 45 f4             	lea    -0xc(%ebp),%eax
10005d89:	c7 45 f8 0a 00 00 00 	movl   $0xa,-0x8(%ebp)
10005d90:	50                   	push   %eax
10005d91:	8d 85 78 e5 ff ff    	lea    -0x1a88(%ebp),%eax
10005d97:	50                   	push   %eax
10005d98:	8d 45 f8             	lea    -0x8(%ebp),%eax
10005d9b:	50                   	push   %eax
10005d9c:	8d 45 f0             	lea    -0x10(%ebp),%eax
10005d9f:	50                   	push   %eax
10005da0:	ff 35 8c 1f 01 10    	pushl  0x10011f8c
10005da6:	ff 15 70 22 01 10    	call   *0x10012270
10005dac:	85 c0                	test   %eax,%eax
10005dae:	0f 85 d4 00 00 00    	jne    0x10005e88
10005db4:	8b df                	mov    %edi,%ebx
10005db6:	89 5d fc             	mov    %ebx,-0x4(%ebp)
10005db9:	39 5d f8             	cmp    %ebx,-0x8(%ebp)
10005dbc:	0f 86 c6 00 00 00    	jbe    0x10005e88
10005dc2:	8d b5 78 e5 ff ff    	lea    -0x1a88(%ebp),%esi
10005dc8:	8b 86 8c 02 00 00    	mov    0x28c(%esi),%eax
10005dce:	83 f8 03             	cmp    $0x3,%eax
10005dd1:	75 54                	jne    0x10005e27
10005dd3:	68 20 00 01 00       	push   $0x10020
10005dd8:	8d 86 0c 02 00 00    	lea    0x20c(%esi),%eax
10005dde:	50                   	push   %eax
10005ddf:	ff 35 a0 2d 01 10    	pushl  0x10012da0
10005de5:	ff 15 58 22 01 10    	call   *0x10012258
10005deb:	8b d8                	mov    %eax,%ebx
10005ded:	85 db                	test   %ebx,%ebx
10005def:	0f 84 93 00 00 00    	je     0x10005e88
10005df5:	6a 06                	push   $0x6
10005df7:	59                   	pop    %ecx
10005df8:	89 7d d4             	mov    %edi,-0x2c(%ebp)
10005dfb:	33 c0                	xor    %eax,%eax
10005dfd:	8d 7d d8             	lea    -0x28(%ebp),%edi
10005e00:	f3 ab                	rep stos %eax,%es:(%edi)
10005e02:	8d 45 d4             	lea    -0x2c(%ebp),%eax
10005e05:	50                   	push   %eax
10005e06:	6a 01                	push   $0x1
10005e08:	53                   	push   %ebx
10005e09:	ff 15 50 21 01 10    	call   *0x10012150
10005e0f:	85 c0                	test   %eax,%eax
10005e11:	74 22                	je     0x10005e35
10005e13:	53                   	push   %ebx
10005e14:	ff 15 40 20 01 10    	call   *0x10012040
10005e1a:	85 c0                	test   %eax,%eax
10005e1c:	74 6a                	je     0x10005e88
10005e1e:	53                   	push   %ebx
10005e1f:	ff 15 a4 21 01 10    	call   *0x100121a4
10005e25:	eb 40                	jmp    0x10005e67
10005e27:	83 3e 04             	cmpl   $0x4,(%esi)
10005e2a:	74 46                	je     0x10005e72
10005e2c:	3d e8 03 00 00       	cmp    $0x3e8,%eax
10005e31:	74 3f                	je     0x10005e72
10005e33:	eb 05                	jmp    0x10005e3a
10005e35:	8b 5d fc             	mov    -0x4(%ebp),%ebx
10005e38:	33 ff                	xor    %edi,%edi
10005e3a:	ff 36                	pushl  (%esi)
10005e3c:	e8 00 ee ff ff       	call   0x10004c41
10005e41:	59                   	pop    %ecx
10005e42:	85 c0                	test   %eax,%eax
10005e44:	75 2c                	jne    0x10005e72
10005e46:	ff 36                	pushl  (%esi)
10005e48:	57                   	push   %edi
10005e49:	6a 01                	push   $0x1
10005e4b:	ff 15 18 22 01 10    	call   *0x10012218
10005e51:	8b f8                	mov    %eax,%edi
10005e53:	85 ff                	test   %edi,%edi
10005e55:	74 10                	je     0x10005e67
10005e57:	6a 00                	push   $0x0
10005e59:	57                   	push   %edi
10005e5a:	ff 15 a4 22 01 10    	call   *0x100122a4
10005e60:	57                   	push   %edi
10005e61:	e8 98 ef ff ff       	call   0x10004dfe
10005e66:	59                   	pop    %ecx
10005e67:	ff 36                	pushl  (%esi)
10005e69:	e8 86 ed ff ff       	call   0x10004bf4
10005e6e:	8b 5d fc             	mov    -0x4(%ebp),%ebx
10005e71:	59                   	pop    %ecx
10005e72:	43                   	inc    %ebx
10005e73:	81 c6 9c 02 00 00    	add    $0x29c,%esi
10005e79:	6a 00                	push   $0x0
10005e7b:	89 5d fc             	mov    %ebx,-0x4(%ebp)
10005e7e:	5f                   	pop    %edi
10005e7f:	3b 5d f8             	cmp    -0x8(%ebp),%ebx
10005e82:	0f 82 40 ff ff ff    	jb     0x10005dc8
10005e88:	ff 35 8c 1f 01 10    	pushl  0x10011f8c
10005e8e:	ff 15 28 22 01 10    	call   *0x10012228
10005e94:	ff 35 a0 2d 01 10    	pushl  0x10012da0
10005e9a:	ff 15 a4 21 01 10    	call   *0x100121a4
10005ea0:	33 c0                	xor    %eax,%eax
10005ea2:	5e                   	pop    %esi
10005ea3:	40                   	inc    %eax
10005ea4:	5b                   	pop    %ebx
10005ea5:	eb 02                	jmp    0x10005ea9
10005ea7:	33 c0                	xor    %eax,%eax
10005ea9:	5f                   	pop    %edi
10005eaa:	8b e5                	mov    %ebp,%esp
10005eac:	5d                   	pop    %ebp
10005ead:	c3                   	ret    
10005eae:	57                   	push   %edi
10005eaf:	6a 00                	push   $0x0
10005eb1:	6a 00                	push   $0x0
10005eb3:	ff 15 2c 21 01 10    	call   *0x1001212c
10005eb9:	8b f8                	mov    %eax,%edi
10005ebb:	85 ff                	test   %edi,%edi
10005ebd:	75 02                	jne    0x10005ec1
10005ebf:	5f                   	pop    %edi
10005ec0:	c3                   	ret    
10005ec1:	8d 04 3f             	lea    (%edi,%edi,1),%eax
10005ec4:	56                   	push   %esi
10005ec5:	50                   	push   %eax
10005ec6:	e8 bd eb ff ff       	call   0x10004a88
10005ecb:	8b f0                	mov    %eax,%esi
10005ecd:	59                   	pop    %ecx
10005ece:	85 f6                	test   %esi,%esi
10005ed0:	74 17                	je     0x10005ee9
10005ed2:	57                   	push   %edi
10005ed3:	56                   	push   %esi
10005ed4:	ff 15 2c 21 01 10    	call   *0x1001212c
10005eda:	85 c0                	test   %eax,%eax
10005edc:	75 09                	jne    0x10005ee7
10005ede:	56                   	push   %esi
10005edf:	e8 f1 eb ff ff       	call   0x10004ad5
10005ee4:	59                   	pop    %ecx
10005ee5:	33 f6                	xor    %esi,%esi
10005ee7:	8b c6                	mov    %esi,%eax
10005ee9:	5e                   	pop    %esi
10005eea:	5f                   	pop    %edi
10005eeb:	c3                   	ret    
10005eec:	55                   	push   %ebp
10005eed:	8b ec                	mov    %esp,%ebp
10005eef:	81 ec 1c 01 00 00    	sub    $0x11c,%esp
10005ef5:	53                   	push   %ebx
10005ef6:	56                   	push   %esi
10005ef7:	33 db                	xor    %ebx,%ebx
10005ef9:	c7 85 e4 fe ff ff 1c 	movl   $0x11c,-0x11c(%ebp)
10005f00:	01 00 00 
10005f03:	68 00 01 00 00       	push   $0x100
10005f08:	8d 85 f8 fe ff ff    	lea    -0x108(%ebp),%eax
10005f0e:	89 9d e8 fe ff ff    	mov    %ebx,-0x118(%ebp)
10005f14:	53                   	push   %ebx
10005f15:	50                   	push   %eax
10005f16:	89 9d ec fe ff ff    	mov    %ebx,-0x114(%ebp)
10005f1c:	89 9d f0 fe ff ff    	mov    %ebx,-0x110(%ebp)
10005f22:	89 9d f4 fe ff ff    	mov    %ebx,-0x10c(%ebp)
10005f28:	e8 e2 eb ff ff       	call   0x10004b0f
10005f2d:	83 c4 0c             	add    $0xc,%esp
10005f30:	c7 45 fc 00 00 01 00 	movl   $0x10000,-0x4(%ebp)
10005f37:	be 80 00 00 00       	mov    $0x80,%esi
10005f3c:	33 c0                	xor    %eax,%eax
10005f3e:	89 45 f8             	mov    %eax,-0x8(%ebp)
10005f41:	6a 01                	push   $0x1
10005f43:	56                   	push   %esi
10005f44:	53                   	push   %ebx
10005f45:	53                   	push   %ebx
10005f46:	ff 15 20 d0 00 10    	call   *0x1000d020
10005f4c:	52                   	push   %edx
10005f4d:	50                   	push   %eax
10005f4e:	56                   	push   %esi
10005f4f:	8d 85 e4 fe ff ff    	lea    -0x11c(%ebp),%eax
10005f55:	50                   	push   %eax
10005f56:	ff 15 28 d0 00 10    	call   *0x1000d028
10005f5c:	f7 d8                	neg    %eax
10005f5e:	5e                   	pop    %esi
10005f5f:	1b c0                	sbb    %eax,%eax
10005f61:	40                   	inc    %eax
10005f62:	5b                   	pop    %ebx
10005f63:	8b e5                	mov    %ebp,%esp
10005f65:	5d                   	pop    %ebp
10005f66:	c3                   	ret    
10005f67:	55                   	push   %ebp
10005f68:	8b ec                	mov    %esp,%ebp
10005f6a:	53                   	push   %ebx
10005f6b:	56                   	push   %esi
10005f6c:	57                   	push   %edi
10005f6d:	33 db                	xor    %ebx,%ebx
10005f6f:	53                   	push   %ebx
10005f70:	53                   	push   %ebx
10005f71:	6a ff                	push   $0xffffffff
10005f73:	ff 75 08             	pushl  0x8(%ebp)
10005f76:	8b f3                	mov    %ebx,%esi
10005f78:	53                   	push   %ebx
10005f79:	53                   	push   %ebx
10005f7a:	ff 15 3c 20 01 10    	call   *0x1001203c
10005f80:	8b f8                	mov    %eax,%edi
10005f82:	85 ff                	test   %edi,%edi
10005f84:	74 2c                	je     0x10005fb2
10005f86:	8d 04 3f             	lea    (%edi,%edi,1),%eax
10005f89:	50                   	push   %eax
10005f8a:	e8 f9 ea ff ff       	call   0x10004a88
10005f8f:	8b f0                	mov    %eax,%esi
10005f91:	59                   	pop    %ecx
10005f92:	85 f6                	test   %esi,%esi
10005f94:	74 1c                	je     0x10005fb2
10005f96:	57                   	push   %edi
10005f97:	56                   	push   %esi
10005f98:	6a ff                	push   $0xffffffff
10005f9a:	ff 75 08             	pushl  0x8(%ebp)
10005f9d:	53                   	push   %ebx
10005f9e:	53                   	push   %ebx
10005f9f:	ff 15 3c 20 01 10    	call   *0x1001203c
10005fa5:	85 c0                	test   %eax,%eax
10005fa7:	75 09                	jne    0x10005fb2
10005fa9:	56                   	push   %esi
10005faa:	e8 26 eb ff ff       	call   0x10004ad5
10005faf:	59                   	pop    %ecx
10005fb0:	8b f3                	mov    %ebx,%esi
10005fb2:	5f                   	pop    %edi
10005fb3:	8b c6                	mov    %esi,%eax
10005fb5:	5e                   	pop    %esi
10005fb6:	5b                   	pop    %ebx
10005fb7:	5d                   	pop    %ebp
10005fb8:	c3                   	ret    
10005fb9:	55                   	push   %ebp
10005fba:	8b ec                	mov    %esp,%ebp
10005fbc:	53                   	push   %ebx
10005fbd:	57                   	push   %edi
10005fbe:	8b 7d 0c             	mov    0xc(%ebp),%edi
10005fc1:	8d 45 0c             	lea    0xc(%ebp),%eax
10005fc4:	33 db                	xor    %ebx,%ebx
10005fc6:	53                   	push   %ebx
10005fc7:	53                   	push   %ebx
10005fc8:	50                   	push   %eax
10005fc9:	53                   	push   %ebx
10005fca:	6a 01                	push   $0x1
10005fcc:	53                   	push   %ebx
10005fcd:	ff 75 08             	pushl  0x8(%ebp)
10005fd0:	89 1f                	mov    %ebx,(%edi)
10005fd2:	ff 15 f0 20 01 10    	call   *0x100120f0
10005fd8:	85 c0                	test   %eax,%eax
10005fda:	74 3a                	je     0x10006016
10005fdc:	56                   	push   %esi
10005fdd:	ff 75 0c             	pushl  0xc(%ebp)
10005fe0:	e8 a3 ea ff ff       	call   0x10004a88
10005fe5:	8b f0                	mov    %eax,%esi
10005fe7:	59                   	pop    %ecx
10005fe8:	85 f6                	test   %esi,%esi
10005fea:	74 29                	je     0x10006015
10005fec:	53                   	push   %ebx
10005fed:	53                   	push   %ebx
10005fee:	8d 45 0c             	lea    0xc(%ebp),%eax
10005ff1:	50                   	push   %eax
10005ff2:	56                   	push   %esi
10005ff3:	6a 01                	push   $0x1
10005ff5:	53                   	push   %ebx
10005ff6:	ff 75 08             	pushl  0x8(%ebp)
10005ff9:	ff 15 f0 20 01 10    	call   *0x100120f0
10005fff:	85 c0                	test   %eax,%eax
10006001:	74 07                	je     0x1000600a
10006003:	8b 45 0c             	mov    0xc(%ebp),%eax
10006006:	89 07                	mov    %eax,(%edi)
10006008:	eb 09                	jmp    0x10006013
1000600a:	56                   	push   %esi
1000600b:	e8 c5 ea ff ff       	call   0x10004ad5
10006010:	59                   	pop    %ecx
10006011:	8b f3                	mov    %ebx,%esi
10006013:	8b c6                	mov    %esi,%eax
10006015:	5e                   	pop    %esi
10006016:	5f                   	pop    %edi
10006017:	5b                   	pop    %ebx
10006018:	5d                   	pop    %ebp
10006019:	c3                   	ret    
1000601a:	55                   	push   %ebp
1000601b:	8b ec                	mov    %esp,%ebp
1000601d:	57                   	push   %edi
1000601e:	33 c0                	xor    %eax,%eax
10006020:	bf 00 00 00 40       	mov    $0x40000000,%edi
10006025:	39 45 10             	cmp    %eax,0x10(%ebp)
10006028:	0f 45 f8             	cmovne %eax,%edi
1000602b:	8d 45 10             	lea    0x10(%ebp),%eax
1000602e:	50                   	push   %eax
1000602f:	6a 00                	push   $0x0
10006031:	83 cf 01             	or     $0x1,%edi
10006034:	57                   	push   %edi
10006035:	ff 75 0c             	pushl  0xc(%ebp)
10006038:	ff 75 08             	pushl  0x8(%ebp)
1000603b:	ff 15 78 20 01 10    	call   *0x10012078
10006041:	85 c0                	test   %eax,%eax
10006043:	74 35                	je     0x1000607a
10006045:	8b 45 10             	mov    0x10(%ebp),%eax
10006048:	03 c0                	add    %eax,%eax
1000604a:	56                   	push   %esi
1000604b:	50                   	push   %eax
1000604c:	e8 37 ea ff ff       	call   0x10004a88
10006051:	8b f0                	mov    %eax,%esi
10006053:	59                   	pop    %ecx
10006054:	85 f6                	test   %esi,%esi
10006056:	74 21                	je     0x10006079
10006058:	8d 45 10             	lea    0x10(%ebp),%eax
1000605b:	50                   	push   %eax
1000605c:	56                   	push   %esi
1000605d:	57                   	push   %edi
1000605e:	ff 75 0c             	pushl  0xc(%ebp)
10006061:	ff 75 08             	pushl  0x8(%ebp)
10006064:	ff 15 78 20 01 10    	call   *0x10012078
1000606a:	85 c0                	test   %eax,%eax
1000606c:	75 09                	jne    0x10006077
1000606e:	56                   	push   %esi
1000606f:	e8 61 ea ff ff       	call   0x10004ad5
10006074:	59                   	pop    %ecx
10006075:	33 f6                	xor    %esi,%esi
10006077:	8b c6                	mov    %esi,%eax
10006079:	5e                   	pop    %esi
1000607a:	5f                   	pop    %edi
1000607b:	5d                   	pop    %ebp
1000607c:	c3                   	ret    
1000607d:	55                   	push   %ebp
1000607e:	8b ec                	mov    %esp,%ebp
10006080:	8b 55 08             	mov    0x8(%ebp),%edx
10006083:	b8 05 15 00 00       	mov    $0x1505,%eax
10006088:	eb 09                	jmp    0x10006093
1000608a:	6b c0 21             	imul   $0x21,%eax,%eax
1000608d:	42                   	inc    %edx
1000608e:	0f b6 c9             	movzbl %cl,%ecx
10006091:	03 c1                	add    %ecx,%eax
10006093:	8a 0a                	mov    (%edx),%cl
10006095:	84 c9                	test   %cl,%cl
10006097:	75 f1                	jne    0x1000608a
10006099:	5d                   	pop    %ebp
1000609a:	c3                   	ret    
1000609b:	55                   	push   %ebp
1000609c:	8b ec                	mov    %esp,%ebp
1000609e:	8b 55 08             	mov    0x8(%ebp),%edx
100060a1:	b8 05 15 00 00       	mov    $0x1505,%eax
100060a6:	eb 0b                	jmp    0x100060b3
100060a8:	6b c0 21             	imul   $0x21,%eax,%eax
100060ab:	8d 52 02             	lea    0x2(%edx),%edx
100060ae:	0f b7 c9             	movzwl %cx,%ecx
100060b1:	03 c1                	add    %ecx,%eax
100060b3:	0f b7 0a             	movzwl (%edx),%ecx
100060b6:	66 85 c9             	test   %cx,%cx
100060b9:	75 ed                	jne    0x100060a8
100060bb:	5d                   	pop    %ebp
100060bc:	c3                   	ret    
100060bd:	55                   	push   %ebp
100060be:	8b ec                	mov    %esp,%ebp
100060c0:	8b 55 08             	mov    0x8(%ebp),%edx
100060c3:	03 55 0c             	add    0xc(%ebp),%edx
100060c6:	ff 75 18             	pushl  0x18(%ebp)
100060c9:	8b 4d 10             	mov    0x10(%ebp),%ecx
100060cc:	ff 75 14             	pushl  0x14(%ebp)
100060cf:	8d 04 0a             	lea    (%edx,%ecx,1),%eax
100060d2:	50                   	push   %eax
100060d3:	51                   	push   %ecx
100060d4:	52                   	push   %edx
100060d5:	e8 19 0d 00 00       	call   0x10006df3
100060da:	83 c4 14             	add    $0x14,%esp
100060dd:	5d                   	pop    %ebp
100060de:	c3                   	ret    
100060df:	55                   	push   %ebp
100060e0:	8b ec                	mov    %esp,%ebp
100060e2:	51                   	push   %ecx
100060e3:	83 65 fc 00          	andl   $0x0,-0x4(%ebp)
100060e7:	8d 45 fc             	lea    -0x4(%ebp),%eax
100060ea:	56                   	push   %esi
100060eb:	50                   	push   %eax
100060ec:	8d 45 0c             	lea    0xc(%ebp),%eax
100060ef:	50                   	push   %eax
100060f0:	ff 75 08             	pushl  0x8(%ebp)
100060f3:	e8 00 05 00 00       	call   0x100065f8
100060f8:	83 c4 0c             	add    $0xc,%esp
100060fb:	eb 22                	jmp    0x1000611f
100060fd:	56                   	push   %esi
100060fe:	ff 75 10             	pushl  0x10(%ebp)
10006101:	ff 55 14             	call   *0x14(%ebp)
10006104:	8d 45 fc             	lea    -0x4(%ebp),%eax
10006107:	33 c9                	xor    %ecx,%ecx
10006109:	50                   	push   %eax
1000610a:	8d 45 0c             	lea    0xc(%ebp),%eax
1000610d:	85 f6                	test   %esi,%esi
1000610f:	50                   	push   %eax
10006110:	8b 45 08             	mov    0x8(%ebp),%eax
10006113:	0f 45 c1             	cmovne %ecx,%eax
10006116:	50                   	push   %eax
10006117:	e8 dc 04 00 00       	call   0x100065f8
1000611c:	83 c4 14             	add    $0x14,%esp
1000611f:	8b f0                	mov    %eax,%esi
10006121:	85 f6                	test   %esi,%esi
10006123:	75 d8                	jne    0x100060fd
10006125:	5e                   	pop    %esi
10006126:	8b e5                	mov    %ebp,%esp
10006128:	5d                   	pop    %ebp
10006129:	c3                   	ret    
1000612a:	55                   	push   %ebp
1000612b:	8b ec                	mov    %esp,%ebp
1000612d:	57                   	push   %edi
1000612e:	8b 7d 08             	mov    0x8(%ebp),%edi
10006131:	66 83 3f 5e          	cmpw   $0x5e,(%edi)
10006135:	75 10                	jne    0x10006147
10006137:	ff 75 0c             	pushl  0xc(%ebp)
1000613a:	8d 47 02             	lea    0x2(%edi),%eax
1000613d:	50                   	push   %eax
1000613e:	e8 2b 00 00 00       	call   0x1000616e
10006143:	59                   	pop    %ecx
10006144:	59                   	pop    %ecx
10006145:	eb 24                	jmp    0x1000616b
10006147:	56                   	push   %esi
10006148:	8b 75 0c             	mov    0xc(%ebp),%esi
1000614b:	56                   	push   %esi
1000614c:	57                   	push   %edi
1000614d:	e8 1c 00 00 00       	call   0x1000616e
10006152:	59                   	pop    %ecx
10006153:	59                   	pop    %ecx
10006154:	85 c0                	test   %eax,%eax
10006156:	75 0f                	jne    0x10006167
10006158:	66 8b 06             	mov    (%esi),%ax
1000615b:	83 c6 02             	add    $0x2,%esi
1000615e:	66 85 c0             	test   %ax,%ax
10006161:	75 e8                	jne    0x1000614b
10006163:	33 c0                	xor    %eax,%eax
10006165:	eb 03                	jmp    0x1000616a
10006167:	33 c0                	xor    %eax,%eax
10006169:	40                   	inc    %eax
1000616a:	5e                   	pop    %esi
1000616b:	5f                   	pop    %edi
1000616c:	5d                   	pop    %ebp
1000616d:	c3                   	ret    
1000616e:	55                   	push   %ebp
1000616f:	8b ec                	mov    %esp,%ebp
10006171:	8b 4d 08             	mov    0x8(%ebp),%ecx
10006174:	56                   	push   %esi
10006175:	57                   	push   %edi
10006176:	0f b7 01             	movzwl (%ecx),%eax
10006179:	66 85 c0             	test   %ax,%ax
1000617c:	74 39                	je     0x100061b7
1000617e:	8b 55 0c             	mov    0xc(%ebp),%edx
10006181:	8d 79 02             	lea    0x2(%ecx),%edi
10006184:	0f b7 37             	movzwl (%edi),%esi
10006187:	83 fe 2a             	cmp    $0x2a,%esi
1000618a:	74 40                	je     0x100061cc
1000618c:	66 83 f8 24          	cmp    $0x24,%ax
10006190:	75 05                	jne    0x10006197
10006192:	66 85 f6             	test   %si,%si
10006195:	74 27                	je     0x100061be
10006197:	0f b7 0a             	movzwl (%edx),%ecx
1000619a:	66 85 c9             	test   %cx,%cx
1000619d:	74 29                	je     0x100061c8
1000619f:	66 83 f8 2e          	cmp    $0x2e,%ax
100061a3:	74 05                	je     0x100061aa
100061a5:	66 3b c1             	cmp    %cx,%ax
100061a8:	75 1e                	jne    0x100061c8
100061aa:	8b cf                	mov    %edi,%ecx
100061ac:	83 c2 02             	add    $0x2,%edx
100061af:	0f b7 01             	movzwl (%ecx),%eax
100061b2:	66 85 c0             	test   %ax,%ax
100061b5:	75 ca                	jne    0x10006181
100061b7:	33 c0                	xor    %eax,%eax
100061b9:	40                   	inc    %eax
100061ba:	5f                   	pop    %edi
100061bb:	5e                   	pop    %esi
100061bc:	5d                   	pop    %ebp
100061bd:	c3                   	ret    
100061be:	33 c0                	xor    %eax,%eax
100061c0:	66 39 02             	cmp    %ax,(%edx)
100061c3:	0f 94 c0             	sete   %al
100061c6:	eb f2                	jmp    0x100061ba
100061c8:	33 c0                	xor    %eax,%eax
100061ca:	eb ee                	jmp    0x100061ba
100061cc:	52                   	push   %edx
100061cd:	8d 41 04             	lea    0x4(%ecx),%eax
100061d0:	50                   	push   %eax
100061d1:	0f b7 01             	movzwl (%ecx),%eax
100061d4:	50                   	push   %eax
100061d5:	e8 05 00 00 00       	call   0x100061df
100061da:	83 c4 0c             	add    $0xc,%esp
100061dd:	eb db                	jmp    0x100061ba
100061df:	55                   	push   %ebp
100061e0:	8b ec                	mov    %esp,%ebp
100061e2:	56                   	push   %esi
100061e3:	8b 75 10             	mov    0x10(%ebp),%esi
100061e6:	56                   	push   %esi
100061e7:	ff 75 0c             	pushl  0xc(%ebp)
100061ea:	e8 7f ff ff ff       	call   0x1000616e
100061ef:	59                   	pop    %ecx
100061f0:	59                   	pop    %ecx
100061f1:	85 c0                	test   %eax,%eax
100061f3:	75 1c                	jne    0x10006211
100061f5:	0f b7 06             	movzwl (%esi),%eax
100061f8:	66 85 c0             	test   %ax,%ax
100061fb:	74 10                	je     0x1000620d
100061fd:	83 c6 02             	add    $0x2,%esi
10006200:	66 3b 45 08          	cmp    0x8(%ebp),%ax
10006204:	74 e0                	je     0x100061e6
10006206:	66 83 7d 08 2e       	cmpw   $0x2e,0x8(%ebp)
1000620b:	74 d9                	je     0x100061e6
1000620d:	33 c0                	xor    %eax,%eax
1000620f:	eb 03                	jmp    0x10006214
10006211:	33 c0                	xor    %eax,%eax
10006213:	40                   	inc    %eax
10006214:	5e                   	pop    %esi
10006215:	5d                   	pop    %ebp
10006216:	c3                   	ret    
10006217:	55                   	push   %ebp
10006218:	8b ec                	mov    %esp,%ebp
1000621a:	56                   	push   %esi
1000621b:	8b 75 08             	mov    0x8(%ebp),%esi
1000621e:	57                   	push   %edi
1000621f:	33 ff                	xor    %edi,%edi
10006221:	39 7d 10             	cmp    %edi,0x10(%ebp)
10006224:	76 2c                	jbe    0x10006252
10006226:	53                   	push   %ebx
10006227:	8b 5d 0c             	mov    0xc(%ebp),%ebx
1000622a:	ff 74 fb 04          	pushl  0x4(%ebx,%edi,8)
1000622e:	ff 34 fb             	pushl  (%ebx,%edi,8)
10006231:	56                   	push   %esi
10006232:	e8 21 00 00 00       	call   0x10006258
10006237:	83 c4 0c             	add    $0xc,%esp
1000623a:	89 45 08             	mov    %eax,0x8(%ebp)
1000623d:	85 c0                	test   %eax,%eax
1000623f:	74 0a                	je     0x1000624b
10006241:	56                   	push   %esi
10006242:	e8 8e e8 ff ff       	call   0x10004ad5
10006247:	8b 75 08             	mov    0x8(%ebp),%esi
1000624a:	59                   	pop    %ecx
1000624b:	47                   	inc    %edi
1000624c:	3b 7d 10             	cmp    0x10(%ebp),%edi
1000624f:	72 d9                	jb     0x1000622a
10006251:	5b                   	pop    %ebx
10006252:	5f                   	pop    %edi
10006253:	8b c6                	mov    %esi,%eax
10006255:	5e                   	pop    %esi
10006256:	5d                   	pop    %ebp
10006257:	c3                   	ret    
10006258:	55                   	push   %ebp
10006259:	8b ec                	mov    %esp,%ebp
1000625b:	83 ec 10             	sub    $0x10,%esp
1000625e:	53                   	push   %ebx
1000625f:	56                   	push   %esi
10006260:	57                   	push   %edi
10006261:	8b 7d 08             	mov    0x8(%ebp),%edi
10006264:	85 ff                	test   %edi,%edi
10006266:	0f 84 d7 00 00 00    	je     0x10006343
1000626c:	8b 5d 0c             	mov    0xc(%ebp),%ebx
1000626f:	85 db                	test   %ebx,%ebx
10006271:	0f 84 cc 00 00 00    	je     0x10006343
10006277:	83 7d 10 00          	cmpl   $0x0,0x10(%ebp)
1000627b:	0f 84 c2 00 00 00    	je     0x10006343
10006281:	53                   	push   %ebx
10006282:	e8 a4 02 00 00       	call   0x1000652b
10006287:	ff 75 10             	pushl  0x10(%ebp)
1000628a:	89 45 fc             	mov    %eax,-0x4(%ebp)
1000628d:	e8 99 02 00 00       	call   0x1000652b
10006292:	53                   	push   %ebx
10006293:	57                   	push   %edi
10006294:	89 45 f8             	mov    %eax,-0x8(%ebp)
10006297:	33 f6                	xor    %esi,%esi
10006299:	e8 f3 02 00 00       	call   0x10006591
1000629e:	83 c4 10             	add    $0x10,%esp
100062a1:	85 c0                	test   %eax,%eax
100062a3:	0f 84 9a 00 00 00    	je     0x10006343
100062a9:	8b 7d fc             	mov    -0x4(%ebp),%edi
100062ac:	8d 04 78             	lea    (%eax,%edi,2),%eax
100062af:	46                   	inc    %esi
100062b0:	53                   	push   %ebx
100062b1:	50                   	push   %eax
100062b2:	e8 da 02 00 00       	call   0x10006591
100062b7:	59                   	pop    %ecx
100062b8:	59                   	pop    %ecx
100062b9:	85 c0                	test   %eax,%eax
100062bb:	75 ef                	jne    0x100062ac
100062bd:	8b 7d 08             	mov    0x8(%ebp),%edi
100062c0:	85 f6                	test   %esi,%esi
100062c2:	74 7f                	je     0x10006343
100062c4:	57                   	push   %edi
100062c5:	e8 61 02 00 00       	call   0x1000652b
100062ca:	8b 4d f8             	mov    -0x8(%ebp),%ecx
100062cd:	2b 4d fc             	sub    -0x4(%ebp),%ecx
100062d0:	0f af ce             	imul   %esi,%ecx
100062d3:	03 c1                	add    %ecx,%eax
100062d5:	8d 04 45 02 00 00 00 	lea    0x2(,%eax,2),%eax
100062dc:	50                   	push   %eax
100062dd:	e8 a6 e7 ff ff       	call   0x10004a88
100062e2:	89 45 f0             	mov    %eax,-0x10(%ebp)
100062e5:	59                   	pop    %ecx
100062e6:	59                   	pop    %ecx
100062e7:	85 c0                	test   %eax,%eax
100062e9:	74 58                	je     0x10006343
100062eb:	89 45 08             	mov    %eax,0x8(%ebp)
100062ee:	8b 45 f8             	mov    -0x8(%ebp),%eax
100062f1:	03 c0                	add    %eax,%eax
100062f3:	89 45 f8             	mov    %eax,-0x8(%ebp)
100062f6:	53                   	push   %ebx
100062f7:	4e                   	dec    %esi
100062f8:	57                   	push   %edi
100062f9:	89 75 f4             	mov    %esi,-0xc(%ebp)
100062fc:	e8 90 02 00 00       	call   0x10006591
10006301:	8b f0                	mov    %eax,%esi
10006303:	2b f7                	sub    %edi,%esi
10006305:	d1 fe                	sar    %esi
10006307:	56                   	push   %esi
10006308:	57                   	push   %edi
10006309:	ff 75 08             	pushl  0x8(%ebp)
1000630c:	e8 3c 02 00 00       	call   0x1000654d
10006311:	ff 75 10             	pushl  0x10(%ebp)
10006314:	8d 0c 70             	lea    (%eax,%esi,2),%ecx
10006317:	51                   	push   %ecx
10006318:	e8 65 01 00 00       	call   0x10006482
1000631d:	8b 4d fc             	mov    -0x4(%ebp),%ecx
10006320:	83 c4 1c             	add    $0x1c,%esp
10006323:	03 45 f8             	add    -0x8(%ebp),%eax
10006326:	03 ce                	add    %esi,%ecx
10006328:	8b 75 f4             	mov    -0xc(%ebp),%esi
1000632b:	89 45 08             	mov    %eax,0x8(%ebp)
1000632e:	8d 3c 4f             	lea    (%edi,%ecx,2),%edi
10006331:	85 f6                	test   %esi,%esi
10006333:	75 c1                	jne    0x100062f6
10006335:	57                   	push   %edi
10006336:	50                   	push   %eax
10006337:	e8 46 01 00 00       	call   0x10006482
1000633c:	8b 45 f0             	mov    -0x10(%ebp),%eax
1000633f:	59                   	pop    %ecx
10006340:	59                   	pop    %ecx
10006341:	eb 02                	jmp    0x10006345
10006343:	33 c0                	xor    %eax,%eax
10006345:	5f                   	pop    %edi
10006346:	5e                   	pop    %esi
10006347:	5b                   	pop    %ebx
10006348:	8b e5                	mov    %ebp,%esp
1000634a:	5d                   	pop    %ebp
1000634b:	c3                   	ret    
1000634c:	55                   	push   %ebp
1000634d:	8b ec                	mov    %esp,%ebp
1000634f:	8b 45 08             	mov    0x8(%ebp),%eax
10006352:	8b c8                	mov    %eax,%ecx
10006354:	80 38 00             	cmpb   $0x0,(%eax)
10006357:	74 17                	je     0x10006370
10006359:	8a 11                	mov    (%ecx),%dl
1000635b:	80 fa 41             	cmp    $0x41,%dl
1000635e:	7c 0a                	jl     0x1000636a
10006360:	80 fa 5a             	cmp    $0x5a,%dl
10006363:	7f 05                	jg     0x1000636a
10006365:	80 ca 20             	or     $0x20,%dl
10006368:	88 11                	mov    %dl,(%ecx)
1000636a:	41                   	inc    %ecx
1000636b:	80 39 00             	cmpb   $0x0,(%ecx)
1000636e:	75 e9                	jne    0x10006359
10006370:	5d                   	pop    %ebp
10006371:	c3                   	ret    
10006372:	55                   	push   %ebp
10006373:	8b ec                	mov    %esp,%ebp
10006375:	8b 45 08             	mov    0x8(%ebp),%eax
10006378:	8b c8                	mov    %eax,%ecx
1000637a:	56                   	push   %esi
1000637b:	33 f6                	xor    %esi,%esi
1000637d:	66 39 30             	cmp    %si,(%eax)
10006380:	74 1b                	je     0x1000639d
10006382:	0f b7 11             	movzwl (%ecx),%edx
10006385:	83 fa 41             	cmp    $0x41,%edx
10006388:	72 0b                	jb     0x10006395
1000638a:	83 fa 5a             	cmp    $0x5a,%edx
1000638d:	77 06                	ja     0x10006395
1000638f:	83 ca 20             	or     $0x20,%edx
10006392:	66 89 11             	mov    %dx,(%ecx)
10006395:	83 c1 02             	add    $0x2,%ecx
10006398:	66 39 31             	cmp    %si,(%ecx)
1000639b:	75 e5                	jne    0x10006382
1000639d:	5e                   	pop    %esi
1000639e:	5d                   	pop    %ebp
1000639f:	c3                   	ret    
100063a0:	55                   	push   %ebp
100063a1:	8b ec                	mov    %esp,%ebp
100063a3:	56                   	push   %esi
100063a4:	ff 75 0c             	pushl  0xc(%ebp)
100063a7:	8b 75 08             	mov    0x8(%ebp),%esi
100063aa:	56                   	push   %esi
100063ab:	e8 7b 01 00 00       	call   0x1000652b
100063b0:	59                   	pop    %ecx
100063b1:	8d 0c 46             	lea    (%esi,%eax,2),%ecx
100063b4:	51                   	push   %ecx
100063b5:	e8 c8 00 00 00       	call   0x10006482
100063ba:	59                   	pop    %ecx
100063bb:	59                   	pop    %ecx
100063bc:	8b c6                	mov    %esi,%eax
100063be:	5e                   	pop    %esi
100063bf:	5d                   	pop    %ebp
100063c0:	c3                   	ret    
100063c1:	55                   	push   %ebp
100063c2:	8b ec                	mov    %esp,%ebp
100063c4:	8b 45 08             	mov    0x8(%ebp),%eax
100063c7:	8a 55 0c             	mov    0xc(%ebp),%dl
100063ca:	eb 05                	jmp    0x100063d1
100063cc:	3a ca                	cmp    %dl,%cl
100063ce:	74 0d                	je     0x100063dd
100063d0:	40                   	inc    %eax
100063d1:	8a 08                	mov    (%eax),%cl
100063d3:	84 c9                	test   %cl,%cl
100063d5:	75 f5                	jne    0x100063cc
100063d7:	3a ca                	cmp    %dl,%cl
100063d9:	74 02                	je     0x100063dd
100063db:	33 c0                	xor    %eax,%eax
100063dd:	5d                   	pop    %ebp
100063de:	c3                   	ret    
100063df:	55                   	push   %ebp
100063e0:	8b ec                	mov    %esp,%ebp
100063e2:	8b 55 0c             	mov    0xc(%ebp),%edx
100063e5:	53                   	push   %ebx
100063e6:	56                   	push   %esi
100063e7:	8b 75 08             	mov    0x8(%ebp),%esi
100063ea:	8a 1a                	mov    (%edx),%bl
100063ec:	0f be c3             	movsbl %bl,%eax
100063ef:	0f be 0e             	movsbl (%esi),%ecx
100063f2:	2b c8                	sub    %eax,%ecx
100063f4:	75 14                	jne    0x1000640a
100063f6:	2b f2                	sub    %edx,%esi
100063f8:	84 db                	test   %bl,%bl
100063fa:	74 0e                	je     0x1000640a
100063fc:	42                   	inc    %edx
100063fd:	8a 1a                	mov    (%edx),%bl
100063ff:	0f be 0c 16          	movsbl (%esi,%edx,1),%ecx
10006403:	0f be c3             	movsbl %bl,%eax
10006406:	2b c8                	sub    %eax,%ecx
10006408:	74 ee                	je     0x100063f8
1000640a:	5e                   	pop    %esi
1000640b:	5b                   	pop    %ebx
1000640c:	85 c9                	test   %ecx,%ecx
1000640e:	79 05                	jns    0x10006415
10006410:	83 c9 ff             	or     $0xffffffff,%ecx
10006413:	eb 08                	jmp    0x1000641d
10006415:	33 c0                	xor    %eax,%eax
10006417:	40                   	inc    %eax
10006418:	85 c9                	test   %ecx,%ecx
1000641a:	0f 4f c8             	cmovg  %eax,%ecx
1000641d:	8b c1                	mov    %ecx,%eax
1000641f:	5d                   	pop    %ebp
10006420:	c3                   	ret    
10006421:	55                   	push   %ebp
10006422:	8b ec                	mov    %esp,%ebp
10006424:	8b 55 0c             	mov    0xc(%ebp),%edx
10006427:	56                   	push   %esi
10006428:	8b 75 08             	mov    0x8(%ebp),%esi
1000642b:	57                   	push   %edi
1000642c:	0f b7 3a             	movzwl (%edx),%edi
1000642f:	0f b7 0e             	movzwl (%esi),%ecx
10006432:	2b cf                	sub    %edi,%ecx
10006434:	75 15                	jne    0x1000644b
10006436:	2b f2                	sub    %edx,%esi
10006438:	66 85 ff             	test   %di,%di
1000643b:	74 0e                	je     0x1000644b
1000643d:	83 c2 02             	add    $0x2,%edx
10006440:	0f b7 3a             	movzwl (%edx),%edi
10006443:	0f b7 0c 16          	movzwl (%esi,%edx,1),%ecx
10006447:	2b cf                	sub    %edi,%ecx
10006449:	74 ed                	je     0x10006438
1000644b:	5f                   	pop    %edi
1000644c:	5e                   	pop    %esi
1000644d:	85 c9                	test   %ecx,%ecx
1000644f:	79 05                	jns    0x10006456
10006451:	83 c9 ff             	or     $0xffffffff,%ecx
10006454:	eb 08                	jmp    0x1000645e
10006456:	33 c0                	xor    %eax,%eax
10006458:	40                   	inc    %eax
10006459:	85 c9                	test   %ecx,%ecx
1000645b:	0f 4f c8             	cmovg  %eax,%ecx
1000645e:	8b c1                	mov    %ecx,%eax
10006460:	5d                   	pop    %ebp
10006461:	c3                   	ret    
10006462:	55                   	push   %ebp
10006463:	8b ec                	mov    %esp,%ebp
10006465:	ff 75 0c             	pushl  0xc(%ebp)
10006468:	e8 ab 00 00 00       	call   0x10006518
1000646d:	40                   	inc    %eax
1000646e:	50                   	push   %eax
1000646f:	ff 75 0c             	pushl  0xc(%ebp)
10006472:	ff 75 08             	pushl  0x8(%ebp)
10006475:	e8 70 e6 ff ff       	call   0x10004aea
1000647a:	8b 45 08             	mov    0x8(%ebp),%eax
1000647d:	83 c4 10             	add    $0x10,%esp
10006480:	5d                   	pop    %ebp
10006481:	c3                   	ret    
10006482:	55                   	push   %ebp
10006483:	8b ec                	mov    %esp,%ebp
10006485:	ff 75 0c             	pushl  0xc(%ebp)
10006488:	e8 9e 00 00 00       	call   0x1000652b
1000648d:	8d 04 45 02 00 00 00 	lea    0x2(,%eax,2),%eax
10006494:	50                   	push   %eax
10006495:	ff 75 0c             	pushl  0xc(%ebp)
10006498:	ff 75 08             	pushl  0x8(%ebp)
1000649b:	e8 4a e6 ff ff       	call   0x10004aea
100064a0:	8b 45 08             	mov    0x8(%ebp),%eax
100064a3:	83 c4 10             	add    $0x10,%esp
100064a6:	5d                   	pop    %ebp
100064a7:	c3                   	ret    
100064a8:	55                   	push   %ebp
100064a9:	8b ec                	mov    %esp,%ebp
100064ab:	83 7d 08 00          	cmpl   $0x0,0x8(%ebp)
100064af:	75 04                	jne    0x100064b5
100064b1:	33 c0                	xor    %eax,%eax
100064b3:	5d                   	pop    %ebp
100064b4:	c3                   	ret    
100064b5:	57                   	push   %edi
100064b6:	ff 75 08             	pushl  0x8(%ebp)
100064b9:	e8 5a 00 00 00       	call   0x10006518
100064be:	40                   	inc    %eax
100064bf:	50                   	push   %eax
100064c0:	e8 c3 e5 ff ff       	call   0x10004a88
100064c5:	8b f8                	mov    %eax,%edi
100064c7:	59                   	pop    %ecx
100064c8:	59                   	pop    %ecx
100064c9:	85 ff                	test   %edi,%edi
100064cb:	74 0d                	je     0x100064da
100064cd:	ff 75 08             	pushl  0x8(%ebp)
100064d0:	57                   	push   %edi
100064d1:	e8 8c ff ff ff       	call   0x10006462
100064d6:	59                   	pop    %ecx
100064d7:	59                   	pop    %ecx
100064d8:	8b c7                	mov    %edi,%eax
100064da:	5f                   	pop    %edi
100064db:	5d                   	pop    %ebp
100064dc:	c3                   	ret    
100064dd:	55                   	push   %ebp
100064de:	8b ec                	mov    %esp,%ebp
100064e0:	83 7d 08 00          	cmpl   $0x0,0x8(%ebp)
100064e4:	75 04                	jne    0x100064ea
100064e6:	33 c0                	xor    %eax,%eax
100064e8:	5d                   	pop    %ebp
100064e9:	c3                   	ret    
100064ea:	57                   	push   %edi
100064eb:	ff 75 08             	pushl  0x8(%ebp)
100064ee:	e8 38 00 00 00       	call   0x1000652b
100064f3:	8d 04 45 02 00 00 00 	lea    0x2(,%eax,2),%eax
100064fa:	50                   	push   %eax
100064fb:	e8 88 e5 ff ff       	call   0x10004a88
10006500:	8b f8                	mov    %eax,%edi
10006502:	59                   	pop    %ecx
10006503:	59                   	pop    %ecx
10006504:	85 ff                	test   %edi,%edi
10006506:	74 0d                	je     0x10006515
10006508:	ff 75 08             	pushl  0x8(%ebp)
1000650b:	57                   	push   %edi
1000650c:	e8 71 ff ff ff       	call   0x10006482
10006511:	59                   	pop    %ecx
10006512:	59                   	pop    %ecx
10006513:	8b c7                	mov    %edi,%eax
10006515:	5f                   	pop    %edi
10006516:	5d                   	pop    %ebp
10006517:	c3                   	ret    
10006518:	55                   	push   %ebp
10006519:	8b ec                	mov    %esp,%ebp
1000651b:	8b 45 08             	mov    0x8(%ebp),%eax
1000651e:	8a 08                	mov    (%eax),%cl
10006520:	40                   	inc    %eax
10006521:	84 c9                	test   %cl,%cl
10006523:	75 f9                	jne    0x1000651e
10006525:	2b 45 08             	sub    0x8(%ebp),%eax
10006528:	48                   	dec    %eax
10006529:	5d                   	pop    %ebp
1000652a:	c3                   	ret    
1000652b:	55                   	push   %ebp
1000652c:	8b ec                	mov    %esp,%ebp
1000652e:	8b 55 08             	mov    0x8(%ebp),%edx
10006531:	85 d2                	test   %edx,%edx
10006533:	75 04                	jne    0x10006539
10006535:	33 c0                	xor    %eax,%eax
10006537:	5d                   	pop    %ebp
10006538:	c3                   	ret    
10006539:	8b c2                	mov    %edx,%eax
1000653b:	66 8b 08             	mov    (%eax),%cx
1000653e:	83 c0 02             	add    $0x2,%eax
10006541:	66 85 c9             	test   %cx,%cx
10006544:	75 f5                	jne    0x1000653b
10006546:	2b c2                	sub    %edx,%eax
10006548:	d1 f8                	sar    %eax
1000654a:	48                   	dec    %eax
1000654b:	5d                   	pop    %ebp
1000654c:	c3                   	ret    
1000654d:	55                   	push   %ebp
1000654e:	8b ec                	mov    %esp,%ebp
10006550:	8b 4d 10             	mov    0x10(%ebp),%ecx
10006553:	56                   	push   %esi
10006554:	57                   	push   %edi
10006555:	8b 7d 08             	mov    0x8(%ebp),%edi
10006558:	8b f7                	mov    %edi,%esi
1000655a:	85 c9                	test   %ecx,%ecx
1000655c:	74 2d                	je     0x1000658b
1000655e:	8b 55 0c             	mov    0xc(%ebp),%edx
10006561:	2b d7                	sub    %edi,%edx
10006563:	0f b7 04 3a          	movzwl (%edx,%edi,1),%eax
10006567:	66 89 07             	mov    %ax,(%edi)
1000656a:	83 c7 02             	add    $0x2,%edi
1000656d:	66 85 c0             	test   %ax,%ax
10006570:	74 05                	je     0x10006577
10006572:	83 e9 01             	sub    $0x1,%ecx
10006575:	75 ec                	jne    0x10006563
10006577:	85 c9                	test   %ecx,%ecx
10006579:	74 10                	je     0x1000658b
1000657b:	83 e9 01             	sub    $0x1,%ecx
1000657e:	74 0b                	je     0x1000658b
10006580:	33 c0                	xor    %eax,%eax
10006582:	d1 e9                	shr    %ecx
10006584:	f3 ab                	rep stos %eax,%es:(%edi)
10006586:	13 c9                	adc    %ecx,%ecx
10006588:	66 f3 ab             	rep stos %ax,%es:(%edi)
1000658b:	5f                   	pop    %edi
1000658c:	8b c6                	mov    %esi,%eax
1000658e:	5e                   	pop    %esi
1000658f:	5d                   	pop    %ebp
10006590:	c3                   	ret    
10006591:	55                   	push   %ebp
10006592:	8b ec                	mov    %esp,%ebp
10006594:	8b 55 08             	mov    0x8(%ebp),%edx
10006597:	33 c0                	xor    %eax,%eax
10006599:	53                   	push   %ebx
1000659a:	8b 5d 0c             	mov    0xc(%ebp),%ebx
1000659d:	66 39 03             	cmp    %ax,(%ebx)
100065a0:	75 04                	jne    0x100065a6
100065a2:	8b c2                	mov    %edx,%eax
100065a4:	eb 4b                	jmp    0x100065f1
100065a6:	0f b7 02             	movzwl (%edx),%eax
100065a9:	56                   	push   %esi
100065aa:	57                   	push   %edi
100065ab:	66 85 c0             	test   %ax,%ax
100065ae:	74 3d                	je     0x100065ed
100065b0:	8b fa                	mov    %edx,%edi
100065b2:	2b fb                	sub    %ebx,%edi
100065b4:	8b f3                	mov    %ebx,%esi
100065b6:	66 85 c0             	test   %ax,%ax
100065b9:	74 1d                	je     0x100065d8
100065bb:	0f b7 06             	movzwl (%esi),%eax
100065be:	66 85 c0             	test   %ax,%ax
100065c1:	74 31                	je     0x100065f4
100065c3:	0f b7 0c 37          	movzwl (%edi,%esi,1),%ecx
100065c7:	2b c8                	sub    %eax,%ecx
100065c9:	75 0d                	jne    0x100065d8
100065cb:	83 c6 02             	add    $0x2,%esi
100065ce:	33 c0                	xor    %eax,%eax
100065d0:	66 39 04 37          	cmp    %ax,(%edi,%esi,1)
100065d4:	75 e5                	jne    0x100065bb
100065d6:	eb 02                	jmp    0x100065da
100065d8:	33 c0                	xor    %eax,%eax
100065da:	66 39 06             	cmp    %ax,(%esi)
100065dd:	74 15                	je     0x100065f4
100065df:	83 c2 02             	add    $0x2,%edx
100065e2:	83 c7 02             	add    $0x2,%edi
100065e5:	0f b7 02             	movzwl (%edx),%eax
100065e8:	66 85 c0             	test   %ax,%ax
100065eb:	75 c7                	jne    0x100065b4
100065ed:	33 c0                	xor    %eax,%eax
100065ef:	5f                   	pop    %edi
100065f0:	5e                   	pop    %esi
100065f1:	5b                   	pop    %ebx
100065f2:	5d                   	pop    %ebp
100065f3:	c3                   	ret    
100065f4:	8b c2                	mov    %edx,%eax
100065f6:	eb f7                	jmp    0x100065ef
100065f8:	55                   	push   %ebp
100065f9:	8b ec                	mov    %esp,%ebp
100065fb:	8b 45 08             	mov    0x8(%ebp),%eax
100065fe:	85 c0                	test   %eax,%eax
10006600:	75 05                	jne    0x10006607
10006602:	8b 45 10             	mov    0x10(%ebp),%eax
10006605:	8b 00                	mov    (%eax),%eax
10006607:	0f b7 08             	movzwl (%eax),%ecx
1000660a:	53                   	push   %ebx
1000660b:	56                   	push   %esi
1000660c:	33 f6                	xor    %esi,%esi
1000660e:	57                   	push   %edi
1000660f:	8b 7d 0c             	mov    0xc(%ebp),%edi
10006612:	66 85 c9             	test   %cx,%cx
10006615:	74 2e                	je     0x10006645
10006617:	0f b7 1f             	movzwl (%edi),%ebx
1000661a:	8b d7                	mov    %edi,%edx
1000661c:	66 85 db             	test   %bx,%bx
1000661f:	74 14                	je     0x10006635
10006621:	8b f3                	mov    %ebx,%esi
10006623:	66 3b f1             	cmp    %cx,%si
10006626:	74 0b                	je     0x10006633
10006628:	83 c2 02             	add    $0x2,%edx
1000662b:	0f b7 32             	movzwl (%edx),%esi
1000662e:	66 85 f6             	test   %si,%si
10006631:	75 f0                	jne    0x10006623
10006633:	33 f6                	xor    %esi,%esi
10006635:	66 39 32             	cmp    %si,(%edx)
10006638:	74 0b                	je     0x10006645
1000663a:	83 c0 02             	add    $0x2,%eax
1000663d:	0f b7 08             	movzwl (%eax),%ecx
10006640:	66 85 c9             	test   %cx,%cx
10006643:	75 d5                	jne    0x1000661a
10006645:	8b c8                	mov    %eax,%ecx
10006647:	66 39 30             	cmp    %si,(%eax)
1000664a:	74 3c                	je     0x10006688
1000664c:	0f b7 1f             	movzwl (%edi),%ebx
1000664f:	8b d7                	mov    %edi,%edx
10006651:	66 85 db             	test   %bx,%bx
10006654:	74 1b                	je     0x10006671
10006656:	0f b7 30             	movzwl (%eax),%esi
10006659:	89 75 08             	mov    %esi,0x8(%ebp)
1000665c:	8b f3                	mov    %ebx,%esi
1000665e:	66 3b 75 08          	cmp    0x8(%ebp),%si
10006662:	74 0b                	je     0x1000666f
10006664:	83 c2 02             	add    $0x2,%edx
10006667:	0f b7 32             	movzwl (%edx),%esi
1000666a:	66 85 f6             	test   %si,%si
1000666d:	75 ef                	jne    0x1000665e
1000666f:	33 f6                	xor    %esi,%esi
10006671:	66 39 32             	cmp    %si,(%edx)
10006674:	75 0a                	jne    0x10006680
10006676:	83 c0 02             	add    $0x2,%eax
10006679:	66 39 30             	cmp    %si,(%eax)
1000667c:	75 d1                	jne    0x1000664f
1000667e:	eb 08                	jmp    0x10006688
10006680:	33 d2                	xor    %edx,%edx
10006682:	66 89 10             	mov    %dx,(%eax)
10006685:	83 c0 02             	add    $0x2,%eax
10006688:	8b 55 10             	mov    0x10(%ebp),%edx
1000668b:	5f                   	pop    %edi
1000668c:	5e                   	pop    %esi
1000668d:	5b                   	pop    %ebx
1000668e:	89 02                	mov    %eax,(%edx)
10006690:	33 d2                	xor    %edx,%edx
10006692:	3b c8                	cmp    %eax,%ecx
10006694:	0f 44 ca             	cmove  %edx,%ecx
10006697:	8b c1                	mov    %ecx,%eax
10006699:	5d                   	pop    %ebp
1000669a:	c3                   	ret    
1000669b:	55                   	push   %ebp
1000669c:	8b ec                	mov    %esp,%ebp
1000669e:	53                   	push   %ebx
1000669f:	56                   	push   %esi
100066a0:	57                   	push   %edi
100066a1:	33 db                	xor    %ebx,%ebx
100066a3:	53                   	push   %ebx
100066a4:	53                   	push   %ebx
100066a5:	53                   	push   %ebx
100066a6:	53                   	push   %ebx
100066a7:	6a ff                	push   $0xffffffff
100066a9:	ff 75 08             	pushl  0x8(%ebp)
100066ac:	8b f3                	mov    %ebx,%esi
100066ae:	53                   	push   %ebx
100066af:	53                   	push   %ebx
100066b0:	ff 15 00 21 01 10    	call   *0x10012100
100066b6:	8b f8                	mov    %eax,%edi
100066b8:	85 ff                	test   %edi,%edi
100066ba:	74 2e                	je     0x100066ea
100066bc:	8d 04 3f             	lea    (%edi,%edi,1),%eax
100066bf:	50                   	push   %eax
100066c0:	e8 c3 e3 ff ff       	call   0x10004a88
100066c5:	8b f0                	mov    %eax,%esi
100066c7:	59                   	pop    %ecx
100066c8:	85 f6                	test   %esi,%esi
100066ca:	74 1e                	je     0x100066ea
100066cc:	53                   	push   %ebx
100066cd:	53                   	push   %ebx
100066ce:	57                   	push   %edi
100066cf:	56                   	push   %esi
100066d0:	6a ff                	push   $0xffffffff
100066d2:	ff 75 08             	pushl  0x8(%ebp)
100066d5:	53                   	push   %ebx
100066d6:	53                   	push   %ebx
100066d7:	ff 15 00 21 01 10    	call   *0x10012100
100066dd:	85 c0                	test   %eax,%eax
100066df:	75 09                	jne    0x100066ea
100066e1:	56                   	push   %esi
100066e2:	e8 ee e3 ff ff       	call   0x10004ad5
100066e7:	59                   	pop    %ecx
100066e8:	8b f3                	mov    %ebx,%esi
100066ea:	5f                   	pop    %edi
100066eb:	8b c6                	mov    %esi,%eax
100066ed:	5e                   	pop    %esi
100066ee:	5b                   	pop    %ebx
100066ef:	5d                   	pop    %ebp
100066f0:	c3                   	ret    
100066f1:	55                   	push   %ebp
100066f2:	8b ec                	mov    %esp,%ebp
100066f4:	56                   	push   %esi
100066f5:	8b 75 08             	mov    0x8(%ebp),%esi
100066f8:	57                   	push   %edi
100066f9:	33 ff                	xor    %edi,%edi
100066fb:	39 7e 04             	cmp    %edi,0x4(%esi)
100066fe:	76 47                	jbe    0x10006747
10006700:	53                   	push   %ebx
10006701:	8b 46 08             	mov    0x8(%esi),%eax
10006704:	8b 1c b8             	mov    (%eax,%edi,4),%ebx
10006707:	eb 33                	jmp    0x1000673c
10006709:	8b c3                	mov    %ebx,%eax
1000670b:	8b 5b 08             	mov    0x8(%ebx),%ebx
1000670e:	89 45 08             	mov    %eax,0x8(%ebp)
10006711:	8b 08                	mov    (%eax),%ecx
10006713:	85 c9                	test   %ecx,%ecx
10006715:	74 0a                	je     0x10006721
10006717:	51                   	push   %ecx
10006718:	e8 b8 e3 ff ff       	call   0x10004ad5
1000671d:	8b 45 08             	mov    0x8(%ebp),%eax
10006720:	59                   	pop    %ecx
10006721:	8b 48 04             	mov    0x4(%eax),%ecx
10006724:	85 c9                	test   %ecx,%ecx
10006726:	74 0a                	je     0x10006732
10006728:	51                   	push   %ecx
10006729:	e8 a7 e3 ff ff       	call   0x10004ad5
1000672e:	8b 45 08             	mov    0x8(%ebp),%eax
10006731:	59                   	pop    %ecx
10006732:	50                   	push   %eax
10006733:	ff 36                	pushl  (%esi)
10006735:	e8 38 e3 ff ff       	call   0x10004a72
1000673a:	59                   	pop    %ecx
1000673b:	59                   	pop    %ecx
1000673c:	85 db                	test   %ebx,%ebx
1000673e:	75 c9                	jne    0x10006709
10006740:	47                   	inc    %edi
10006741:	3b 7e 04             	cmp    0x4(%esi),%edi
10006744:	72 bb                	jb     0x10006701
10006746:	5b                   	pop    %ebx
10006747:	ff 76 08             	pushl  0x8(%esi)
1000674a:	ff 36                	pushl  (%esi)
1000674c:	e8 21 e3 ff ff       	call   0x10004a72
10006751:	ff 36                	pushl  (%esi)
10006753:	e8 0c e3 ff ff       	call   0x10004a64
10006758:	83 c4 0c             	add    $0xc,%esp
1000675b:	5f                   	pop    %edi
1000675c:	5e                   	pop    %esi
1000675d:	5d                   	pop    %ebp
1000675e:	c3                   	ret    
1000675f:	55                   	push   %ebp
10006760:	8b ec                	mov    %esp,%ebp
10006762:	56                   	push   %esi
10006763:	ff 75 0c             	pushl  0xc(%ebp)
10006766:	e8 12 f9 ff ff       	call   0x1000607d
1000676b:	59                   	pop    %ecx
1000676c:	8b 4d 08             	mov    0x8(%ebp),%ecx
1000676f:	33 d2                	xor    %edx,%edx
10006771:	f7 71 04             	divl   0x4(%ecx)
10006774:	8b 41 08             	mov    0x8(%ecx),%eax
10006777:	8b 34 90             	mov    (%eax,%edx,4),%esi
1000677a:	eb 13                	jmp    0x1000678f
1000677c:	ff 75 0c             	pushl  0xc(%ebp)
1000677f:	ff 36                	pushl  (%esi)
10006781:	e8 59 fc ff ff       	call   0x100063df
10006786:	59                   	pop    %ecx
10006787:	59                   	pop    %ecx
10006788:	85 c0                	test   %eax,%eax
1000678a:	74 0c                	je     0x10006798
1000678c:	8b 76 08             	mov    0x8(%esi),%esi
1000678f:	85 f6                	test   %esi,%esi
10006791:	75 e9                	jne    0x1000677c
10006793:	33 c0                	xor    %eax,%eax
10006795:	5e                   	pop    %esi
10006796:	5d                   	pop    %ebp
10006797:	c3                   	ret    
10006798:	33 c0                	xor    %eax,%eax
1000679a:	40                   	inc    %eax
1000679b:	eb f8                	jmp    0x10006795
1000679d:	55                   	push   %ebp
1000679e:	8b ec                	mov    %esp,%ebp
100067a0:	56                   	push   %esi
100067a1:	ff 75 0c             	pushl  0xc(%ebp)
100067a4:	e8 f2 f8 ff ff       	call   0x1000609b
100067a9:	59                   	pop    %ecx
100067aa:	8b 4d 08             	mov    0x8(%ebp),%ecx
100067ad:	33 d2                	xor    %edx,%edx
100067af:	f7 71 04             	divl   0x4(%ecx)
100067b2:	8b 41 08             	mov    0x8(%ecx),%eax
100067b5:	8b 34 90             	mov    (%eax,%edx,4),%esi
100067b8:	eb 14                	jmp    0x100067ce
100067ba:	ff 75 0c             	pushl  0xc(%ebp)
100067bd:	ff 76 04             	pushl  0x4(%esi)
100067c0:	e8 5c fc ff ff       	call   0x10006421
100067c5:	59                   	pop    %ecx
100067c6:	59                   	pop    %ecx
100067c7:	85 c0                	test   %eax,%eax
100067c9:	74 0c                	je     0x100067d7
100067cb:	8b 76 08             	mov    0x8(%esi),%esi
100067ce:	85 f6                	test   %esi,%esi
100067d0:	75 e8                	jne    0x100067ba
100067d2:	33 c0                	xor    %eax,%eax
100067d4:	5e                   	pop    %esi
100067d5:	5d                   	pop    %ebp
100067d6:	c3                   	ret    
100067d7:	33 c0                	xor    %eax,%eax
100067d9:	40                   	inc    %eax
100067da:	eb f8                	jmp    0x100067d4
100067dc:	55                   	push   %ebp
100067dd:	8b ec                	mov    %esp,%ebp
100067df:	56                   	push   %esi
100067e0:	ff 75 0c             	pushl  0xc(%ebp)
100067e3:	e8 5f e2 ff ff       	call   0x10004a47
100067e8:	8b 75 08             	mov    0x8(%ebp),%esi
100067eb:	59                   	pop    %ecx
100067ec:	8b c8                	mov    %eax,%ecx
100067ee:	33 c0                	xor    %eax,%eax
100067f0:	89 0e                	mov    %ecx,(%esi)
100067f2:	85 c9                	test   %ecx,%ecx
100067f4:	74 43                	je     0x10006839
100067f6:	8b 55 10             	mov    0x10(%ebp),%edx
100067f9:	39 14 85 90 1f 01 10 	cmp    %edx,0x10011f90(,%eax,4)
10006800:	77 0b                	ja     0x1000680d
10006802:	40                   	inc    %eax
10006803:	83 f8 1a             	cmp    $0x1a,%eax
10006806:	72 f1                	jb     0x100067f9
10006808:	8b 45 08             	mov    0x8(%ebp),%eax
1000680b:	eb 07                	jmp    0x10006814
1000680d:	8b 04 85 90 1f 01 10 	mov    0x10011f90(,%eax,4),%eax
10006814:	89 46 04             	mov    %eax,0x4(%esi)
10006817:	c1 e0 02             	shl    $0x2,%eax
1000681a:	50                   	push   %eax
1000681b:	51                   	push   %ecx
1000681c:	e8 09 e2 ff ff       	call   0x10004a2a
10006821:	89 46 08             	mov    %eax,0x8(%esi)
10006824:	59                   	pop    %ecx
10006825:	59                   	pop    %ecx
10006826:	85 c0                	test   %eax,%eax
10006828:	74 05                	je     0x1000682f
1000682a:	33 c0                	xor    %eax,%eax
1000682c:	40                   	inc    %eax
1000682d:	eb 0a                	jmp    0x10006839
1000682f:	ff 36                	pushl  (%esi)
10006831:	e8 2e e2 ff ff       	call   0x10004a64
10006836:	59                   	pop    %ecx
10006837:	33 c0                	xor    %eax,%eax
10006839:	5e                   	pop    %esi
1000683a:	5d                   	pop    %ebp
1000683b:	c3                   	ret    
1000683c:	55                   	push   %ebp
1000683d:	8b ec                	mov    %esp,%ebp
1000683f:	51                   	push   %ecx
10006840:	57                   	push   %edi
10006841:	ff 75 0c             	pushl  0xc(%ebp)
10006844:	8b 7d 08             	mov    0x8(%ebp),%edi
10006847:	57                   	push   %edi
10006848:	e8 12 ff ff ff       	call   0x1000675f
1000684d:	59                   	pop    %ecx
1000684e:	59                   	pop    %ecx
1000684f:	85 c0                	test   %eax,%eax
10006851:	74 07                	je     0x1000685a
10006853:	33 c0                	xor    %eax,%eax
10006855:	e9 82 00 00 00       	jmp    0x100068dc
1000685a:	56                   	push   %esi
1000685b:	ff 75 0c             	pushl  0xc(%ebp)
1000685e:	e8 1a f8 ff ff       	call   0x1000607d
10006863:	33 d2                	xor    %edx,%edx
10006865:	f7 77 04             	divl   0x4(%edi)
10006868:	6a 0c                	push   $0xc
1000686a:	ff 37                	pushl  (%edi)
1000686c:	89 55 fc             	mov    %edx,-0x4(%ebp)
1000686f:	e8 b6 e1 ff ff       	call   0x10004a2a
10006874:	8b f0                	mov    %eax,%esi
10006876:	83 c4 0c             	add    $0xc,%esp
10006879:	85 f6                	test   %esi,%esi
1000687b:	74 5c                	je     0x100068d9
1000687d:	ff 75 0c             	pushl  0xc(%ebp)
10006880:	e8 23 fc ff ff       	call   0x100064a8
10006885:	89 06                	mov    %eax,(%esi)
10006887:	59                   	pop    %ecx
10006888:	85 c0                	test   %eax,%eax
1000688a:	74 27                	je     0x100068b3
1000688c:	ff 75 0c             	pushl  0xc(%ebp)
1000688f:	e8 d3 f6 ff ff       	call   0x10005f67
10006894:	89 46 04             	mov    %eax,0x4(%esi)
10006897:	59                   	pop    %ecx
10006898:	85 c0                	test   %eax,%eax
1000689a:	74 17                	je     0x100068b3
1000689c:	8b 47 08             	mov    0x8(%edi),%eax
1000689f:	8b 4d fc             	mov    -0x4(%ebp),%ecx
100068a2:	8b 04 88             	mov    (%eax,%ecx,4),%eax
100068a5:	89 46 08             	mov    %eax,0x8(%esi)
100068a8:	8b 47 08             	mov    0x8(%edi),%eax
100068ab:	89 34 88             	mov    %esi,(%eax,%ecx,4)
100068ae:	33 c0                	xor    %eax,%eax
100068b0:	40                   	inc    %eax
100068b1:	eb 28                	jmp    0x100068db
100068b3:	83 3e 00             	cmpl   $0x0,(%esi)
100068b6:	74 08                	je     0x100068c0
100068b8:	ff 36                	pushl  (%esi)
100068ba:	e8 16 e2 ff ff       	call   0x10004ad5
100068bf:	59                   	pop    %ecx
100068c0:	83 7e 04 00          	cmpl   $0x0,0x4(%esi)
100068c4:	74 09                	je     0x100068cf
100068c6:	ff 76 04             	pushl  0x4(%esi)
100068c9:	e8 07 e2 ff ff       	call   0x10004ad5
100068ce:	59                   	pop    %ecx
100068cf:	56                   	push   %esi
100068d0:	ff 37                	pushl  (%edi)
100068d2:	e8 9b e1 ff ff       	call   0x10004a72
100068d7:	59                   	pop    %ecx
100068d8:	59                   	pop    %ecx
100068d9:	33 c0                	xor    %eax,%eax
100068db:	5e                   	pop    %esi
100068dc:	5f                   	pop    %edi
100068dd:	8b e5                	mov    %ebp,%esp
100068df:	5d                   	pop    %ebp
100068e0:	c3                   	ret    
100068e1:	55                   	push   %ebp
100068e2:	8b ec                	mov    %esp,%ebp
100068e4:	51                   	push   %ecx
100068e5:	57                   	push   %edi
100068e6:	ff 75 0c             	pushl  0xc(%ebp)
100068e9:	8b 7d 08             	mov    0x8(%ebp),%edi
100068ec:	57                   	push   %edi
100068ed:	e8 ab fe ff ff       	call   0x1000679d
100068f2:	59                   	pop    %ecx
100068f3:	59                   	pop    %ecx
100068f4:	85 c0                	test   %eax,%eax
100068f6:	74 07                	je     0x100068ff
100068f8:	33 c0                	xor    %eax,%eax
100068fa:	e9 82 00 00 00       	jmp    0x10006981
100068ff:	56                   	push   %esi
10006900:	ff 75 0c             	pushl  0xc(%ebp)
10006903:	e8 93 f7 ff ff       	call   0x1000609b
10006908:	33 d2                	xor    %edx,%edx
1000690a:	f7 77 04             	divl   0x4(%edi)
1000690d:	6a 0c                	push   $0xc
1000690f:	ff 37                	pushl  (%edi)
10006911:	89 55 fc             	mov    %edx,-0x4(%ebp)
10006914:	e8 11 e1 ff ff       	call   0x10004a2a
10006919:	8b f0                	mov    %eax,%esi
1000691b:	83 c4 0c             	add    $0xc,%esp
1000691e:	85 f6                	test   %esi,%esi
10006920:	74 5c                	je     0x1000697e
10006922:	ff 75 0c             	pushl  0xc(%ebp)
10006925:	e8 71 fd ff ff       	call   0x1000669b
1000692a:	89 06                	mov    %eax,(%esi)
1000692c:	59                   	pop    %ecx
1000692d:	85 c0                	test   %eax,%eax
1000692f:	74 27                	je     0x10006958
10006931:	ff 75 0c             	pushl  0xc(%ebp)
10006934:	e8 a4 fb ff ff       	call   0x100064dd
10006939:	89 46 04             	mov    %eax,0x4(%esi)
1000693c:	59                   	pop    %ecx
1000693d:	85 c0                	test   %eax,%eax
1000693f:	74 17                	je     0x10006958
10006941:	8b 47 08             	mov    0x8(%edi),%eax
10006944:	8b 4d fc             	mov    -0x4(%ebp),%ecx
10006947:	8b 04 88             	mov    (%eax,%ecx,4),%eax
1000694a:	89 46 08             	mov    %eax,0x8(%esi)
1000694d:	8b 47 08             	mov    0x8(%edi),%eax
10006950:	89 34 88             	mov    %esi,(%eax,%ecx,4)
10006953:	33 c0                	xor    %eax,%eax
10006955:	40                   	inc    %eax
10006956:	eb 28                	jmp    0x10006980
10006958:	83 3e 00             	cmpl   $0x0,(%esi)
1000695b:	74 08                	je     0x10006965
1000695d:	ff 36                	pushl  (%esi)
1000695f:	e8 71 e1 ff ff       	call   0x10004ad5
10006964:	59                   	pop    %ecx
10006965:	83 7e 04 00          	cmpl   $0x0,0x4(%esi)
10006969:	74 09                	je     0x10006974
1000696b:	ff 76 04             	pushl  0x4(%esi)
1000696e:	e8 62 e1 ff ff       	call   0x10004ad5
10006973:	59                   	pop    %ecx
10006974:	56                   	push   %esi
10006975:	ff 37                	pushl  (%edi)
10006977:	e8 f6 e0 ff ff       	call   0x10004a72
1000697c:	59                   	pop    %ecx
1000697d:	59                   	pop    %ecx
1000697e:	33 c0                	xor    %eax,%eax
10006980:	5e                   	pop    %esi
10006981:	5f                   	pop    %edi
10006982:	8b e5                	mov    %ebp,%esp
10006984:	5d                   	pop    %ebp
10006985:	c3                   	ret    
10006986:	55                   	push   %ebp
10006987:	8b ec                	mov    %esp,%ebp
10006989:	56                   	push   %esi
1000698a:	57                   	push   %edi
1000698b:	8b 7d 08             	mov    0x8(%ebp),%edi
1000698e:	33 f6                	xor    %esi,%esi
10006990:	39 77 08             	cmp    %esi,0x8(%edi)
10006993:	76 21                	jbe    0x100069b6
10006995:	8b 47 0c             	mov    0xc(%edi),%eax
10006998:	8b 04 b0             	mov    (%eax,%esi,4),%eax
1000699b:	83 78 04 05          	cmpl   $0x5,0x4(%eax)
1000699f:	75 1c                	jne    0x100069bd
100069a1:	ff 70 08             	pushl  0x8(%eax)
100069a4:	ff 70 0c             	pushl  0xc(%eax)
100069a7:	ff 75 0c             	pushl  0xc(%ebp)
100069aa:	ff 55 10             	call   *0x10(%ebp)
100069ad:	83 c4 0c             	add    $0xc,%esp
100069b0:	46                   	inc    %esi
100069b1:	3b 77 08             	cmp    0x8(%edi),%esi
100069b4:	72 df                	jb     0x10006995
100069b6:	33 c0                	xor    %eax,%eax
100069b8:	40                   	inc    %eax
100069b9:	5f                   	pop    %edi
100069ba:	5e                   	pop    %esi
100069bb:	5d                   	pop    %ebp
100069bc:	c3                   	ret    
100069bd:	33 c0                	xor    %eax,%eax
100069bf:	eb f8                	jmp    0x100069b9
100069c1:	55                   	push   %ebp
100069c2:	8b ec                	mov    %esp,%ebp
100069c4:	83 ec 0c             	sub    $0xc,%esp
100069c7:	53                   	push   %ebx
100069c8:	56                   	push   %esi
100069c9:	8b 75 08             	mov    0x8(%ebp),%esi
100069cc:	57                   	push   %edi
100069cd:	33 ff                	xor    %edi,%edi
100069cf:	39 7e 08             	cmp    %edi,0x8(%esi)
100069d2:	76 72                	jbe    0x10006a46
100069d4:	33 db                	xor    %ebx,%ebx
100069d6:	8b 46 0c             	mov    0xc(%esi),%eax
100069d9:	8b 0c 18             	mov    (%eax,%ebx,1),%ecx
100069dc:	8b 44 18 08          	mov    0x8(%eax,%ebx,1),%eax
100069e0:	89 45 f8             	mov    %eax,-0x8(%ebp)
100069e3:	33 c0                	xor    %eax,%eax
100069e5:	89 4d f4             	mov    %ecx,-0xc(%ebp)
100069e8:	89 45 fc             	mov    %eax,-0x4(%ebp)
100069eb:	39 45 10             	cmp    %eax,0x10(%ebp)
100069ee:	7e 4d                	jle    0x10006a3d
100069f0:	8b 45 0c             	mov    0xc(%ebp),%eax
100069f3:	89 45 08             	mov    %eax,0x8(%ebp)
100069f6:	ff 30                	pushl  (%eax)
100069f8:	51                   	push   %ecx
100069f9:	e8 e1 f9 ff ff       	call   0x100063df
100069fe:	59                   	pop    %ecx
100069ff:	59                   	pop    %ecx
10006a00:	85 c0                	test   %eax,%eax
10006a02:	75 0e                	jne    0x10006a12
10006a04:	8b 55 f8             	mov    -0x8(%ebp),%edx
10006a07:	8b 4d 08             	mov    0x8(%ebp),%ecx
10006a0a:	8b 42 04             	mov    0x4(%edx),%eax
10006a0d:	3b 41 04             	cmp    0x4(%ecx),%eax
10006a10:	74 1a                	je     0x10006a2c
10006a12:	8b 4d fc             	mov    -0x4(%ebp),%ecx
10006a15:	8b 45 08             	mov    0x8(%ebp),%eax
10006a18:	41                   	inc    %ecx
10006a19:	83 c0 0c             	add    $0xc,%eax
10006a1c:	89 4d fc             	mov    %ecx,-0x4(%ebp)
10006a1f:	89 45 08             	mov    %eax,0x8(%ebp)
10006a22:	3b 4d 10             	cmp    0x10(%ebp),%ecx
10006a25:	7d 16                	jge    0x10006a3d
10006a27:	8b 4d f4             	mov    -0xc(%ebp),%ecx
10006a2a:	eb ca                	jmp    0x100069f6
10006a2c:	6b 45 fc 0c          	imul   $0xc,-0x4(%ebp),%eax
10006a30:	8b 4d 0c             	mov    0xc(%ebp),%ecx
10006a33:	52                   	push   %edx
10006a34:	ff 54 08 08          	call   *0x8(%eax,%ecx,1)
10006a38:	59                   	pop    %ecx
10006a39:	85 c0                	test   %eax,%eax
10006a3b:	74 13                	je     0x10006a50
10006a3d:	47                   	inc    %edi
10006a3e:	83 c3 0c             	add    $0xc,%ebx
10006a41:	3b 7e 08             	cmp    0x8(%esi),%edi
10006a44:	72 90                	jb     0x100069d6
10006a46:	33 c0                	xor    %eax,%eax
10006a48:	40                   	inc    %eax
10006a49:	5f                   	pop    %edi
10006a4a:	5e                   	pop    %esi
10006a4b:	5b                   	pop    %ebx
10006a4c:	8b e5                	mov    %ebp,%esp
10006a4e:	5d                   	pop    %ebp
10006a4f:	c3                   	ret    
10006a50:	33 c0                	xor    %eax,%eax
10006a52:	eb f5                	jmp    0x10006a49
10006a54:	55                   	push   %ebp
10006a55:	8b ec                	mov    %esp,%ebp
10006a57:	ff 75 08             	pushl  0x8(%ebp)
10006a5a:	e8 48 00 00 00       	call   0x10006aa7
10006a5f:	59                   	pop    %ecx
10006a60:	85 c0                	test   %eax,%eax
10006a62:	75 02                	jne    0x10006a66
10006a64:	5d                   	pop    %ebp
10006a65:	c3                   	ret    
10006a66:	ff 75 0c             	pushl  0xc(%ebp)
10006a69:	ff 75 08             	pushl  0x8(%ebp)
10006a6c:	e8 07 00 00 00       	call   0x10006a78
10006a71:	59                   	pop    %ecx
10006a72:	33 c0                	xor    %eax,%eax
10006a74:	59                   	pop    %ecx
10006a75:	40                   	inc    %eax
10006a76:	5d                   	pop    %ebp
10006a77:	c3                   	ret    
10006a78:	55                   	push   %ebp
10006a79:	8b ec                	mov    %esp,%ebp
10006a7b:	83 ec 20             	sub    $0x20,%esp
10006a7e:	57                   	push   %edi
10006a7f:	6a 07                	push   $0x7
10006a81:	59                   	pop    %ecx
10006a82:	33 c0                	xor    %eax,%eax
10006a84:	c6 45 e0 09          	movb   $0x9,-0x20(%ebp)
10006a88:	8d 7d e1             	lea    -0x1f(%ebp),%edi
10006a8b:	f3 ab                	rep stos %eax,%es:(%edi)
10006a8d:	66 ab                	stos   %ax,%es:(%edi)
10006a8f:	aa                   	stos   %al,%es:(%edi)
10006a90:	8d 45 e0             	lea    -0x20(%ebp),%eax
10006a93:	50                   	push   %eax
10006a94:	ff 75 08             	pushl  0x8(%ebp)
10006a97:	ff 75 0c             	pushl  0xc(%ebp)
10006a9a:	e8 ac 2c 00 00       	call   0x1000974b
10006a9f:	83 c4 0c             	add    $0xc,%esp
10006aa2:	5f                   	pop    %edi
10006aa3:	8b e5                	mov    %ebp,%esp
10006aa5:	5d                   	pop    %ebp
10006aa6:	c3                   	ret    
10006aa7:	55                   	push   %ebp
10006aa8:	8b ec                	mov    %esp,%ebp
10006aaa:	56                   	push   %esi
10006aab:	8b 75 08             	mov    0x8(%ebp),%esi
10006aae:	6a 20                	push   $0x20
10006ab0:	56                   	push   %esi
10006ab1:	e8 36 02 00 00       	call   0x10006cec
10006ab6:	59                   	pop    %ecx
10006ab7:	59                   	pop    %ecx
10006ab8:	85 c0                	test   %eax,%eax
10006aba:	74 10                	je     0x10006acc
10006abc:	8a 46 1f             	mov    0x1f(%esi),%al
10006abf:	80 26 f8             	andb   $0xf8,(%esi)
10006ac2:	24 3f                	and    $0x3f,%al
10006ac4:	0c 40                	or     $0x40,%al
10006ac6:	88 46 1f             	mov    %al,0x1f(%esi)
10006ac9:	33 c0                	xor    %eax,%eax
10006acb:	40                   	inc    %eax
10006acc:	5e                   	pop    %esi
10006acd:	5d                   	pop    %ebp
10006ace:	c3                   	ret    
10006acf:	55                   	push   %ebp
10006ad0:	8b ec                	mov    %esp,%ebp
10006ad2:	ff 75 0c             	pushl  0xc(%ebp)
10006ad5:	ff 75 08             	pushl  0x8(%ebp)
10006ad8:	ff 75 10             	pushl  0x10(%ebp)
10006adb:	e8 6b 2c 00 00       	call   0x1000974b
10006ae0:	83 c4 0c             	add    $0xc,%esp
10006ae3:	5d                   	pop    %ebp
10006ae4:	c3                   	ret    
10006ae5:	55                   	push   %ebp
10006ae6:	8b ec                	mov    %esp,%ebp
10006ae8:	51                   	push   %ecx
10006ae9:	53                   	push   %ebx
10006aea:	56                   	push   %esi
10006aeb:	33 f6                	xor    %esi,%esi
10006aed:	57                   	push   %edi
10006aee:	8b 7d 08             	mov    0x8(%ebp),%edi
10006af1:	8b c6                	mov    %esi,%eax
10006af3:	88 04 38             	mov    %al,(%eax,%edi,1)
10006af6:	40                   	inc    %eax
10006af7:	3d 00 01 00 00       	cmp    $0x100,%eax
10006afc:	72 f5                	jb     0x10006af3
10006afe:	8b ce                	mov    %esi,%ecx
10006b00:	89 75 fc             	mov    %esi,-0x4(%ebp)
10006b03:	8b c1                	mov    %ecx,%eax
10006b05:	8a 1c 39             	mov    (%ecx,%edi,1),%bl
10006b08:	33 d2                	xor    %edx,%edx
10006b0a:	0f b6 cb             	movzbl %bl,%ecx
10006b0d:	f7 75 10             	divl   0x10(%ebp)
10006b10:	8b 45 0c             	mov    0xc(%ebp),%eax
10006b13:	0f b6 04 02          	movzbl (%edx,%eax,1),%eax
10006b17:	03 c6                	add    %esi,%eax
10006b19:	03 c8                	add    %eax,%ecx
10006b1b:	0f b6 f1             	movzbl %cl,%esi
10006b1e:	8b 4d fc             	mov    -0x4(%ebp),%ecx
10006b21:	8a 04 3e             	mov    (%esi,%edi,1),%al
10006b24:	88 04 39             	mov    %al,(%ecx,%edi,1)
10006b27:	41                   	inc    %ecx
10006b28:	88 1c 3e             	mov    %bl,(%esi,%edi,1)
10006b2b:	89 4d fc             	mov    %ecx,-0x4(%ebp)
10006b2e:	81 f9 00 01 00 00    	cmp    $0x100,%ecx
10006b34:	72 cd                	jb     0x10006b03
10006b36:	5f                   	pop    %edi
10006b37:	5e                   	pop    %esi
10006b38:	5b                   	pop    %ebx
10006b39:	8b e5                	mov    %ebp,%esp
10006b3b:	5d                   	pop    %ebp
10006b3c:	c3                   	ret    
10006b3d:	55                   	push   %ebp
10006b3e:	8b ec                	mov    %esp,%ebp
10006b40:	56                   	push   %esi
10006b41:	57                   	push   %edi
10006b42:	8b 7d 10             	mov    0x10(%ebp),%edi
10006b45:	33 f6                	xor    %esi,%esi
10006b47:	8b c6                	mov    %esi,%eax
10006b49:	85 ff                	test   %edi,%edi
10006b4b:	74 5c                	je     0x10006ba9
10006b4d:	53                   	push   %ebx
10006b4e:	8b 5d 14             	mov    0x14(%ebp),%ebx
10006b51:	29 5d 0c             	sub    %ebx,0xc(%ebp)
10006b54:	8b 55 08             	mov    0x8(%ebp),%edx
10006b57:	40                   	inc    %eax
10006b58:	0f b6 c8             	movzbl %al,%ecx
10006b5b:	8b 45 08             	mov    0x8(%ebp),%eax
10006b5e:	89 4d 10             	mov    %ecx,0x10(%ebp)
10006b61:	8b 5d 10             	mov    0x10(%ebp),%ebx
10006b64:	8a 0c 01             	mov    (%ecx,%eax,1),%cl
10006b67:	0f b6 c1             	movzbl %cl,%eax
10006b6a:	03 c6                	add    %esi,%eax
10006b6c:	0f b6 f0             	movzbl %al,%esi
10006b6f:	8b 45 08             	mov    0x8(%ebp),%eax
10006b72:	8a 04 06             	mov    (%esi,%eax,1),%al
10006b75:	88 04 13             	mov    %al,(%ebx,%edx,1)
10006b78:	8b c2                	mov    %edx,%eax
10006b7a:	8b d3                	mov    %ebx,%edx
10006b7c:	8b 5d 14             	mov    0x14(%ebp),%ebx
10006b7f:	88 0c 06             	mov    %cl,(%esi,%eax,1)
10006b82:	0f b6 04 02          	movzbl (%edx,%eax,1),%eax
10006b86:	8b 55 0c             	mov    0xc(%ebp),%edx
10006b89:	0f b6 c9             	movzbl %cl,%ecx
10006b8c:	03 c8                	add    %eax,%ecx
10006b8e:	0f b6 c1             	movzbl %cl,%eax
10006b91:	8b 4d 08             	mov    0x8(%ebp),%ecx
10006b94:	8a 04 08             	mov    (%eax,%ecx,1),%al
10006b97:	32 04 1a             	xor    (%edx,%ebx,1),%al
10006b9a:	88 03                	mov    %al,(%ebx)
10006b9c:	43                   	inc    %ebx
10006b9d:	8b 45 10             	mov    0x10(%ebp),%eax
10006ba0:	89 5d 14             	mov    %ebx,0x14(%ebp)
10006ba3:	83 ef 01             	sub    $0x1,%edi
10006ba6:	75 ac                	jne    0x10006b54
10006ba8:	5b                   	pop    %ebx
10006ba9:	5f                   	pop    %edi
10006baa:	5e                   	pop    %esi
10006bab:	5d                   	pop    %ebp
10006bac:	c3                   	ret    
10006bad:	55                   	push   %ebp
10006bae:	8b ec                	mov    %esp,%ebp
10006bb0:	81 ec 14 01 00 00    	sub    $0x114,%esp
10006bb6:	8d 85 ec fe ff ff    	lea    -0x114(%ebp),%eax
10006bbc:	ff 75 08             	pushl  0x8(%ebp)
10006bbf:	ff 75 0c             	pushl  0xc(%ebp)
10006bc2:	50                   	push   %eax
10006bc3:	e8 2f 15 00 00       	call   0x100080f7
10006bc8:	83 c4 0c             	add    $0xc,%esp
10006bcb:	85 c0                	test   %eax,%eax
10006bcd:	74 6d                	je     0x10006c3c
10006bcf:	56                   	push   %esi
10006bd0:	8b 75 10             	mov    0x10(%ebp),%esi
10006bd3:	57                   	push   %edi
10006bd4:	8d 7d f0             	lea    -0x10(%ebp),%edi
10006bd7:	a5                   	movsl  %ds:(%esi),%es:(%edi)
10006bd8:	a5                   	movsl  %ds:(%esi),%es:(%edi)
10006bd9:	a5                   	movsl  %ds:(%esi),%es:(%edi)
10006bda:	a5                   	movsl  %ds:(%esi),%es:(%edi)
10006bdb:	8b 7d 18             	mov    0x18(%ebp),%edi
10006bde:	85 ff                	test   %edi,%edi
10006be0:	74 42                	je     0x10006c24
10006be2:	53                   	push   %ebx
10006be3:	8b 5d 14             	mov    0x14(%ebp),%ebx
10006be6:	8d 45 e0             	lea    -0x20(%ebp),%eax
10006be9:	50                   	push   %eax
10006bea:	8d 45 f0             	lea    -0x10(%ebp),%eax
10006bed:	50                   	push   %eax
10006bee:	8d 85 ec fe ff ff    	lea    -0x114(%ebp),%eax
10006bf4:	50                   	push   %eax
10006bf5:	e8 e1 14 00 00       	call   0x100080db
10006bfa:	6a 10                	push   $0x10
10006bfc:	5e                   	pop    %esi
10006bfd:	3b fe                	cmp    %esi,%edi
10006bff:	8d 45 e0             	lea    -0x20(%ebp),%eax
10006c02:	0f 42 f7             	cmovb  %edi,%esi
10006c05:	56                   	push   %esi
10006c06:	50                   	push   %eax
10006c07:	53                   	push   %ebx
10006c08:	e8 c1 01 00 00       	call   0x10006dce
10006c0d:	83 c4 18             	add    $0x18,%esp
10006c10:	8d 45 ff             	lea    -0x1(%ebp),%eax
10006c13:	03 de                	add    %esi,%ebx
10006c15:	2b fe                	sub    %esi,%edi
10006c17:	80 00 01             	addb   $0x1,(%eax)
10006c1a:	75 03                	jne    0x10006c1f
10006c1c:	48                   	dec    %eax
10006c1d:	eb f8                	jmp    0x10006c17
10006c1f:	85 ff                	test   %edi,%edi
10006c21:	75 c3                	jne    0x10006be6
10006c23:	5b                   	pop    %ebx
10006c24:	8d 85 ec fe ff ff    	lea    -0x114(%ebp),%eax
10006c2a:	68 f4 00 00 00       	push   $0xf4
10006c2f:	50                   	push   %eax
10006c30:	e8 f8 01 00 00       	call   0x10006e2d
10006c35:	59                   	pop    %ecx
10006c36:	59                   	pop    %ecx
10006c37:	33 c0                	xor    %eax,%eax
10006c39:	5f                   	pop    %edi
10006c3a:	40                   	inc    %eax
10006c3b:	5e                   	pop    %esi
10006c3c:	8b e5                	mov    %ebp,%esp
10006c3e:	5d                   	pop    %ebp
10006c3f:	c3                   	ret    
10006c40:	55                   	push   %ebp
10006c41:	8b ec                	mov    %esp,%ebp
10006c43:	8b 4d 08             	mov    0x8(%ebp),%ecx
10006c46:	8b 55 10             	mov    0x10(%ebp),%edx
10006c49:	f7 d1                	not    %ecx
10006c4b:	85 d2                	test   %edx,%edx
10006c4d:	74 2b                	je     0x10006c7a
10006c4f:	56                   	push   %esi
10006c50:	8b 75 0c             	mov    0xc(%ebp),%esi
10006c53:	57                   	push   %edi
10006c54:	0f b6 06             	movzbl (%esi),%eax
10006c57:	4a                   	dec    %edx
10006c58:	6a 08                	push   $0x8
10006c5a:	33 c8                	xor    %eax,%ecx
10006c5c:	46                   	inc    %esi
10006c5d:	5f                   	pop    %edi
10006c5e:	8b c1                	mov    %ecx,%eax
10006c60:	d1 e9                	shr    %ecx
10006c62:	83 e0 01             	and    $0x1,%eax
10006c65:	f7 d0                	not    %eax
10006c67:	40                   	inc    %eax
10006c68:	25 20 83 b8 ed       	and    $0xedb88320,%eax
10006c6d:	33 c8                	xor    %eax,%ecx
10006c6f:	83 ef 01             	sub    $0x1,%edi
10006c72:	75 ea                	jne    0x10006c5e
10006c74:	85 d2                	test   %edx,%edx
10006c76:	75 dc                	jne    0x10006c54
10006c78:	5f                   	pop    %edi
10006c79:	5e                   	pop    %esi
10006c7a:	f7 d1                	not    %ecx
10006c7c:	8b c1                	mov    %ecx,%eax
10006c7e:	5d                   	pop    %ebp
10006c7f:	c3                   	ret    
10006c80:	55                   	push   %ebp
10006c81:	8b ec                	mov    %esp,%ebp
10006c83:	83 ec 54             	sub    $0x54,%esp
10006c86:	8d 45 ac             	lea    -0x54(%ebp),%eax
10006c89:	6a 30                	push   $0x30
10006c8b:	50                   	push   %eax
10006c8c:	e8 64 ea ff ff       	call   0x100056f5
10006c91:	59                   	pop    %ecx
10006c92:	59                   	pop    %ecx
10006c93:	85 c0                	test   %eax,%eax
10006c95:	75 04                	jne    0x10006c9b
10006c97:	33 c0                	xor    %eax,%eax
10006c99:	eb 4d                	jmp    0x10006ce8
10006c9b:	8d 45 dc             	lea    -0x24(%ebp),%eax
10006c9e:	50                   	push   %eax
10006c9f:	6a 20                	push   $0x20
10006ca1:	6a 07                	push   $0x7
10006ca3:	6a 2e                	push   $0x2e
10006ca5:	68 e0 22 01 10       	push   $0x100122e0
10006caa:	e8 0e f4 ff ff       	call   0x100060bd
10006caf:	8d 45 dc             	lea    -0x24(%ebp),%eax
10006cb2:	c6 45 fc 00          	movb   $0x0,-0x4(%ebp)
10006cb6:	50                   	push   %eax
10006cb7:	e8 5c f8 ff ff       	call   0x10006518
10006cbc:	50                   	push   %eax
10006cbd:	8d 45 dc             	lea    -0x24(%ebp),%eax
10006cc0:	50                   	push   %eax
10006cc1:	6a 30                	push   $0x30
10006cc3:	8d 45 ac             	lea    -0x54(%ebp),%eax
10006cc6:	50                   	push   %eax
10006cc7:	68 a8 2d 01 10       	push   $0x10012da8
10006ccc:	e8 ea 15 00 00       	call   0x100082bb
10006cd1:	83 c4 2c             	add    $0x2c,%esp
10006cd4:	85 c0                	test   %eax,%eax
10006cd6:	74 bf                	je     0x10006c97
10006cd8:	8d 45 ac             	lea    -0x54(%ebp),%eax
10006cdb:	6a 30                	push   $0x30
10006cdd:	50                   	push   %eax
10006cde:	e8 4a 01 00 00       	call   0x10006e2d
10006ce3:	59                   	pop    %ecx
10006ce4:	33 c0                	xor    %eax,%eax
10006ce6:	59                   	pop    %ecx
10006ce7:	40                   	inc    %eax
10006ce8:	8b e5                	mov    %ebp,%esp
10006cea:	5d                   	pop    %ebp
10006ceb:	c3                   	ret    
10006cec:	55                   	push   %ebp
10006ced:	8b ec                	mov    %esp,%ebp
10006cef:	83 ec 30             	sub    $0x30,%esp
10006cf2:	83 3d e0 2e 01 10 00 	cmpl   $0x0,0x10012ee0
10006cf9:	56                   	push   %esi
10006cfa:	be c8 2e 01 10       	mov    $0x10012ec8,%esi
10006cff:	75 1a                	jne    0x10006d1b
10006d01:	e8 7a ff ff ff       	call   0x10006c80
10006d06:	85 c0                	test   %eax,%eax
10006d08:	74 74                	je     0x10006d7e
10006d0a:	56                   	push   %esi
10006d0b:	e8 fb e6 ff ff       	call   0x1000540b
10006d10:	59                   	pop    %ecx
10006d11:	c7 05 e0 2e 01 10 01 	movl   $0x1,0x10012ee0
10006d18:	00 00 00 
10006d1b:	53                   	push   %ebx
10006d1c:	56                   	push   %esi
10006d1d:	e8 67 e1 ff ff       	call   0x10004e89
10006d22:	81 3d 9c 2e 01 10 00 	cmpl   $0x1000000,0x10012e9c
10006d29:	00 00 01 
10006d2c:	bb a8 2d 01 10       	mov    $0x10012da8,%ebx
10006d31:	59                   	pop    %ecx
10006d32:	76 28                	jbe    0x10006d5c
10006d34:	8d 45 d0             	lea    -0x30(%ebp),%eax
10006d37:	6a 30                	push   $0x30
10006d39:	50                   	push   %eax
10006d3a:	e8 b6 e9 ff ff       	call   0x100056f5
10006d3f:	59                   	pop    %ecx
10006d40:	59                   	pop    %ecx
10006d41:	85 c0                	test   %eax,%eax
10006d43:	74 2a                	je     0x10006d6f
10006d45:	6a 00                	push   $0x0
10006d47:	6a 00                	push   $0x0
10006d49:	6a 30                	push   $0x30
10006d4b:	8d 45 d0             	lea    -0x30(%ebp),%eax
10006d4e:	50                   	push   %eax
10006d4f:	53                   	push   %ebx
10006d50:	e8 fb 15 00 00       	call   0x10008350
10006d55:	83 c4 14             	add    $0x14,%esp
10006d58:	85 c0                	test   %eax,%eax
10006d5a:	74 13                	je     0x10006d6f
10006d5c:	ff 75 0c             	pushl  0xc(%ebp)
10006d5f:	ff 75 08             	pushl  0x8(%ebp)
10006d62:	53                   	push   %ebx
10006d63:	e8 a0 15 00 00       	call   0x10008308
10006d68:	83 c4 0c             	add    $0xc,%esp
10006d6b:	85 c0                	test   %eax,%eax
10006d6d:	75 04                	jne    0x10006d73
10006d6f:	33 c0                	xor    %eax,%eax
10006d71:	eb 0a                	jmp    0x10006d7d
10006d73:	56                   	push   %esi
10006d74:	e8 e7 e7 ff ff       	call   0x10005560
10006d79:	33 c0                	xor    %eax,%eax
10006d7b:	59                   	pop    %ecx
10006d7c:	40                   	inc    %eax
10006d7d:	5b                   	pop    %ebx
10006d7e:	5e                   	pop    %esi
10006d7f:	8b e5                	mov    %ebp,%esp
10006d81:	5d                   	pop    %ebp
10006d82:	c3                   	ret    
10006d83:	55                   	push   %ebp
10006d84:	8b ec                	mov    %esp,%ebp
10006d86:	83 ec 20             	sub    $0x20,%esp
10006d89:	8d 45 e0             	lea    -0x20(%ebp),%eax
10006d8c:	50                   	push   %eax
10006d8d:	ff 75 0c             	pushl  0xc(%ebp)
10006d90:	ff 75 08             	pushl  0x8(%ebp)
10006d93:	e8 37 fd ff ff       	call   0x10006acf
10006d98:	6a 20                	push   $0x20
10006d9a:	8d 45 e0             	lea    -0x20(%ebp),%eax
10006d9d:	50                   	push   %eax
10006d9e:	6a 20                	push   $0x20
10006da0:	ff 75 10             	pushl  0x10(%ebp)
10006da3:	e8 36 4b 00 00       	call   0x1000b8de
10006da8:	8d 45 e0             	lea    -0x20(%ebp),%eax
10006dab:	6a 20                	push   $0x20
10006dad:	50                   	push   %eax
10006dae:	e8 7a 00 00 00       	call   0x10006e2d
10006db3:	83 c4 24             	add    $0x24,%esp
10006db6:	8b e5                	mov    %ebp,%esp
10006db8:	5d                   	pop    %ebp
10006db9:	c3                   	ret    
10006dba:	55                   	push   %ebp
10006dbb:	8b ec                	mov    %esp,%ebp
10006dbd:	8b 45 08             	mov    0x8(%ebp),%eax
10006dc0:	48                   	dec    %eax
10006dc1:	03 45 0c             	add    0xc(%ebp),%eax
10006dc4:	80 00 01             	addb   $0x1,(%eax)
10006dc7:	75 03                	jne    0x10006dcc
10006dc9:	48                   	dec    %eax
10006dca:	eb f8                	jmp    0x10006dc4
10006dcc:	5d                   	pop    %ebp
10006dcd:	c3                   	ret    
10006dce:	55                   	push   %ebp
10006dcf:	8b ec                	mov    %esp,%ebp
10006dd1:	8b 45 08             	mov    0x8(%ebp),%eax
10006dd4:	56                   	push   %esi
10006dd5:	8b 75 10             	mov    0x10(%ebp),%esi
10006dd8:	85 f6                	test   %esi,%esi
10006dda:	74 14                	je     0x10006df0
10006ddc:	57                   	push   %edi
10006ddd:	8b 7d 0c             	mov    0xc(%ebp),%edi
10006de0:	8b d0                	mov    %eax,%edx
10006de2:	2b f8                	sub    %eax,%edi
10006de4:	8a 0c 17             	mov    (%edi,%edx,1),%cl
10006de7:	30 0a                	xor    %cl,(%edx)
10006de9:	42                   	inc    %edx
10006dea:	83 ee 01             	sub    $0x1,%esi
10006ded:	75 f5                	jne    0x10006de4
10006def:	5f                   	pop    %edi
10006df0:	5e                   	pop    %esi
10006df1:	5d                   	pop    %ebp
10006df2:	c3                   	ret    
10006df3:	55                   	push   %ebp
10006df4:	8b ec                	mov    %esp,%ebp
10006df6:	81 ec 00 01 00 00    	sub    $0x100,%esp
10006dfc:	8d 85 00 ff ff ff    	lea    -0x100(%ebp),%eax
10006e02:	ff 75 0c             	pushl  0xc(%ebp)
10006e05:	ff 75 08             	pushl  0x8(%ebp)
10006e08:	50                   	push   %eax
10006e09:	e8 d7 fc ff ff       	call   0x10006ae5
10006e0e:	ff 75 18             	pushl  0x18(%ebp)
10006e11:	8d 85 00 ff ff ff    	lea    -0x100(%ebp),%eax
10006e17:	ff 75 14             	pushl  0x14(%ebp)
10006e1a:	ff 75 10             	pushl  0x10(%ebp)
10006e1d:	50                   	push   %eax
10006e1e:	e8 1a fd ff ff       	call   0x10006b3d
10006e23:	8b 45 18             	mov    0x18(%ebp),%eax
10006e26:	83 c4 1c             	add    $0x1c,%esp
10006e29:	8b e5                	mov    %ebp,%esp
10006e2b:	5d                   	pop    %ebp
10006e2c:	c3                   	ret    
10006e2d:	55                   	push   %ebp
10006e2e:	8b ec                	mov    %esp,%ebp
10006e30:	ff 75 0c             	pushl  0xc(%ebp)
10006e33:	6a 00                	push   $0x0
10006e35:	ff 75 08             	pushl  0x8(%ebp)
10006e38:	e8 d2 dc ff ff       	call   0x10004b0f
10006e3d:	83 c4 0c             	add    $0xc,%esp
10006e40:	5d                   	pop    %ebp
10006e41:	c3                   	ret    
10006e42:	55                   	push   %ebp
10006e43:	8b ec                	mov    %esp,%ebp
10006e45:	8b 45 14             	mov    0x14(%ebp),%eax
10006e48:	83 ec 74             	sub    $0x74,%esp
10006e4b:	83 20 00             	andl   $0x0,(%eax)
10006e4e:	57                   	push   %edi
10006e4f:	8b 7d 10             	mov    0x10(%ebp),%edi
10006e52:	85 ff                	test   %edi,%edi
10006e54:	75 07                	jne    0x10006e5d
10006e56:	33 c0                	xor    %eax,%eax
10006e58:	e9 a9 00 00 00       	jmp    0x10006f06
10006e5d:	8d 47 38             	lea    0x38(%edi),%eax
10006e60:	53                   	push   %ebx
10006e61:	50                   	push   %eax
10006e62:	89 45 10             	mov    %eax,0x10(%ebp)
10006e65:	e8 1e dc ff ff       	call   0x10004a88
10006e6a:	8b d8                	mov    %eax,%ebx
10006e6c:	59                   	pop    %ecx
10006e6d:	85 db                	test   %ebx,%ebx
10006e6f:	0f 84 90 00 00 00    	je     0x10006f05
10006e75:	83 23 00             	andl   $0x0,(%ebx)
10006e78:	8d 43 04             	lea    0x4(%ebx),%eax
10006e7b:	56                   	push   %esi
10006e7c:	57                   	push   %edi
10006e7d:	ff 75 0c             	pushl  0xc(%ebp)
10006e80:	50                   	push   %eax
10006e81:	e8 64 dc ff ff       	call   0x10004aea
10006e86:	8d 45 8c             	lea    -0x74(%ebp),%eax
10006e89:	50                   	push   %eax
10006e8a:	8d 45 e0             	lea    -0x20(%ebp),%eax
10006e8d:	50                   	push   %eax
10006e8e:	e8 c1 fb ff ff       	call   0x10006a54
10006e93:	8d 45 c0             	lea    -0x40(%ebp),%eax
10006e96:	50                   	push   %eax
10006e97:	ff 75 08             	pushl  0x8(%ebp)
10006e9a:	8d 45 e0             	lea    -0x20(%ebp),%eax
10006e9d:	50                   	push   %eax
10006e9e:	e8 e0 fe ff ff       	call   0x10006d83
10006ea3:	8d 45 e0             	lea    -0x20(%ebp),%eax
10006ea6:	6a 20                	push   $0x20
10006ea8:	50                   	push   %eax
10006ea9:	e8 7f ff ff ff       	call   0x10006e2d
10006eae:	8d 45 ac             	lea    -0x54(%ebp),%eax
10006eb1:	6a 10                	push   $0x10
10006eb3:	50                   	push   %eax
10006eb4:	e8 33 fe ff ff       	call   0x10006cec
10006eb9:	8d 77 04             	lea    0x4(%edi),%esi
10006ebc:	56                   	push   %esi
10006ebd:	53                   	push   %ebx
10006ebe:	8d 45 ac             	lea    -0x54(%ebp),%eax
10006ec1:	50                   	push   %eax
10006ec2:	8d 45 c0             	lea    -0x40(%ebp),%eax
10006ec5:	68 00 01 00 00       	push   $0x100
10006eca:	50                   	push   %eax
10006ecb:	e8 dd fc ff ff       	call   0x10006bad
10006ed0:	83 c4 44             	add    $0x44,%esp
10006ed3:	8d 45 c0             	lea    -0x40(%ebp),%eax
10006ed6:	6a 20                	push   $0x20
10006ed8:	50                   	push   %eax
10006ed9:	e8 4f ff ff ff       	call   0x10006e2d
10006ede:	56                   	push   %esi
10006edf:	53                   	push   %ebx
10006ee0:	6a 00                	push   $0x0
10006ee2:	e8 59 fd ff ff       	call   0x10006c40
10006ee7:	83 c4 14             	add    $0x14,%esp
10006eea:	89 45 bc             	mov    %eax,-0x44(%ebp)
10006eed:	8b 45 14             	mov    0x14(%ebp),%eax
10006ef0:	8d 75 8c             	lea    -0x74(%ebp),%esi
10006ef3:	83 c7 04             	add    $0x4,%edi
10006ef6:	03 fb                	add    %ebx,%edi
10006ef8:	6a 0d                	push   $0xd
10006efa:	59                   	pop    %ecx
10006efb:	f3 a5                	rep movsl %ds:(%esi),%es:(%edi)
10006efd:	8b 4d 10             	mov    0x10(%ebp),%ecx
10006f00:	89 08                	mov    %ecx,(%eax)
10006f02:	8b c3                	mov    %ebx,%eax
10006f04:	5e                   	pop    %esi
10006f05:	5b                   	pop    %ebx
10006f06:	5f                   	pop    %edi
10006f07:	8b e5                	mov    %ebp,%esp
10006f09:	5d                   	pop    %ebp
10006f0a:	c3                   	ret    
10006f0b:	55                   	push   %ebp
10006f0c:	8b ec                	mov    %esp,%ebp
10006f0e:	83 ec 10             	sub    $0x10,%esp
10006f11:	56                   	push   %esi
10006f12:	ff 75 08             	pushl  0x8(%ebp)
10006f15:	e8 b3 05 00 00       	call   0x100074cd
10006f1a:	8b f0                	mov    %eax,%esi
10006f1c:	b8 4d 5a 00 00       	mov    $0x5a4d,%eax
10006f21:	59                   	pop    %ecx
10006f22:	66 39 06             	cmp    %ax,(%esi)
10006f25:	74 04                	je     0x10006f2b
10006f27:	33 c0                	xor    %eax,%eax
10006f29:	eb 60                	jmp    0x10006f8b
10006f2b:	57                   	push   %edi
10006f2c:	8b 7e 3c             	mov    0x3c(%esi),%edi
10006f2f:	03 fe                	add    %esi,%edi
10006f31:	81 3f 50 45 00 00    	cmpl   $0x4550,(%edi)
10006f37:	74 04                	je     0x10006f3d
10006f39:	33 c0                	xor    %eax,%eax
10006f3b:	eb 4d                	jmp    0x10006f8a
10006f3d:	53                   	push   %ebx
10006f3e:	8b 5f 78             	mov    0x78(%edi),%ebx
10006f41:	03 de                	add    %esi,%ebx
10006f43:	8b 43 1c             	mov    0x1c(%ebx),%eax
10006f46:	8b 4b 20             	mov    0x20(%ebx),%ecx
10006f49:	03 c6                	add    %esi,%eax
10006f4b:	89 45 f0             	mov    %eax,-0x10(%ebp)
10006f4e:	03 ce                	add    %esi,%ecx
10006f50:	33 c0                	xor    %eax,%eax
10006f52:	89 4d f8             	mov    %ecx,-0x8(%ebp)
10006f55:	89 45 fc             	mov    %eax,-0x4(%ebp)
10006f58:	39 43 18             	cmp    %eax,0x18(%ebx)
10006f5b:	76 2a                	jbe    0x10006f87
10006f5d:	8b 04 81             	mov    (%ecx,%eax,4),%eax
10006f60:	8b 4b 24             	mov    0x24(%ebx),%ecx
10006f63:	03 c6                	add    %esi,%eax
10006f65:	50                   	push   %eax
10006f66:	ff 75 0c             	pushl  0xc(%ebp)
10006f69:	03 ce                	add    %esi,%ecx
10006f6b:	89 4d f4             	mov    %ecx,-0xc(%ebp)
10006f6e:	ff 15 2c d0 00 10    	call   *0x1000d02c
10006f74:	85 c0                	test   %eax,%eax
10006f76:	8b 45 fc             	mov    -0x4(%ebp),%eax
10006f79:	74 15                	je     0x10006f90
10006f7b:	8b 4d f8             	mov    -0x8(%ebp),%ecx
10006f7e:	40                   	inc    %eax
10006f7f:	89 45 fc             	mov    %eax,-0x4(%ebp)
10006f82:	3b 43 18             	cmp    0x18(%ebx),%eax
10006f85:	72 d6                	jb     0x10006f5d
10006f87:	33 c0                	xor    %eax,%eax
10006f89:	5b                   	pop    %ebx
10006f8a:	5f                   	pop    %edi
10006f8b:	5e                   	pop    %esi
10006f8c:	8b e5                	mov    %ebp,%esp
10006f8e:	5d                   	pop    %ebp
10006f8f:	c3                   	ret    
10006f90:	8b 4d f4             	mov    -0xc(%ebp),%ecx
10006f93:	0f b7 04 41          	movzwl (%ecx,%eax,2),%eax
10006f97:	8b 4d f0             	mov    -0x10(%ebp),%ecx
10006f9a:	8b 0c 81             	mov    (%ecx,%eax,4),%ecx
10006f9d:	3b 4f 78             	cmp    0x78(%edi),%ecx
10006fa0:	72 39                	jb     0x10006fdb
10006fa2:	8b 47 7c             	mov    0x7c(%edi),%eax
10006fa5:	03 47 78             	add    0x78(%edi),%eax
10006fa8:	3b c8                	cmp    %eax,%ecx
10006faa:	73 2f                	jae    0x10006fdb
10006fac:	8d 04 31             	lea    (%ecx,%esi,1),%eax
10006faf:	50                   	push   %eax
10006fb0:	e8 2d 05 00 00       	call   0x100074e2
10006fb5:	8b f8                	mov    %eax,%edi
10006fb7:	6a 2e                	push   $0x2e
10006fb9:	57                   	push   %edi
10006fba:	e8 02 f4 ff ff       	call   0x100063c1
10006fbf:	8d 48 01             	lea    0x1(%eax),%ecx
10006fc2:	c6 00 00             	movb   $0x0,(%eax)
10006fc5:	51                   	push   %ecx
10006fc6:	57                   	push   %edi
10006fc7:	e8 3f ff ff ff       	call   0x10006f0b
10006fcc:	57                   	push   %edi
10006fcd:	8b f0                	mov    %eax,%esi
10006fcf:	e8 01 db ff ff       	call   0x10004ad5
10006fd4:	83 c4 18             	add    $0x18,%esp
10006fd7:	8b c6                	mov    %esi,%eax
10006fd9:	eb ae                	jmp    0x10006f89
10006fdb:	8d 04 31             	lea    (%ecx,%esi,1),%eax
10006fde:	eb a9                	jmp    0x10006f89
10006fe0:	55                   	push   %ebp
10006fe1:	8b ec                	mov    %esp,%ebp
10006fe3:	8b 55 08             	mov    0x8(%ebp),%edx
10006fe6:	6a 2b                	push   $0x2b
10006fe8:	58                   	pop    %eax
10006fe9:	eb 0c                	jmp    0x10006ff7
10006feb:	69 c0 0f 01 00 00    	imul   $0x10f,%eax,%eax
10006ff1:	42                   	inc    %edx
10006ff2:	0f b6 c9             	movzbl %cl,%ecx
10006ff5:	03 c1                	add    %ecx,%eax
10006ff7:	8a 0a                	mov    (%edx),%cl
10006ff9:	84 c9                	test   %cl,%cl
10006ffb:	75 ee                	jne    0x10006feb
10006ffd:	5d                   	pop    %ebp
10006ffe:	c3                   	ret    
10006fff:	56                   	push   %esi
10007000:	33 f6                	xor    %esi,%esi
10007002:	ff b6 f8 1f 01 10    	pushl  0x10011ff8(%esi)
10007008:	e8 fa 01 00 00       	call   0x10007207
1000700d:	89 86 f8 1f 01 10    	mov    %eax,0x10011ff8(%esi)
10007013:	83 c6 04             	add    $0x4,%esi
10007016:	59                   	pop    %ecx
10007017:	81 fe e8 02 00 00    	cmp    $0x2e8,%esi
1000701d:	72 e3                	jb     0x10007002
1000701f:	5e                   	pop    %esi
10007020:	c3                   	ret    
10007021:	55                   	push   %ebp
10007022:	8b ec                	mov    %esp,%ebp
10007024:	83 ec 10             	sub    $0x10,%esp
10007027:	8d 45 f0             	lea    -0x10(%ebp),%eax
1000702a:	50                   	push   %eax
1000702b:	6a 0c                	push   $0xc
1000702d:	6a 0c                	push   $0xc
1000702f:	6a 5b                	push   $0x5b
10007031:	68 e0 22 01 10       	push   $0x100122e0
10007036:	e8 82 f0 ff ff       	call   0x100060bd
1000703b:	8d 45 f0             	lea    -0x10(%ebp),%eax
1000703e:	c6 45 fc 00          	movb   $0x0,-0x4(%ebp)
10007042:	50                   	push   %eax
10007043:	e8 85 04 00 00       	call   0x100074cd
10007048:	83 c4 18             	add    $0x18,%esp
1000704b:	8b e5                	mov    %ebp,%esp
1000704d:	5d                   	pop    %ebp
1000704e:	c3                   	ret    
1000704f:	55                   	push   %ebp
10007050:	8b ec                	mov    %esp,%ebp
10007052:	83 ec 0c             	sub    $0xc,%esp
10007055:	8d 45 f4             	lea    -0xc(%ebp),%eax
10007058:	50                   	push   %eax
10007059:	6a 0b                	push   $0xb
1000705b:	6a 0d                	push   $0xd
1000705d:	68 f9 04 00 00       	push   $0x4f9
10007062:	68 e0 22 01 10       	push   $0x100122e0
10007067:	e8 51 f0 ff ff       	call   0x100060bd
1000706c:	8d 45 f4             	lea    -0xc(%ebp),%eax
1000706f:	c6 45 ff 00          	movb   $0x0,-0x1(%ebp)
10007073:	50                   	push   %eax
10007074:	e8 54 04 00 00       	call   0x100074cd
10007079:	83 c4 18             	add    $0x18,%esp
1000707c:	8b e5                	mov    %ebp,%esp
1000707e:	5d                   	pop    %ebp
1000707f:	c3                   	ret    
10007080:	55                   	push   %ebp
10007081:	8b ec                	mov    %esp,%ebp
10007083:	83 ec 0c             	sub    $0xc,%esp
10007086:	8d 45 f4             	lea    -0xc(%ebp),%eax
10007089:	50                   	push   %eax
1000708a:	6a 09                	push   $0x9
1000708c:	6a 0b                	push   $0xb
1000708e:	68 15 03 00 00       	push   $0x315
10007093:	68 e0 22 01 10       	push   $0x100122e0
10007098:	e8 20 f0 ff ff       	call   0x100060bd
1000709d:	8d 45 f4             	lea    -0xc(%ebp),%eax
100070a0:	c6 45 fd 00          	movb   $0x0,-0x3(%ebp)
100070a4:	50                   	push   %eax
100070a5:	e8 23 04 00 00       	call   0x100074cd
100070aa:	83 c4 18             	add    $0x18,%esp
100070ad:	8b e5                	mov    %ebp,%esp
100070af:	5d                   	pop    %ebp
100070b0:	c3                   	ret    
100070b1:	68 bc 1a ea e6       	push   $0xe6ea1abc
100070b6:	e8 d1 00 00 00       	call   0x1000718c
100070bb:	59                   	pop    %ecx
100070bc:	c3                   	ret    
100070bd:	55                   	push   %ebp
100070be:	8b ec                	mov    %esp,%ebp
100070c0:	51                   	push   %ecx
100070c1:	51                   	push   %ecx
100070c2:	8d 45 f8             	lea    -0x8(%ebp),%eax
100070c5:	50                   	push   %eax
100070c6:	6a 07                	push   $0x7
100070c8:	6a 09                	push   $0x9
100070ca:	68 cf 09 00 00       	push   $0x9cf
100070cf:	68 e0 22 01 10       	push   $0x100122e0
100070d4:	e8 e4 ef ff ff       	call   0x100060bd
100070d9:	8d 45 f8             	lea    -0x8(%ebp),%eax
100070dc:	c6 45 ff 00          	movb   $0x0,-0x1(%ebp)
100070e0:	50                   	push   %eax
100070e1:	e8 e7 03 00 00       	call   0x100074cd
100070e6:	83 c4 18             	add    $0x18,%esp
100070e9:	8b e5                	mov    %ebp,%esp
100070eb:	5d                   	pop    %ebp
100070ec:	c3                   	ret    
100070ed:	55                   	push   %ebp
100070ee:	8b ec                	mov    %esp,%ebp
100070f0:	83 ec 10             	sub    $0x10,%esp
100070f3:	8d 45 f0             	lea    -0x10(%ebp),%eax
100070f6:	50                   	push   %eax
100070f7:	6a 0c                	push   $0xc
100070f9:	6a 04                	push   $0x4
100070fb:	68 a0 03 00 00       	push   $0x3a0
10007100:	68 e0 22 01 10       	push   $0x100122e0
10007105:	e8 b3 ef ff ff       	call   0x100060bd
1000710a:	8d 45 f0             	lea    -0x10(%ebp),%eax
1000710d:	c6 45 fc 00          	movb   $0x0,-0x4(%ebp)
10007111:	50                   	push   %eax
10007112:	e8 b6 03 00 00       	call   0x100074cd
10007117:	83 c4 18             	add    $0x18,%esp
1000711a:	8b e5                	mov    %ebp,%esp
1000711c:	5d                   	pop    %ebp
1000711d:	c3                   	ret    
1000711e:	68 68 32 7c b3       	push   $0xb37c3268
10007123:	e8 64 00 00 00       	call   0x1000718c
10007128:	59                   	pop    %ecx
10007129:	c3                   	ret    
1000712a:	55                   	push   %ebp
1000712b:	8b ec                	mov    %esp,%ebp
1000712d:	83 ec 0c             	sub    $0xc,%esp
10007130:	8d 45 f4             	lea    -0xc(%ebp),%eax
10007133:	50                   	push   %eax
10007134:	6a 09                	push   $0x9
10007136:	6a 0f                	push   $0xf
10007138:	68 ef 06 00 00       	push   $0x6ef
1000713d:	68 e0 22 01 10       	push   $0x100122e0
10007142:	e8 76 ef ff ff       	call   0x100060bd
10007147:	8d 45 f4             	lea    -0xc(%ebp),%eax
1000714a:	c6 45 fd 00          	movb   $0x0,-0x3(%ebp)
1000714e:	50                   	push   %eax
1000714f:	e8 79 03 00 00       	call   0x100074cd
10007154:	83 c4 18             	add    $0x18,%esp
10007157:	8b e5                	mov    %ebp,%esp
10007159:	5d                   	pop    %ebp
1000715a:	c3                   	ret    
1000715b:	55                   	push   %ebp
1000715c:	8b ec                	mov    %esp,%ebp
1000715e:	83 ec 10             	sub    $0x10,%esp
10007161:	8d 45 f0             	lea    -0x10(%ebp),%eax
10007164:	50                   	push   %eax
10007165:	6a 0c                	push   $0xc
10007167:	6a 06                	push   $0x6
10007169:	68 6e 07 00 00       	push   $0x76e
1000716e:	68 e0 22 01 10       	push   $0x100122e0
10007173:	e8 45 ef ff ff       	call   0x100060bd
10007178:	8d 45 f0             	lea    -0x10(%ebp),%eax
1000717b:	c6 45 fc 00          	movb   $0x0,-0x4(%ebp)
1000717f:	50                   	push   %eax
10007180:	e8 48 03 00 00       	call   0x100074cd
10007185:	83 c4 18             	add    $0x18,%esp
10007188:	8b e5                	mov    %ebp,%esp
1000718a:	5d                   	pop    %ebp
1000718b:	c3                   	ret    
1000718c:	55                   	push   %ebp
1000718d:	8b ec                	mov    %esp,%ebp
1000718f:	51                   	push   %ecx
10007190:	51                   	push   %ecx
10007191:	53                   	push   %ebx
10007192:	56                   	push   %esi
10007193:	57                   	push   %edi
10007194:	e8 fa e0 ff ff       	call   0x10005293
10007199:	8b 50 0c             	mov    0xc(%eax),%edx
1000719c:	83 c2 14             	add    $0x14,%edx
1000719f:	89 55 f8             	mov    %edx,-0x8(%ebp)
100071a2:	8b 0a                	mov    (%edx),%ecx
100071a4:	3b ca                	cmp    %edx,%ecx
100071a6:	74 51                	je     0x100071f9
100071a8:	8b 7d 08             	mov    0x8(%ebp),%edi
100071ab:	81 f7 11 a5 02 7b    	xor    $0x7b02a511,%edi
100071b1:	8b 59 28             	mov    0x28(%ecx),%ebx
100071b4:	6a 2b                	push   $0x2b
100071b6:	58                   	pop    %eax
100071b7:	89 45 fc             	mov    %eax,-0x4(%ebp)
100071ba:	0f b7 33             	movzwl (%ebx),%esi
100071bd:	66 85 f6             	test   %si,%si
100071c0:	74 2d                	je     0x100071ef
100071c2:	8b d0                	mov    %eax,%edx
100071c4:	8d 46 bf             	lea    -0x41(%esi),%eax
100071c7:	8d 5b 02             	lea    0x2(%ebx),%ebx
100071ca:	66 83 f8 19          	cmp    $0x19,%ax
100071ce:	77 03                	ja     0x100071d3
100071d0:	83 ce 20             	or     $0x20,%esi
100071d3:	69 d2 0f 01 00 00    	imul   $0x10f,%edx,%edx
100071d9:	0f b7 c6             	movzwl %si,%eax
100071dc:	0f b7 33             	movzwl (%ebx),%esi
100071df:	03 d0                	add    %eax,%edx
100071e1:	66 85 f6             	test   %si,%si
100071e4:	75 de                	jne    0x100071c4
100071e6:	89 55 fc             	mov    %edx,-0x4(%ebp)
100071e9:	8b 55 f8             	mov    -0x8(%ebp),%edx
100071ec:	8b 45 fc             	mov    -0x4(%ebp),%eax
100071ef:	3b c7                	cmp    %edi,%eax
100071f1:	74 0f                	je     0x10007202
100071f3:	8b 09                	mov    (%ecx),%ecx
100071f5:	3b ca                	cmp    %edx,%ecx
100071f7:	75 b8                	jne    0x100071b1
100071f9:	33 c0                	xor    %eax,%eax
100071fb:	5f                   	pop    %edi
100071fc:	5e                   	pop    %esi
100071fd:	5b                   	pop    %ebx
100071fe:	8b e5                	mov    %ebp,%esp
10007200:	5d                   	pop    %ebp
10007201:	c3                   	ret    
10007202:	8b 41 10             	mov    0x10(%ecx),%eax
10007205:	eb f4                	jmp    0x100071fb
10007207:	55                   	push   %ebp
10007208:	8b ec                	mov    %esp,%ebp
1000720a:	83 ec 10             	sub    $0x10,%esp
1000720d:	b9 f0 03 00 00       	mov    $0x3f0,%ecx
10007212:	53                   	push   %ebx
10007213:	56                   	push   %esi
10007214:	8b 75 08             	mov    0x8(%ebp),%esi
10007217:	c1 e6 10             	shl    $0x10,%esi
1000721a:	33 75 08             	xor    0x8(%ebp),%esi
1000721d:	81 f6 de 1d 8e de    	xor    $0xde8e1dde,%esi
10007223:	8b c6                	mov    %esi,%eax
10007225:	c1 e8 15             	shr    $0x15,%eax
10007228:	57                   	push   %edi
10007229:	3b c1                	cmp    %ecx,%eax
1000722b:	77 6c                	ja     0x10007299
1000722d:	74 63                	je     0x10007292
1000722f:	83 e8 1a             	sub    $0x1a,%eax
10007232:	74 57                	je     0x1000728b
10007234:	2d 80 01 00 00       	sub    $0x180,%eax
10007239:	74 49                	je     0x10007284
1000723b:	83 e8 03             	sub    $0x3,%eax
1000723e:	74 3d                	je     0x1000727d
10007240:	83 e8 74             	sub    $0x74,%eax
10007243:	74 31                	je     0x10007276
10007245:	2d 18 01 00 00       	sub    $0x118,%eax
1000724a:	74 20                	je     0x1000726c
1000724c:	83 e8 03             	sub    $0x3,%eax
1000724f:	74 11                	je     0x10007262
10007251:	2d bb 00 00 00       	sub    $0xbb,%eax
10007256:	75 73                	jne    0x100072cb
10007258:	b8 6b 74 00 10       	mov    $0x1000746b,%eax
1000725d:	e9 96 00 00 00       	jmp    0x100072f8
10007262:	b8 1e 71 00 10       	mov    $0x1000711e,%eax
10007267:	e9 8c 00 00 00       	jmp    0x100072f8
1000726c:	b8 a7 73 00 10       	mov    $0x100073a7,%eax
10007271:	e9 82 00 00 00       	jmp    0x100072f8
10007276:	b8 80 70 00 10       	mov    $0x10007080,%eax
1000727b:	eb 7b                	jmp    0x100072f8
1000727d:	b8 ed 70 00 10       	mov    $0x100070ed,%eax
10007282:	eb 74                	jmp    0x100072f8
10007284:	b8 bd 70 00 10       	mov    $0x100070bd,%eax
10007289:	eb 6d                	jmp    0x100072f8
1000728b:	b8 3a 74 00 10       	mov    $0x1000743a,%eax
10007290:	eb 66                	jmp    0x100072f8
10007292:	b8 09 74 00 10       	mov    $0x10007409,%eax
10007297:	eb 5f                	jmp    0x100072f8
10007299:	2d 94 04 00 00       	sub    $0x494,%eax
1000729e:	74 53                	je     0x100072f3
100072a0:	2d b5 00 00 00       	sub    $0xb5,%eax
100072a5:	74 45                	je     0x100072ec
100072a7:	2d 67 01 00 00       	sub    $0x167,%eax
100072ac:	74 37                	je     0x100072e5
100072ae:	2d 8c 00 00 00       	sub    $0x8c,%eax
100072b3:	74 29                	je     0x100072de
100072b5:	83 e8 0e             	sub    $0xe,%eax
100072b8:	74 1d                	je     0x100072d7
100072ba:	83 e8 52             	sub    $0x52,%eax
100072bd:	74 11                	je     0x100072d0
100072bf:	83 e8 04             	sub    $0x4,%eax
100072c2:	75 07                	jne    0x100072cb
100072c4:	b8 21 70 00 10       	mov    $0x10007021,%eax
100072c9:	eb 2d                	jmp    0x100072f8
100072cb:	8b 45 08             	mov    0x8(%ebp),%eax
100072ce:	eb 28                	jmp    0x100072f8
100072d0:	b8 d8 73 00 10       	mov    $0x100073d8,%eax
100072d5:	eb 21                	jmp    0x100072f8
100072d7:	b8 2a 71 00 10       	mov    $0x1000712a,%eax
100072dc:	eb 1a                	jmp    0x100072f8
100072de:	b8 4f 70 00 10       	mov    $0x1000704f,%eax
100072e3:	eb 13                	jmp    0x100072f8
100072e5:	b8 5b 71 00 10       	mov    $0x1000715b,%eax
100072ea:	eb 0c                	jmp    0x100072f8
100072ec:	b8 b1 70 00 10       	mov    $0x100070b1,%eax
100072f1:	eb 05                	jmp    0x100072f8
100072f3:	b8 9c 74 00 10       	mov    $0x1000749c,%eax
100072f8:	ff d0                	call   *%eax
100072fa:	8b f8                	mov    %eax,%edi
100072fc:	85 ff                	test   %edi,%edi
100072fe:	74 55                	je     0x10007355
10007300:	8b 47 3c             	mov    0x3c(%edi),%eax
10007303:	81 e6 ff ff 1f 00    	and    $0x1fffff,%esi
10007309:	03 c7                	add    %edi,%eax
1000730b:	33 db                	xor    %ebx,%ebx
1000730d:	89 45 f0             	mov    %eax,-0x10(%ebp)
10007310:	8b 40 78             	mov    0x78(%eax),%eax
10007313:	03 c7                	add    %edi,%eax
10007315:	8b 48 24             	mov    0x24(%eax),%ecx
10007318:	8b 50 20             	mov    0x20(%eax),%edx
1000731b:	03 cf                	add    %edi,%ecx
1000731d:	89 4d f8             	mov    %ecx,-0x8(%ebp)
10007320:	03 d7                	add    %edi,%edx
10007322:	8b 48 1c             	mov    0x1c(%eax),%ecx
10007325:	8b 40 18             	mov    0x18(%eax),%eax
10007328:	03 cf                	add    %edi,%ecx
1000732a:	89 55 fc             	mov    %edx,-0x4(%ebp)
1000732d:	89 4d f4             	mov    %ecx,-0xc(%ebp)
10007330:	89 45 08             	mov    %eax,0x8(%ebp)
10007333:	85 c0                	test   %eax,%eax
10007335:	74 1e                	je     0x10007355
10007337:	8b 04 9a             	mov    (%edx,%ebx,4),%eax
1000733a:	03 c7                	add    %edi,%eax
1000733c:	50                   	push   %eax
1000733d:	e8 9e fc ff ff       	call   0x10006fe0
10007342:	25 ff ff 1f 00       	and    $0x1fffff,%eax
10007347:	59                   	pop    %ecx
10007348:	3b c6                	cmp    %esi,%eax
1000734a:	74 12                	je     0x1000735e
1000734c:	8b 55 fc             	mov    -0x4(%ebp),%edx
1000734f:	43                   	inc    %ebx
10007350:	3b 5d 08             	cmp    0x8(%ebp),%ebx
10007353:	72 e2                	jb     0x10007337
10007355:	33 c0                	xor    %eax,%eax
10007357:	5f                   	pop    %edi
10007358:	5e                   	pop    %esi
10007359:	5b                   	pop    %ebx
1000735a:	8b e5                	mov    %ebp,%esp
1000735c:	5d                   	pop    %ebp
1000735d:	c3                   	ret    
1000735e:	8b 45 f8             	mov    -0x8(%ebp),%eax
10007361:	8b 4d f4             	mov    -0xc(%ebp),%ecx
10007364:	8b 55 f0             	mov    -0x10(%ebp),%edx
10007367:	0f b7 04 58          	movzwl (%eax,%ebx,2),%eax
1000736b:	8b 0c 81             	mov    (%ecx,%eax,4),%ecx
1000736e:	3b 4a 78             	cmp    0x78(%edx),%ecx
10007371:	72 2f                	jb     0x100073a2
10007373:	8b 42 7c             	mov    0x7c(%edx),%eax
10007376:	03 42 78             	add    0x78(%edx),%eax
10007379:	3b c8                	cmp    %eax,%ecx
1000737b:	73 25                	jae    0x100073a2
1000737d:	8d 04 39             	lea    (%ecx,%edi,1),%eax
10007380:	50                   	push   %eax
10007381:	e8 5c 01 00 00       	call   0x100074e2
10007386:	8b f0                	mov    %eax,%esi
10007388:	6a 2e                	push   $0x2e
1000738a:	56                   	push   %esi
1000738b:	e8 31 f0 ff ff       	call   0x100063c1
10007390:	8d 48 01             	lea    0x1(%eax),%ecx
10007393:	c6 00 00             	movb   $0x0,(%eax)
10007396:	51                   	push   %ecx
10007397:	56                   	push   %esi
10007398:	e8 6e fb ff ff       	call   0x10006f0b
1000739d:	83 c4 14             	add    $0x14,%esp
100073a0:	eb b5                	jmp    0x10007357
100073a2:	8d 04 39             	lea    (%ecx,%edi,1),%eax
100073a5:	eb b0                	jmp    0x10007357
100073a7:	55                   	push   %ebp
100073a8:	8b ec                	mov    %esp,%ebp
100073aa:	83 ec 10             	sub    $0x10,%esp
100073ad:	8d 45 f0             	lea    -0x10(%ebp),%eax
100073b0:	50                   	push   %eax
100073b1:	6a 0c                	push   $0xc
100073b3:	6a 04                	push   $0x4
100073b5:	68 38 08 00 00       	push   $0x838
100073ba:	68 e0 22 01 10       	push   $0x100122e0
100073bf:	e8 f9 ec ff ff       	call   0x100060bd
100073c4:	8d 45 f0             	lea    -0x10(%ebp),%eax
100073c7:	c6 45 fc 00          	movb   $0x0,-0x4(%ebp)
100073cb:	50                   	push   %eax
100073cc:	e8 fc 00 00 00       	call   0x100074cd
100073d1:	83 c4 18             	add    $0x18,%esp
100073d4:	8b e5                	mov    %ebp,%esp
100073d6:	5d                   	pop    %ebp
100073d7:	c3                   	ret    
100073d8:	55                   	push   %ebp
100073d9:	8b ec                	mov    %esp,%ebp
100073db:	83 ec 0c             	sub    $0xc,%esp
100073de:	8d 45 f4             	lea    -0xc(%ebp),%eax
100073e1:	50                   	push   %eax
100073e2:	6a 0b                	push   $0xb
100073e4:	6a 0f                	push   $0xf
100073e6:	68 cf 00 00 00       	push   $0xcf
100073eb:	68 e0 22 01 10       	push   $0x100122e0
100073f0:	e8 c8 ec ff ff       	call   0x100060bd
100073f5:	8d 45 f4             	lea    -0xc(%ebp),%eax
100073f8:	c6 45 ff 00          	movb   $0x0,-0x1(%ebp)
100073fc:	50                   	push   %eax
100073fd:	e8 cb 00 00 00       	call   0x100074cd
10007402:	83 c4 18             	add    $0x18,%esp
10007405:	8b e5                	mov    %ebp,%esp
10007407:	5d                   	pop    %ebp
10007408:	c3                   	ret    
10007409:	55                   	push   %ebp
1000740a:	8b ec                	mov    %esp,%ebp
1000740c:	83 ec 0c             	sub    $0xc,%esp
1000740f:	8d 45 f4             	lea    -0xc(%ebp),%eax
10007412:	50                   	push   %eax
10007413:	6a 0b                	push   $0xb
10007415:	6a 0e                	push   $0xe
10007417:	68 36 04 00 00       	push   $0x436
1000741c:	68 e0 22 01 10       	push   $0x100122e0
10007421:	e8 97 ec ff ff       	call   0x100060bd
10007426:	8d 45 f4             	lea    -0xc(%ebp),%eax
10007429:	c6 45 ff 00          	movb   $0x0,-0x1(%ebp)
1000742d:	50                   	push   %eax
1000742e:	e8 9a 00 00 00       	call   0x100074cd
10007433:	83 c4 18             	add    $0x18,%esp
10007436:	8b e5                	mov    %ebp,%esp
10007438:	5d                   	pop    %ebp
10007439:	c3                   	ret    
1000743a:	55                   	push   %ebp
1000743b:	8b ec                	mov    %esp,%ebp
1000743d:	83 ec 0c             	sub    $0xc,%esp
10007440:	8d 45 f4             	lea    -0xc(%ebp),%eax
10007443:	50                   	push   %eax
10007444:	6a 0a                	push   $0xa
10007446:	6a 07                	push   $0x7
10007448:	68 71 02 00 00       	push   $0x271
1000744d:	68 e0 22 01 10       	push   $0x100122e0
10007452:	e8 66 ec ff ff       	call   0x100060bd
10007457:	8d 45 f4             	lea    -0xc(%ebp),%eax
1000745a:	c6 45 fe 00          	movb   $0x0,-0x2(%ebp)
1000745e:	50                   	push   %eax
1000745f:	e8 69 00 00 00       	call   0x100074cd
10007464:	83 c4 18             	add    $0x18,%esp
10007467:	8b e5                	mov    %ebp,%esp
10007469:	5d                   	pop    %ebp
1000746a:	c3                   	ret    
1000746b:	55                   	push   %ebp
1000746c:	8b ec                	mov    %esp,%ebp
1000746e:	83 ec 0c             	sub    $0xc,%esp
10007471:	8d 45 f4             	lea    -0xc(%ebp),%eax
10007474:	50                   	push   %eax
10007475:	6a 0b                	push   $0xb
10007477:	6a 04                	push   $0x4
10007479:	68 93 09 00 00       	push   $0x993
1000747e:	68 e0 22 01 10       	push   $0x100122e0
10007483:	e8 35 ec ff ff       	call   0x100060bd
10007488:	8d 45 f4             	lea    -0xc(%ebp),%eax
1000748b:	c6 45 ff 00          	movb   $0x0,-0x1(%ebp)
1000748f:	50                   	push   %eax
10007490:	e8 38 00 00 00       	call   0x100074cd
10007495:	83 c4 18             	add    $0x18,%esp
10007498:	8b e5                	mov    %ebp,%esp
1000749a:	5d                   	pop    %ebp
1000749b:	c3                   	ret    
1000749c:	55                   	push   %ebp
1000749d:	8b ec                	mov    %esp,%ebp
1000749f:	83 ec 0c             	sub    $0xc,%esp
100074a2:	8d 45 f4             	lea    -0xc(%ebp),%eax
100074a5:	50                   	push   %eax
100074a6:	6a 09                	push   $0x9
100074a8:	6a 0b                	push   $0xb
100074aa:	68 31 03 00 00       	push   $0x331
100074af:	68 e0 22 01 10       	push   $0x100122e0
100074b4:	e8 04 ec ff ff       	call   0x100060bd
100074b9:	8d 45 f4             	lea    -0xc(%ebp),%eax
100074bc:	c6 45 fd 00          	movb   $0x0,-0x3(%ebp)
100074c0:	50                   	push   %eax
100074c1:	e8 07 00 00 00       	call   0x100074cd
100074c6:	83 c4 18             	add    $0x18,%esp
100074c9:	8b e5                	mov    %ebp,%esp
100074cb:	5d                   	pop    %ebp
100074cc:	c3                   	ret    
100074cd:	55                   	push   %ebp
100074ce:	8b ec                	mov    %esp,%ebp
100074d0:	ff 75 08             	pushl  0x8(%ebp)
100074d3:	68 d9 84 7d f3       	push   $0xf37d84d9
100074d8:	e8 2a fd ff ff       	call   0x10007207
100074dd:	59                   	pop    %ecx
100074de:	ff d0                	call   *%eax
100074e0:	5d                   	pop    %ebp
100074e1:	c3                   	ret    
100074e2:	55                   	push   %ebp
100074e3:	8b ec                	mov    %esp,%ebp
100074e5:	56                   	push   %esi
100074e6:	8b 75 08             	mov    0x8(%ebp),%esi
100074e9:	56                   	push   %esi
100074ea:	e8 29 f0 ff ff       	call   0x10006518
100074ef:	59                   	pop    %ecx
100074f0:	3d ff 01 00 00       	cmp    $0x1ff,%eax
100074f5:	76 04                	jbe    0x100074fb
100074f7:	33 c0                	xor    %eax,%eax
100074f9:	eb 17                	jmp    0x10007512
100074fb:	8a 16                	mov    (%esi),%dl
100074fd:	b8 e8 2e 01 10       	mov    $0x10012ee8,%eax
10007502:	8b c8                	mov    %eax,%ecx
10007504:	2b f0                	sub    %eax,%esi
10007506:	88 11                	mov    %dl,(%ecx)
10007508:	41                   	inc    %ecx
10007509:	8a 14 0e             	mov    (%esi,%ecx,1),%dl
1000750c:	84 d2                	test   %dl,%dl
1000750e:	75 f6                	jne    0x10007506
10007510:	88 11                	mov    %dl,(%ecx)
10007512:	5e                   	pop    %esi
10007513:	5d                   	pop    %ebp
10007514:	c3                   	ret    
10007515:	55                   	push   %ebp
10007516:	8b ec                	mov    %esp,%ebp
10007518:	56                   	push   %esi
10007519:	8b 75 08             	mov    0x8(%ebp),%esi
1000751c:	6a 00                	push   $0x0
1000751e:	ff 75 10             	pushl  0x10(%ebp)
10007521:	ff 76 04             	pushl  0x4(%esi)
10007524:	ff 75 0c             	pushl  0xc(%ebp)
10007527:	ff 15 28 20 01 10    	call   *0x10012028
1000752d:	33 c9                	xor    %ecx,%ecx
1000752f:	39 46 04             	cmp    %eax,0x4(%esi)
10007532:	5e                   	pop    %esi
10007533:	0f 94 c1             	sete   %cl
10007536:	8b c1                	mov    %ecx,%eax
10007538:	5d                   	pop    %ebp
10007539:	c3                   	ret    
1000753a:	55                   	push   %ebp
1000753b:	8b ec                	mov    %esp,%ebp
1000753d:	8b 45 0c             	mov    0xc(%ebp),%eax
10007540:	53                   	push   %ebx
10007541:	56                   	push   %esi
10007542:	57                   	push   %edi
10007543:	33 db                	xor    %ebx,%ebx
10007545:	c7 00 01 00 00 00    	movl   $0x1,(%eax)
1000754b:	8b fb                	mov    %ebx,%edi
1000754d:	e8 f8 e0 ff ff       	call   0x1000564a
10007552:	8b 75 08             	mov    0x8(%ebp),%esi
10007555:	a9 ff ff ff 7f       	test   $0x7fffffff,%eax
1000755a:	76 22                	jbe    0x1000757e
1000755c:	53                   	push   %ebx
1000755d:	53                   	push   %ebx
1000755e:	53                   	push   %ebx
1000755f:	ff 76 04             	pushl  0x4(%esi)
10007562:	ff 15 c8 22 01 10    	call   *0x100122c8
10007568:	47                   	inc    %edi
10007569:	e8 dc e0 ff ff       	call   0x1000564a
1000756e:	03 c0                	add    %eax,%eax
10007570:	3b f8                	cmp    %eax,%edi
10007572:	72 e8                	jb     0x1000755c
10007574:	eb 08                	jmp    0x1000757e
10007576:	6a 64                	push   $0x64
10007578:	e8 eb e3 ff ff       	call   0x10005968
1000757d:	59                   	pop    %ecx
1000757e:	39 5e 08             	cmp    %ebx,0x8(%esi)
10007581:	75 f3                	jne    0x10007576
10007583:	ff 36                	pushl  (%esi)
10007585:	e8 da d4 ff ff       	call   0x10004a64
1000758a:	ff 76 04             	pushl  0x4(%esi)
1000758d:	e8 6c d8 ff ff       	call   0x10004dfe
10007592:	59                   	pop    %ecx
10007593:	59                   	pop    %ecx
10007594:	5f                   	pop    %edi
10007595:	5e                   	pop    %esi
10007596:	5b                   	pop    %ebx
10007597:	5d                   	pop    %ebp
10007598:	c3                   	ret    
10007599:	55                   	push   %ebp
1000759a:	8b ec                	mov    %esp,%ebp
1000759c:	53                   	push   %ebx
1000759d:	56                   	push   %esi
1000759e:	8b 75 08             	mov    0x8(%ebp),%esi
100075a1:	57                   	push   %edi
100075a2:	33 ff                	xor    %edi,%edi
100075a4:	8b df                	mov    %edi,%ebx
100075a6:	89 7e 08             	mov    %edi,0x8(%esi)
100075a9:	e8 9c e0 ff ff       	call   0x1000564a
100075ae:	a9 ff ff ff 7f       	test   $0x7fffffff,%eax
100075b3:	76 36                	jbe    0x100075eb
100075b5:	57                   	push   %edi
100075b6:	57                   	push   %edi
100075b7:	56                   	push   %esi
100075b8:	ff 75 0c             	pushl  0xc(%ebp)
100075bb:	57                   	push   %edi
100075bc:	57                   	push   %edi
100075bd:	ff 15 4c 22 01 10    	call   *0x1001224c
100075c3:	8b f8                	mov    %eax,%edi
100075c5:	85 ff                	test   %edi,%edi
100075c7:	74 2a                	je     0x100075f3
100075c9:	6a 02                	push   $0x2
100075cb:	57                   	push   %edi
100075cc:	ff 15 30 d0 00 10    	call   *0x1000d030
100075d2:	ff 46 08             	incl   0x8(%esi)
100075d5:	57                   	push   %edi
100075d6:	e8 23 d8 ff ff       	call   0x10004dfe
100075db:	59                   	pop    %ecx
100075dc:	43                   	inc    %ebx
100075dd:	e8 68 e0 ff ff       	call   0x1000564a
100075e2:	03 c0                	add    %eax,%eax
100075e4:	6a 00                	push   $0x0
100075e6:	5f                   	pop    %edi
100075e7:	3b d8                	cmp    %eax,%ebx
100075e9:	72 ca                	jb     0x100075b5
100075eb:	33 c0                	xor    %eax,%eax
100075ed:	40                   	inc    %eax
100075ee:	5f                   	pop    %edi
100075ef:	5e                   	pop    %esi
100075f0:	5b                   	pop    %ebx
100075f1:	5d                   	pop    %ebp
100075f2:	c3                   	ret    
100075f3:	33 c0                	xor    %eax,%eax
100075f5:	eb f7                	jmp    0x100075ee
100075f7:	55                   	push   %ebp
100075f8:	8b ec                	mov    %esp,%ebp
100075fa:	56                   	push   %esi
100075fb:	ff 75 0c             	pushl  0xc(%ebp)
100075fe:	e8 44 d4 ff ff       	call   0x10004a47
10007603:	8b 75 08             	mov    0x8(%ebp),%esi
10007606:	59                   	pop    %ecx
10007607:	89 06                	mov    %eax,(%esi)
10007609:	85 c0                	test   %eax,%eax
1000760b:	75 04                	jne    0x10007611
1000760d:	33 c0                	xor    %eax,%eax
1000760f:	eb 44                	jmp    0x10007655
10007611:	ff 75 10             	pushl  0x10(%ebp)
10007614:	6a 00                	push   $0x0
10007616:	6a 00                	push   $0x0
10007618:	6a ff                	push   $0xffffffff
1000761a:	ff 15 28 20 01 10    	call   *0x10012028
10007620:	89 46 04             	mov    %eax,0x4(%esi)
10007623:	85 c0                	test   %eax,%eax
10007625:	75 0a                	jne    0x10007631
10007627:	ff 36                	pushl  (%esi)
10007629:	e8 36 d4 ff ff       	call   0x10004a64
1000762e:	59                   	pop    %ecx
1000762f:	eb dc                	jmp    0x1000760d
10007631:	ff 75 14             	pushl  0x14(%ebp)
10007634:	56                   	push   %esi
10007635:	e8 5f ff ff ff       	call   0x10007599
1000763a:	59                   	pop    %ecx
1000763b:	59                   	pop    %ecx
1000763c:	85 c0                	test   %eax,%eax
1000763e:	75 12                	jne    0x10007652
10007640:	ff 36                	pushl  (%esi)
10007642:	e8 1d d4 ff ff       	call   0x10004a64
10007647:	ff 76 04             	pushl  0x4(%esi)
1000764a:	e8 af d7 ff ff       	call   0x10004dfe
1000764f:	59                   	pop    %ecx
10007650:	eb dc                	jmp    0x1000762e
10007652:	33 c0                	xor    %eax,%eax
10007654:	40                   	inc    %eax
10007655:	5e                   	pop    %esi
10007656:	5d                   	pop    %ebp
10007657:	c3                   	ret    
10007658:	55                   	push   %ebp
10007659:	8b ec                	mov    %esp,%ebp
1000765b:	8b 45 08             	mov    0x8(%ebp),%eax
1000765e:	ff 75 0c             	pushl  0xc(%ebp)
10007661:	ff 30                	pushl  (%eax)
10007663:	e8 c2 d3 ff ff       	call   0x10004a2a
10007668:	59                   	pop    %ecx
10007669:	59                   	pop    %ecx
1000766a:	5d                   	pop    %ebp
1000766b:	c3                   	ret    
1000766c:	55                   	push   %ebp
1000766d:	8b ec                	mov    %esp,%ebp
1000766f:	8b 45 08             	mov    0x8(%ebp),%eax
10007672:	ff 75 0c             	pushl  0xc(%ebp)
10007675:	ff 30                	pushl  (%eax)
10007677:	e8 f6 d3 ff ff       	call   0x10004a72
1000767c:	59                   	pop    %ecx
1000767d:	59                   	pop    %ecx
1000767e:	5d                   	pop    %ebp
1000767f:	c3                   	ret    
10007680:	55                   	push   %ebp
10007681:	8b ec                	mov    %esp,%ebp
10007683:	ff 75 18             	pushl  0x18(%ebp)
10007686:	8b 45 08             	mov    0x8(%ebp),%eax
10007689:	ff 75 14             	pushl  0x14(%ebp)
1000768c:	ff 75 10             	pushl  0x10(%ebp)
1000768f:	ff 75 0c             	pushl  0xc(%ebp)
10007692:	ff 70 04             	pushl  0x4(%eax)
10007695:	ff 15 b0 21 01 10    	call   *0x100121b0
1000769b:	5d                   	pop    %ebp
1000769c:	c3                   	ret    
1000769d:	55                   	push   %ebp
1000769e:	8b ec                	mov    %esp,%ebp
100076a0:	ff 75 14             	pushl  0x14(%ebp)
100076a3:	8b 45 08             	mov    0x8(%ebp),%eax
100076a6:	ff 75 10             	pushl  0x10(%ebp)
100076a9:	ff 75 0c             	pushl  0xc(%ebp)
100076ac:	ff 70 04             	pushl  0x4(%eax)
100076af:	ff 15 c8 22 01 10    	call   *0x100122c8
100076b5:	5d                   	pop    %ebp
100076b6:	c3                   	ret    
100076b7:	55                   	push   %ebp
100076b8:	8b ec                	mov    %esp,%ebp
100076ba:	56                   	push   %esi
100076bb:	8b 75 08             	mov    0x8(%ebp),%esi
100076be:	ff 76 14             	pushl  0x14(%esi)
100076c1:	e8 38 d7 ff ff       	call   0x10004dfe
100076c6:	ff 76 18             	pushl  0x18(%esi)
100076c9:	e8 07 d4 ff ff       	call   0x10004ad5
100076ce:	59                   	pop    %ecx
100076cf:	59                   	pop    %ecx
100076d0:	5e                   	pop    %esi
100076d1:	5d                   	pop    %ebp
100076d2:	c3                   	ret    
100076d3:	55                   	push   %ebp
100076d4:	8b ec                	mov    %esp,%ebp
100076d6:	56                   	push   %esi
100076d7:	8b 75 08             	mov    0x8(%ebp),%esi
100076da:	33 c0                	xor    %eax,%eax
100076dc:	50                   	push   %eax
100076dd:	68 00 00 00 48       	push   $0x48000000
100076e2:	ff 75 20             	pushl  0x20(%ebp)
100076e5:	89 46 0c             	mov    %eax,0xc(%esi)
100076e8:	50                   	push   %eax
100076e9:	ff 75 1c             	pushl  0x1c(%ebp)
100076ec:	89 46 08             	mov    %eax,0x8(%esi)
100076ef:	ff 75 18             	pushl  0x18(%ebp)
100076f2:	ff 75 0c             	pushl  0xc(%ebp)
100076f5:	ff 15 a8 22 01 10    	call   *0x100122a8
100076fb:	89 46 14             	mov    %eax,0x14(%esi)
100076fe:	83 f8 ff             	cmp    $0xffffffff,%eax
10007701:	75 04                	jne    0x10007707
10007703:	33 c0                	xor    %eax,%eax
10007705:	eb 2a                	jmp    0x10007731
10007707:	ff 75 0c             	pushl  0xc(%ebp)
1000770a:	e8 ce ed ff ff       	call   0x100064dd
1000770f:	89 46 18             	mov    %eax,0x18(%esi)
10007712:	59                   	pop    %ecx
10007713:	85 c0                	test   %eax,%eax
10007715:	75 0b                	jne    0x10007722
10007717:	ff 76 14             	pushl  0x14(%esi)
1000771a:	e8 df d6 ff ff       	call   0x10004dfe
1000771f:	59                   	pop    %ecx
10007720:	eb e1                	jmp    0x10007703
10007722:	8b 45 10             	mov    0x10(%ebp),%eax
10007725:	89 46 20             	mov    %eax,0x20(%esi)
10007728:	8b 45 14             	mov    0x14(%ebp),%eax
1000772b:	89 46 24             	mov    %eax,0x24(%esi)
1000772e:	33 c0                	xor    %eax,%eax
10007730:	40                   	inc    %eax
10007731:	5e                   	pop    %esi
10007732:	5d                   	pop    %ebp
10007733:	c3                   	ret    
10007734:	55                   	push   %ebp
10007735:	8b ec                	mov    %esp,%ebp
10007737:	8b 45 08             	mov    0x8(%ebp),%eax
1000773a:	50                   	push   %eax
1000773b:	6a 00                	push   $0x0
1000773d:	ff 75 10             	pushl  0x10(%ebp)
10007740:	ff 75 0c             	pushl  0xc(%ebp)
10007743:	ff 70 14             	pushl  0x14(%eax)
10007746:	ff 15 14 21 01 10    	call   *0x10012114
1000774c:	5d                   	pop    %ebp
1000774d:	c3                   	ret    
1000774e:	55                   	push   %ebp
1000774f:	8b ec                	mov    %esp,%ebp
10007751:	8b 55 08             	mov    0x8(%ebp),%edx
10007754:	8b 4a 08             	mov    0x8(%edx),%ecx
10007757:	03 4d 0c             	add    0xc(%ebp),%ecx
1000775a:	8b 42 0c             	mov    0xc(%edx),%eax
1000775d:	13 45 10             	adc    0x10(%ebp),%eax
10007760:	89 4a 08             	mov    %ecx,0x8(%edx)
10007763:	89 42 0c             	mov    %eax,0xc(%edx)
10007766:	5d                   	pop    %ebp
10007767:	c3                   	ret    
10007768:	55                   	push   %ebp
10007769:	8b ec                	mov    %esp,%ebp
1000776b:	8b 45 08             	mov    0x8(%ebp),%eax
1000776e:	50                   	push   %eax
1000776f:	6a 00                	push   $0x0
10007771:	ff 75 10             	pushl  0x10(%ebp)
10007774:	ff 75 0c             	pushl  0xc(%ebp)
10007777:	ff 70 14             	pushl  0x14(%eax)
1000777a:	ff 15 70 21 01 10    	call   *0x10012170
10007780:	5d                   	pop    %ebp
10007781:	c3                   	ret    
10007782:	55                   	push   %ebp
10007783:	8b ec                	mov    %esp,%ebp
10007785:	81 ec 68 02 00 00    	sub    $0x268,%esp
1000778b:	53                   	push   %ebx
1000778c:	56                   	push   %esi
1000778d:	8b 75 08             	mov    0x8(%ebp),%esi
10007790:	33 c0                	xor    %eax,%eax
10007792:	57                   	push   %edi
10007793:	8b 7d 0c             	mov    0xc(%ebp),%edi
10007796:	8b d8                	mov    %eax,%ebx
10007798:	50                   	push   %eax
10007799:	56                   	push   %esi
1000779a:	89 45 fc             	mov    %eax,-0x4(%ebp)
1000779d:	89 5d f8             	mov    %ebx,-0x8(%ebp)
100077a0:	89 45 f0             	mov    %eax,-0x10(%ebp)
100077a3:	89 45 f4             	mov    %eax,-0xc(%ebp)
100077a6:	ff 57 04             	call   *0x4(%edi)
100077a9:	59                   	pop    %ecx
100077aa:	59                   	pop    %ecx
100077ab:	85 c0                	test   %eax,%eax
100077ad:	0f 84 d0 01 00 00    	je     0x10007983
100077b3:	8d 45 f0             	lea    -0x10(%ebp),%eax
100077b6:	56                   	push   %esi
100077b7:	50                   	push   %eax
100077b8:	e8 9f 02 00 00       	call   0x10007a5c
100077bd:	53                   	push   %ebx
100077be:	56                   	push   %esi
100077bf:	ff 77 0c             	pushl  0xc(%edi)
100077c2:	ff 57 28             	call   *0x28(%edi)
100077c5:	83 c4 14             	add    $0x14,%esp
100077c8:	01 47 18             	add    %eax,0x18(%edi)
100077cb:	11 57 1c             	adc    %edx,0x1c(%edi)
100077ce:	e9 ad 01 00 00       	jmp    0x10007980
100077d3:	8b 45 f0             	mov    -0x10(%ebp),%eax
100077d6:	0b 45 f4             	or     -0xc(%ebp),%eax
100077d9:	74 3f                	je     0x1000781a
100077db:	ff 33                	pushl  (%ebx)
100077dd:	56                   	push   %esi
100077de:	e8 9f ec ff ff       	call   0x10006482
100077e3:	8b f3                	mov    %ebx,%esi
100077e5:	8b 5b 04             	mov    0x4(%ebx),%ebx
100077e8:	89 5d f8             	mov    %ebx,-0x8(%ebp)
100077eb:	ff 36                	pushl  (%esi)
100077ed:	e8 e3 d2 ff ff       	call   0x10004ad5
100077f2:	56                   	push   %esi
100077f3:	e8 dd d2 ff ff       	call   0x10004ad5
100077f8:	8b 45 f0             	mov    -0x10(%ebp),%eax
100077fb:	83 c4 10             	add    $0x10,%esp
100077fe:	8b 4d f4             	mov    -0xc(%ebp),%ecx
10007801:	83 c0 ff             	add    $0xffffffff,%eax
10007804:	89 45 f0             	mov    %eax,-0x10(%ebp)
10007807:	83 d1 ff             	adc    $0xffffffff,%ecx
1000780a:	0b c1                	or     %ecx,%eax
1000780c:	89 4d f4             	mov    %ecx,-0xc(%ebp)
1000780f:	75 03                	jne    0x10007814
10007811:	21 45 fc             	and    %eax,-0x4(%ebp)
10007814:	8b 75 08             	mov    0x8(%ebp),%esi
10007817:	33 c0                	xor    %eax,%eax
10007819:	40                   	inc    %eax
1000781a:	85 c0                	test   %eax,%eax
1000781c:	0f 84 80 01 00 00    	je     0x100079a2
10007822:	56                   	push   %esi
10007823:	e8 03 ed ff ff       	call   0x1000652b
10007828:	c7 04 24 c8 d4 00 10 	movl   $0x1000d4c8,(%esp)
1000782f:	56                   	push   %esi
10007830:	89 45 ec             	mov    %eax,-0x14(%ebp)
10007833:	e8 68 eb ff ff       	call   0x100063a0
10007838:	59                   	pop    %ecx
10007839:	59                   	pop    %ecx
1000783a:	e8 22 de ff ff       	call   0x10005661
1000783f:	b9 01 06 00 00       	mov    $0x601,%ecx
10007844:	66 3b c1             	cmp    %cx,%ax
10007847:	8d 85 98 fd ff ff    	lea    -0x268(%ebp),%eax
1000784d:	72 12                	jb     0x10007861
1000784f:	6a 02                	push   $0x2
10007851:	6a 00                	push   $0x0
10007853:	6a 00                	push   $0x0
10007855:	50                   	push   %eax
10007856:	6a 01                	push   $0x1
10007858:	56                   	push   %esi
10007859:	ff 15 78 21 01 10    	call   *0x10012178
1000785f:	eb 08                	jmp    0x10007869
10007861:	50                   	push   %eax
10007862:	56                   	push   %esi
10007863:	ff 15 f8 20 01 10    	call   *0x100120f8
10007869:	89 45 0c             	mov    %eax,0xc(%ebp)
1000786c:	83 f8 ff             	cmp    $0xffffffff,%eax
1000786f:	0f 84 0e 01 00 00    	je     0x10007983
10007875:	8b d8                	mov    %eax,%ebx
10007877:	8d 85 c4 fd ff ff    	lea    -0x23c(%ebp),%eax
1000787d:	68 4c d1 00 10       	push   $0x1000d14c
10007882:	50                   	push   %eax
10007883:	e8 99 eb ff ff       	call   0x10006421
10007888:	59                   	pop    %ecx
10007889:	59                   	pop    %ecx
1000788a:	85 c0                	test   %eax,%eax
1000788c:	0f 84 cc 00 00 00    	je     0x1000795e
10007892:	8d 85 c4 fd ff ff    	lea    -0x23c(%ebp),%eax
10007898:	68 c0 d4 00 10       	push   $0x1000d4c0
1000789d:	50                   	push   %eax
1000789e:	e8 7e eb ff ff       	call   0x10006421
100078a3:	59                   	pop    %ecx
100078a4:	59                   	pop    %ecx
100078a5:	85 c0                	test   %eax,%eax
100078a7:	0f 84 b1 00 00 00    	je     0x1000795e
100078ad:	f7 85 98 fd ff ff 00 	testl  $0x400,-0x268(%ebp)
100078b4:	04 00 00 
100078b7:	0f 85 a1 00 00 00    	jne    0x1000795e
100078bd:	8d 85 c4 fd ff ff    	lea    -0x23c(%ebp),%eax
100078c3:	50                   	push   %eax
100078c4:	8b 45 ec             	mov    -0x14(%ebp),%eax
100078c7:	8d 04 46             	lea    (%esi,%eax,2),%eax
100078ca:	50                   	push   %eax
100078cb:	e8 b2 eb ff ff       	call   0x10006482
100078d0:	f6 85 98 fd ff ff 10 	testb  $0x10,-0x268(%ebp)
100078d7:	59                   	pop    %ecx
100078d8:	59                   	pop    %ecx
100078d9:	74 40                	je     0x1000791b
100078db:	68 cc d4 00 10       	push   $0x1000d4cc
100078e0:	56                   	push   %esi
100078e1:	e8 ba ea ff ff       	call   0x100063a0
100078e6:	8d 85 c4 fd ff ff    	lea    -0x23c(%ebp),%eax
100078ec:	50                   	push   %eax
100078ed:	56                   	push   %esi
100078ee:	ff 57 04             	call   *0x4(%edi)
100078f1:	83 c4 10             	add    $0x10,%esp
100078f4:	85 c0                	test   %eax,%eax
100078f6:	74 66                	je     0x1000795e
100078f8:	8d 45 f0             	lea    -0x10(%ebp),%eax
100078fb:	56                   	push   %esi
100078fc:	50                   	push   %eax
100078fd:	e8 5a 01 00 00       	call   0x10007a5c
10007902:	8d 85 c4 fd ff ff    	lea    -0x23c(%ebp),%eax
10007908:	50                   	push   %eax
10007909:	56                   	push   %esi
1000790a:	ff 77 0c             	pushl  0xc(%edi)
1000790d:	ff 57 28             	call   *0x28(%edi)
10007910:	83 c4 14             	add    $0x14,%esp
10007913:	01 47 18             	add    %eax,0x18(%edi)
10007916:	11 57 1c             	adc    %edx,0x1c(%edi)
10007919:	eb 43                	jmp    0x1000795e
1000791b:	8b 8d b4 fd ff ff    	mov    -0x24c(%ebp),%ecx
10007921:	8b 85 b8 fd ff ff    	mov    -0x248(%ebp),%eax
10007927:	51                   	push   %ecx
10007928:	50                   	push   %eax
10007929:	89 45 e8             	mov    %eax,-0x18(%ebp)
1000792c:	8d 85 c4 fd ff ff    	lea    -0x23c(%ebp),%eax
10007932:	50                   	push   %eax
10007933:	56                   	push   %esi
10007934:	89 4d 0c             	mov    %ecx,0xc(%ebp)
10007937:	ff 57 08             	call   *0x8(%edi)
1000793a:	83 c4 10             	add    $0x10,%esp
1000793d:	85 c0                	test   %eax,%eax
1000793f:	74 1d                	je     0x1000795e
10007941:	ff 75 0c             	pushl  0xc(%ebp)
10007944:	8d 85 c4 fd ff ff    	lea    -0x23c(%ebp),%eax
1000794a:	ff 75 e8             	pushl  -0x18(%ebp)
1000794d:	50                   	push   %eax
1000794e:	56                   	push   %esi
1000794f:	ff 77 10             	pushl  0x10(%edi)
10007952:	ff 57 2c             	call   *0x2c(%edi)
10007955:	83 c4 14             	add    $0x14,%esp
10007958:	01 47 20             	add    %eax,0x20(%edi)
1000795b:	11 57 24             	adc    %edx,0x24(%edi)
1000795e:	83 3f 00             	cmpl   $0x0,(%edi)
10007961:	75 16                	jne    0x10007979
10007963:	8d 85 98 fd ff ff    	lea    -0x268(%ebp),%eax
10007969:	50                   	push   %eax
1000796a:	53                   	push   %ebx
1000796b:	ff 15 74 21 01 10    	call   *0x10012174
10007971:	85 c0                	test   %eax,%eax
10007973:	0f 85 fe fe ff ff    	jne    0x10007877
10007979:	53                   	push   %ebx
1000797a:	ff 15 bc 22 01 10    	call   *0x100122bc
10007980:	8b 5d f8             	mov    -0x8(%ebp),%ebx
10007983:	83 3f 00             	cmpl   $0x0,(%edi)
10007986:	0f 84 47 fe ff ff    	je     0x100077d3
1000798c:	eb 14                	jmp    0x100079a2
1000798e:	8b f3                	mov    %ebx,%esi
10007990:	8b 5b 04             	mov    0x4(%ebx),%ebx
10007993:	ff 36                	pushl  (%esi)
10007995:	e8 3b d1 ff ff       	call   0x10004ad5
1000799a:	56                   	push   %esi
1000799b:	e8 35 d1 ff ff       	call   0x10004ad5
100079a0:	59                   	pop    %ecx
100079a1:	59                   	pop    %ecx
100079a2:	85 db                	test   %ebx,%ebx
100079a4:	75 e8                	jne    0x1000798e
100079a6:	5f                   	pop    %edi
100079a7:	5e                   	pop    %esi
100079a8:	5b                   	pop    %ebx
100079a9:	8b e5                	mov    %ebp,%esp
100079ab:	5d                   	pop    %ebp
100079ac:	c3                   	ret    
100079ad:	55                   	push   %ebp
100079ae:	8b ec                	mov    %esp,%ebp
100079b0:	6a 00                	push   $0x0
100079b2:	ff 75 18             	pushl  0x18(%ebp)
100079b5:	ff 75 14             	pushl  0x14(%ebp)
100079b8:	6a 00                	push   $0x0
100079ba:	ff 75 10             	pushl  0x10(%ebp)
100079bd:	ff 75 0c             	pushl  0xc(%ebp)
100079c0:	ff 75 08             	pushl  0x8(%ebp)
100079c3:	ff 15 a8 22 01 10    	call   *0x100122a8
100079c9:	33 c9                	xor    %ecx,%ecx
100079cb:	83 f8 ff             	cmp    $0xffffffff,%eax
100079ce:	0f 44 c1             	cmove  %ecx,%eax
100079d1:	5d                   	pop    %ebp
100079d2:	c3                   	ret    
100079d3:	55                   	push   %ebp
100079d4:	8b ec                	mov    %esp,%ebp
100079d6:	6a 00                	push   $0x0
100079d8:	ff 75 14             	pushl  0x14(%ebp)
100079db:	ff 75 10             	pushl  0x10(%ebp)
100079de:	ff 75 0c             	pushl  0xc(%ebp)
100079e1:	ff 75 08             	pushl  0x8(%ebp)
100079e4:	ff 15 14 21 01 10    	call   *0x10012114
100079ea:	5d                   	pop    %ebp
100079eb:	c3                   	ret    
100079ec:	55                   	push   %ebp
100079ed:	8b ec                	mov    %esp,%ebp
100079ef:	ff 75 14             	pushl  0x14(%ebp)
100079f2:	6a 00                	push   $0x0
100079f4:	ff 75 10             	pushl  0x10(%ebp)
100079f7:	ff 75 0c             	pushl  0xc(%ebp)
100079fa:	ff 75 08             	pushl  0x8(%ebp)
100079fd:	ff 15 48 21 01 10    	call   *0x10012148
10007a03:	5d                   	pop    %ebp
10007a04:	c3                   	ret    
10007a05:	55                   	push   %ebp
10007a06:	8b ec                	mov    %esp,%ebp
10007a08:	6a 00                	push   $0x0
10007a0a:	ff 75 14             	pushl  0x14(%ebp)
10007a0d:	ff 75 10             	pushl  0x10(%ebp)
10007a10:	ff 75 0c             	pushl  0xc(%ebp)
10007a13:	ff 75 08             	pushl  0x8(%ebp)
10007a16:	ff 15 70 21 01 10    	call   *0x10012170
10007a1c:	5d                   	pop    %ebp
10007a1d:	c3                   	ret    
10007a1e:	55                   	push   %ebp
10007a1f:	8b ec                	mov    %esp,%ebp
10007a21:	8b 45 08             	mov    0x8(%ebp),%eax
10007a24:	83 c0 fe             	add    $0xfffffffe,%eax
10007a27:	6a 02                	push   $0x2
10007a29:	59                   	pop    %ecx
10007a2a:	3b c8                	cmp    %eax,%ecx
10007a2c:	1b c0                	sbb    %eax,%eax
10007a2e:	40                   	inc    %eax
10007a2f:	5d                   	pop    %ebp
10007a30:	c3                   	ret    
10007a31:	55                   	push   %ebp
10007a32:	8b ec                	mov    %esp,%ebp
10007a34:	56                   	push   %esi
10007a35:	ff 75 08             	pushl  0x8(%ebp)
10007a38:	ff 15 50 20 01 10    	call   *0x10012050
10007a3e:	8b f0                	mov    %eax,%esi
10007a40:	66 83 3e 2e          	cmpw   $0x2e,(%esi)
10007a44:	75 11                	jne    0x10007a57
10007a46:	56                   	push   %esi
10007a47:	e8 df ea ff ff       	call   0x1000652b
10007a4c:	59                   	pop    %ecx
10007a4d:	83 f8 01             	cmp    $0x1,%eax
10007a50:	76 05                	jbe    0x10007a57
10007a52:	8d 46 02             	lea    0x2(%esi),%eax
10007a55:	eb 02                	jmp    0x10007a59
10007a57:	33 c0                	xor    %eax,%eax
10007a59:	5e                   	pop    %esi
10007a5a:	5d                   	pop    %ebp
10007a5b:	c3                   	ret    
10007a5c:	55                   	push   %ebp
10007a5d:	8b ec                	mov    %esp,%ebp
10007a5f:	56                   	push   %esi
10007a60:	6a 08                	push   $0x8
10007a62:	e8 21 d0 ff ff       	call   0x10004a88
10007a67:	8b f0                	mov    %eax,%esi
10007a69:	59                   	pop    %ecx
10007a6a:	85 f6                	test   %esi,%esi
10007a6c:	74 30                	je     0x10007a9e
10007a6e:	ff 75 0c             	pushl  0xc(%ebp)
10007a71:	e8 67 ea ff ff       	call   0x100064dd
10007a76:	83 66 04 00          	andl   $0x0,0x4(%esi)
10007a7a:	59                   	pop    %ecx
10007a7b:	8b 4d 08             	mov    0x8(%ebp),%ecx
10007a7e:	89 06                	mov    %eax,(%esi)
10007a80:	8b 01                	mov    (%ecx),%eax
10007a82:	0b 41 04             	or     0x4(%ecx),%eax
10007a85:	74 08                	je     0x10007a8f
10007a87:	8b 41 0c             	mov    0xc(%ecx),%eax
10007a8a:	89 70 04             	mov    %esi,0x4(%eax)
10007a8d:	eb 03                	jmp    0x10007a92
10007a8f:	89 71 08             	mov    %esi,0x8(%ecx)
10007a92:	33 c0                	xor    %eax,%eax
10007a94:	89 71 0c             	mov    %esi,0xc(%ecx)
10007a97:	40                   	inc    %eax
10007a98:	01 01                	add    %eax,(%ecx)
10007a9a:	83 51 04 00          	adcl   $0x0,0x4(%ecx)
10007a9e:	5e                   	pop    %esi
10007a9f:	5d                   	pop    %ebp
10007aa0:	c3                   	ret    
10007aa1:	55                   	push   %ebp
10007aa2:	8b ec                	mov    %esp,%ebp
10007aa4:	56                   	push   %esi
10007aa5:	ff 75 0c             	pushl  0xc(%ebp)
10007aa8:	ff 75 08             	pushl  0x8(%ebp)
10007aab:	ff 15 6c 21 01 10    	call   *0x1001216c
10007ab1:	8b f0                	mov    %eax,%esi
10007ab3:	85 f6                	test   %esi,%esi
10007ab5:	75 26                	jne    0x10007add
10007ab7:	e8 9e da ff ff       	call   0x1000555a
10007abc:	83 f8 03             	cmp    $0x3,%eax
10007abf:	75 1c                	jne    0x10007add
10007ac1:	e8 af d8 ff ff       	call   0x10005375
10007ac6:	85 c0                	test   %eax,%eax
10007ac8:	74 15                	je     0x10007adf
10007aca:	ff 75 0c             	pushl  0xc(%ebp)
10007acd:	ff 75 08             	pushl  0x8(%ebp)
10007ad0:	ff 15 6c 21 01 10    	call   *0x1001216c
10007ad6:	8b f0                	mov    %eax,%esi
10007ad8:	e8 28 d9 ff ff       	call   0x10005405
10007add:	8b c6                	mov    %esi,%eax
10007adf:	5e                   	pop    %esi
10007ae0:	5d                   	pop    %ebp
10007ae1:	c3                   	ret    
10007ae2:	55                   	push   %ebp
10007ae3:	8b ec                	mov    %esp,%ebp
10007ae5:	83 ec 10             	sub    $0x10,%esp
10007ae8:	56                   	push   %esi
10007ae9:	68 fe ff 00 00       	push   $0xfffe
10007aee:	e8 95 cf ff ff       	call   0x10004a88
10007af3:	8b f0                	mov    %eax,%esi
10007af5:	59                   	pop    %ecx
10007af6:	85 f6                	test   %esi,%esi
10007af8:	0f 84 84 00 00 00    	je     0x10007b82
10007afe:	57                   	push   %edi
10007aff:	8d 45 f0             	lea    -0x10(%ebp),%eax
10007b02:	50                   	push   %eax
10007b03:	6a 0e                	push   $0xe
10007b05:	6a 08                	push   $0x8
10007b07:	68 87 02 00 00       	push   $0x287
10007b0c:	68 e0 22 01 10       	push   $0x100122e0
10007b11:	e8 a7 e5 ff ff       	call   0x100060bd
10007b16:	33 c0                	xor    %eax,%eax
10007b18:	66 89 45 fe          	mov    %ax,-0x2(%ebp)
10007b1c:	8d 45 f0             	lea    -0x10(%ebp),%eax
10007b1f:	50                   	push   %eax
10007b20:	56                   	push   %esi
10007b21:	e8 5c e9 ff ff       	call   0x10006482
10007b26:	83 c4 1c             	add    $0x1c,%esp
10007b29:	6a 5a                	push   $0x5a
10007b2b:	5f                   	pop    %edi
10007b2c:	eb 43                	jmp    0x10007b71
10007b2e:	ff 15 8c 22 01 10    	call   *0x1001228c
10007b34:	83 f8 02             	cmp    $0x2,%eax
10007b37:	74 05                	je     0x10007b3e
10007b39:	83 f8 03             	cmp    $0x3,%eax
10007b3c:	75 29                	jne    0x10007b67
10007b3e:	ff 75 08             	pushl  0x8(%ebp)
10007b41:	83 25 20 2d 01 10 00 	andl   $0x0,0x10012d20
10007b48:	56                   	push   %esi
10007b49:	e8 34 fc ff ff       	call   0x10007782
10007b4e:	0f b7 46 08          	movzwl 0x8(%esi),%eax
10007b52:	59                   	pop    %ecx
10007b53:	59                   	pop    %ecx
10007b54:	83 f8 61             	cmp    $0x61,%eax
10007b57:	72 0e                	jb     0x10007b67
10007b59:	83 f8 7a             	cmp    $0x7a,%eax
10007b5c:	77 09                	ja     0x10007b67
10007b5e:	25 df ff 00 00       	and    $0xffdf,%eax
10007b63:	66 89 46 08          	mov    %ax,0x8(%esi)
10007b67:	66 ff 46 08          	incw   0x8(%esi)
10007b6b:	33 c0                	xor    %eax,%eax
10007b6d:	66 89 46 0e          	mov    %ax,0xe(%esi)
10007b71:	56                   	push   %esi
10007b72:	66 39 7e 08          	cmp    %di,0x8(%esi)
10007b76:	76 b6                	jbe    0x10007b2e
10007b78:	e8 58 cf ff ff       	call   0x10004ad5
10007b7d:	59                   	pop    %ecx
10007b7e:	33 c0                	xor    %eax,%eax
10007b80:	40                   	inc    %eax
10007b81:	5f                   	pop    %edi
10007b82:	5e                   	pop    %esi
10007b83:	8b e5                	mov    %ebp,%esp
10007b85:	5d                   	pop    %ebp
10007b86:	c3                   	ret    
10007b87:	55                   	push   %ebp
10007b88:	8b ec                	mov    %esp,%ebp
10007b8a:	83 ec 24             	sub    $0x24,%esp
10007b8d:	8d 45 f4             	lea    -0xc(%ebp),%eax
10007b90:	57                   	push   %edi
10007b91:	8b 7d 10             	mov    0x10(%ebp),%edi
10007b94:	50                   	push   %eax
10007b95:	57                   	push   %edi
10007b96:	6a 00                	push   $0x0
10007b98:	6a 00                	push   $0x0
10007b9a:	ff 75 0c             	pushl  0xc(%ebp)
10007b9d:	ff 15 d8 20 01 10    	call   *0x100120d8
10007ba3:	85 c0                	test   %eax,%eax
10007ba5:	74 07                	je     0x10007bae
10007ba7:	33 c0                	xor    %eax,%eax
10007ba9:	e9 36 01 00 00       	jmp    0x10007ce4
10007bae:	83 4d f8 ff          	orl    $0xffffffff,-0x8(%ebp)
10007bb2:	b8 00 40 00 00       	mov    $0x4000,%eax
10007bb7:	53                   	push   %ebx
10007bb8:	50                   	push   %eax
10007bb9:	89 45 f0             	mov    %eax,-0x10(%ebp)
10007bbc:	e8 c7 ce ff ff       	call   0x10004a88
10007bc1:	8b d8                	mov    %eax,%ebx
10007bc3:	59                   	pop    %ecx
10007bc4:	85 db                	test   %ebx,%ebx
10007bc6:	75 10                	jne    0x10007bd8
10007bc8:	ff 75 f4             	pushl  -0xc(%ebp)
10007bcb:	ff 15 8c 21 01 10    	call   *0x1001218c
10007bd1:	33 c0                	xor    %eax,%eax
10007bd3:	e9 0b 01 00 00       	jmp    0x10007ce3
10007bd8:	56                   	push   %esi
10007bd9:	8d 45 f0             	lea    -0x10(%ebp),%eax
10007bdc:	50                   	push   %eax
10007bdd:	53                   	push   %ebx
10007bde:	8d 45 f8             	lea    -0x8(%ebp),%eax
10007be1:	50                   	push   %eax
10007be2:	ff 75 f4             	pushl  -0xc(%ebp)
10007be5:	ff 15 14 22 01 10    	call   *0x10012214
10007beb:	89 45 ec             	mov    %eax,-0x14(%ebp)
10007bee:	85 c0                	test   %eax,%eax
10007bf0:	0f 85 cc 00 00 00    	jne    0x10007cc2
10007bf6:	89 45 fc             	mov    %eax,-0x4(%ebp)
10007bf9:	39 45 f8             	cmp    %eax,-0x8(%ebp)
10007bfc:	76 db                	jbe    0x10007bd9
10007bfe:	8d 73 14             	lea    0x14(%ebx),%esi
10007c01:	f6 46 f8 02          	testb  $0x2,-0x8(%esi)
10007c05:	74 34                	je     0x10007c3b
10007c07:	85 ff                	test   %edi,%edi
10007c09:	74 1b                	je     0x10007c26
10007c0b:	83 7f 14 00          	cmpl   $0x0,0x14(%edi)
10007c0f:	74 2a                	je     0x10007c3b
10007c11:	83 3e 00             	cmpl   $0x0,(%esi)
10007c14:	74 25                	je     0x10007c3b
10007c16:	ff 36                	pushl  (%esi)
10007c18:	ff 77 14             	pushl  0x14(%edi)
10007c1b:	e8 01 e8 ff ff       	call   0x10006421
10007c20:	59                   	pop    %ecx
10007c21:	59                   	pop    %ecx
10007c22:	85 c0                	test   %eax,%eax
10007c24:	74 12                	je     0x10007c38
10007c26:	8d 46 ec             	lea    -0x14(%esi),%eax
10007c29:	50                   	push   %eax
10007c2a:	ff 75 0c             	pushl  0xc(%ebp)
10007c2d:	ff 75 08             	pushl  0x8(%ebp)
10007c30:	e8 52 ff ff ff       	call   0x10007b87
10007c35:	83 c4 0c             	add    $0xc,%esp
10007c38:	8b 45 fc             	mov    -0x4(%ebp),%eax
10007c3b:	83 7e f0 01          	cmpl   $0x1,-0x10(%esi)
10007c3f:	75 6e                	jne    0x10007caf
10007c41:	68 fe ff 00 00       	push   $0xfffe
10007c46:	e8 3d ce ff ff       	call   0x10004a88
10007c4b:	8b f8                	mov    %eax,%edi
10007c4d:	59                   	pop    %ecx
10007c4e:	85 ff                	test   %edi,%edi
10007c50:	74 57                	je     0x10007ca9
10007c52:	8d 45 dc             	lea    -0x24(%ebp),%eax
10007c55:	50                   	push   %eax
10007c56:	6a 0e                	push   $0xe
10007c58:	6a 0d                	push   $0xd
10007c5a:	68 ec 09 00 00       	push   $0x9ec
10007c5f:	68 e0 22 01 10       	push   $0x100122e0
10007c64:	e8 54 e4 ff ff       	call   0x100060bd
10007c69:	33 c0                	xor    %eax,%eax
10007c6b:	66 89 45 ea          	mov    %ax,-0x16(%ebp)
10007c6f:	8d 45 dc             	lea    -0x24(%ebp),%eax
10007c72:	50                   	push   %eax
10007c73:	57                   	push   %edi
10007c74:	e8 09 e8 ff ff       	call   0x10006482
10007c79:	8b 06                	mov    (%esi),%eax
10007c7b:	83 c0 02             	add    $0x2,%eax
10007c7e:	50                   	push   %eax
10007c7f:	57                   	push   %edi
10007c80:	e8 1b e7 ff ff       	call   0x100063a0
10007c85:	68 cc d4 00 10       	push   $0x1000d4cc
10007c8a:	57                   	push   %edi
10007c8b:	e8 10 e7 ff ff       	call   0x100063a0
10007c90:	ff 75 08             	pushl  0x8(%ebp)
10007c93:	83 25 20 2d 01 10 00 	andl   $0x0,0x10012d20
10007c9a:	57                   	push   %edi
10007c9b:	e8 e2 fa ff ff       	call   0x10007782
10007ca0:	57                   	push   %edi
10007ca1:	e8 2f ce ff ff       	call   0x10004ad5
10007ca6:	83 c4 38             	add    $0x38,%esp
10007ca9:	8b 7d 10             	mov    0x10(%ebp),%edi
10007cac:	8b 45 fc             	mov    -0x4(%ebp),%eax
10007caf:	40                   	inc    %eax
10007cb0:	83 c6 20             	add    $0x20,%esi
10007cb3:	89 45 fc             	mov    %eax,-0x4(%ebp)
10007cb6:	3b 45 f8             	cmp    -0x8(%ebp),%eax
10007cb9:	0f 82 42 ff ff ff    	jb     0x10007c01
10007cbf:	8b 45 ec             	mov    -0x14(%ebp),%eax
10007cc2:	3d 03 01 00 00       	cmp    $0x103,%eax
10007cc7:	0f 85 0c ff ff ff    	jne    0x10007bd9
10007ccd:	53                   	push   %ebx
10007cce:	e8 02 ce ff ff       	call   0x10004ad5
10007cd3:	59                   	pop    %ecx
10007cd4:	ff 75 f4             	pushl  -0xc(%ebp)
10007cd7:	ff 15 8c 21 01 10    	call   *0x1001218c
10007cdd:	f7 d8                	neg    %eax
10007cdf:	5e                   	pop    %esi
10007ce0:	1b c0                	sbb    %eax,%eax
10007ce2:	40                   	inc    %eax
10007ce3:	5b                   	pop    %ebx
10007ce4:	5f                   	pop    %edi
10007ce5:	8b e5                	mov    %ebp,%esp
10007ce7:	5d                   	pop    %ebp
10007ce8:	c3                   	ret    
10007ce9:	55                   	push   %ebp
10007cea:	8b ec                	mov    %esp,%ebp
10007cec:	83 ec 10             	sub    $0x10,%esp
10007cef:	56                   	push   %esi
10007cf0:	68 fe ff 00 00       	push   $0xfffe
10007cf5:	e8 8e cd ff ff       	call   0x10004a88
10007cfa:	8b f0                	mov    %eax,%esi
10007cfc:	59                   	pop    %ecx
10007cfd:	85 f6                	test   %esi,%esi
10007cff:	0f 84 bc 00 00 00    	je     0x10007dc1
10007d05:	53                   	push   %ebx
10007d06:	57                   	push   %edi
10007d07:	8d 45 f0             	lea    -0x10(%ebp),%eax
10007d0a:	50                   	push   %eax
10007d0b:	6a 0e                	push   $0xe
10007d0d:	6a 08                	push   $0x8
10007d0f:	68 87 02 00 00       	push   $0x287
10007d14:	68 e0 22 01 10       	push   $0x100122e0
10007d19:	e8 9f e3 ff ff       	call   0x100060bd
10007d1e:	33 c0                	xor    %eax,%eax
10007d20:	66 89 45 fe          	mov    %ax,-0x2(%ebp)
10007d24:	8d 45 f0             	lea    -0x10(%ebp),%eax
10007d27:	50                   	push   %eax
10007d28:	56                   	push   %esi
10007d29:	e8 54 e7 ff ff       	call   0x10006482
10007d2e:	83 c4 1c             	add    $0x1c,%esp
10007d31:	e8 3f d6 ff ff       	call   0x10005375
10007d36:	8b 7d 08             	mov    0x8(%ebp),%edi
10007d39:	33 db                	xor    %ebx,%ebx
10007d3b:	eb 3b                	jmp    0x10007d78
10007d3d:	ff 15 8c 22 01 10    	call   *0x1001228c
10007d43:	83 f8 04             	cmp    $0x4,%eax
10007d46:	75 26                	jne    0x10007d6e
10007d48:	57                   	push   %edi
10007d49:	56                   	push   %esi
10007d4a:	89 1d 20 2d 01 10    	mov    %ebx,0x10012d20
10007d50:	e8 2d fa ff ff       	call   0x10007782
10007d55:	0f b7 46 08          	movzwl 0x8(%esi),%eax
10007d59:	59                   	pop    %ecx
10007d5a:	59                   	pop    %ecx
10007d5b:	83 f8 61             	cmp    $0x61,%eax
10007d5e:	72 0e                	jb     0x10007d6e
10007d60:	83 f8 7a             	cmp    $0x7a,%eax
10007d63:	77 09                	ja     0x10007d6e
10007d65:	25 df ff 00 00       	and    $0xffdf,%eax
10007d6a:	66 89 46 08          	mov    %ax,0x8(%esi)
10007d6e:	66 ff 46 08          	incw   0x8(%esi)
10007d72:	33 c0                	xor    %eax,%eax
10007d74:	66 89 46 0e          	mov    %ax,0xe(%esi)
10007d78:	6a 5a                	push   $0x5a
10007d7a:	58                   	pop    %eax
10007d7b:	56                   	push   %esi
10007d7c:	66 39 46 08          	cmp    %ax,0x8(%esi)
10007d80:	76 bb                	jbe    0x10007d3d
10007d82:	e8 4e cd ff ff       	call   0x10004ad5
10007d87:	53                   	push   %ebx
10007d88:	6a 01                	push   $0x1
10007d8a:	57                   	push   %edi
10007d8b:	e8 f7 fd ff ff       	call   0x10007b87
10007d90:	53                   	push   %ebx
10007d91:	6a 04                	push   $0x4
10007d93:	57                   	push   %edi
10007d94:	e8 ee fd ff ff       	call   0x10007b87
10007d99:	53                   	push   %ebx
10007d9a:	6a 05                	push   $0x5
10007d9c:	57                   	push   %edi
10007d9d:	e8 e5 fd ff ff       	call   0x10007b87
10007da2:	53                   	push   %ebx
10007da3:	6a 03                	push   $0x3
10007da5:	57                   	push   %edi
10007da6:	e8 dc fd ff ff       	call   0x10007b87
10007dab:	53                   	push   %ebx
10007dac:	6a 02                	push   $0x2
10007dae:	57                   	push   %edi
10007daf:	e8 d3 fd ff ff       	call   0x10007b87
10007db4:	83 c4 40             	add    $0x40,%esp
10007db7:	e8 49 d6 ff ff       	call   0x10005405
10007dbc:	33 c0                	xor    %eax,%eax
10007dbe:	5f                   	pop    %edi
10007dbf:	40                   	inc    %eax
10007dc0:	5b                   	pop    %ebx
10007dc1:	5e                   	pop    %esi
10007dc2:	8b e5                	mov    %ebp,%esp
10007dc4:	5d                   	pop    %ebp
10007dc5:	c2 04 00             	ret    $0x4
10007dc8:	55                   	push   %ebp
10007dc9:	8b ec                	mov    %esp,%ebp
10007dcb:	83 ec 54             	sub    $0x54,%esp
10007dce:	53                   	push   %ebx
10007dcf:	57                   	push   %edi
10007dd0:	8d 45 fc             	lea    -0x4(%ebp),%eax
10007dd3:	33 db                	xor    %ebx,%ebx
10007dd5:	50                   	push   %eax
10007dd6:	6a 01                	push   $0x1
10007dd8:	53                   	push   %ebx
10007dd9:	8b fb                	mov    %ebx,%edi
10007ddb:	89 5d fc             	mov    %ebx,-0x4(%ebp)
10007dde:	ff 15 4c 21 01 10    	call   *0x1001214c
10007de4:	85 c0                	test   %eax,%eax
10007de6:	0f 85 bb 00 00 00    	jne    0x10007ea7
10007dec:	56                   	push   %esi
10007ded:	eb 41                	jmp    0x10007e30
10007def:	39 5d f8             	cmp    %ebx,-0x8(%ebp)
10007df2:	74 4d                	je     0x10007e41
10007df4:	ff 75 f8             	pushl  -0x8(%ebp)
10007df7:	e8 8c cc ff ff       	call   0x10004a88
10007dfc:	8b f0                	mov    %eax,%esi
10007dfe:	59                   	pop    %ecx
10007dff:	85 f6                	test   %esi,%esi
10007e01:	74 2d                	je     0x10007e30
10007e03:	8d 45 f4             	lea    -0xc(%ebp),%eax
10007e06:	89 5d f4             	mov    %ebx,-0xc(%ebp)
10007e09:	50                   	push   %eax
10007e0a:	ff 75 f8             	pushl  -0x8(%ebp)
10007e0d:	56                   	push   %esi
10007e0e:	ff 75 08             	pushl  0x8(%ebp)
10007e11:	ff 15 30 20 01 10    	call   *0x10012030
10007e17:	85 c0                	test   %eax,%eax
10007e19:	74 0e                	je     0x10007e29
10007e1b:	8b 45 fc             	mov    -0x4(%ebp),%eax
10007e1e:	53                   	push   %ebx
10007e1f:	ff 75 f4             	pushl  -0xc(%ebp)
10007e22:	8b 08                	mov    (%eax),%ecx
10007e24:	56                   	push   %esi
10007e25:	50                   	push   %eax
10007e26:	ff 51 10             	call   *0x10(%ecx)
10007e29:	56                   	push   %esi
10007e2a:	e8 a6 cc ff ff       	call   0x10004ad5
10007e2f:	59                   	pop    %ecx
10007e30:	8d 45 f8             	lea    -0x8(%ebp),%eax
10007e33:	50                   	push   %eax
10007e34:	ff 75 08             	pushl  0x8(%ebp)
10007e37:	ff 15 78 22 01 10    	call   *0x10012278
10007e3d:	85 c0                	test   %eax,%eax
10007e3f:	75 ae                	jne    0x10007def
10007e41:	8b 45 fc             	mov    -0x4(%ebp),%eax
10007e44:	8d 55 ac             	lea    -0x54(%ebp),%edx
10007e47:	6a 01                	push   $0x1
10007e49:	52                   	push   %edx
10007e4a:	50                   	push   %eax
10007e4b:	8b 08                	mov    (%eax),%ecx
10007e4d:	ff 51 30             	call   *0x30(%ecx)
10007e50:	85 c0                	test   %eax,%eax
10007e52:	75 49                	jne    0x10007e9d
10007e54:	39 5d b4             	cmp    %ebx,-0x4c(%ebp)
10007e57:	74 44                	je     0x10007e9d
10007e59:	8b 45 fc             	mov    -0x4(%ebp),%eax
10007e5c:	53                   	push   %ebx
10007e5d:	53                   	push   %ebx
10007e5e:	53                   	push   %ebx
10007e5f:	8b 08                	mov    (%eax),%ecx
10007e61:	53                   	push   %ebx
10007e62:	50                   	push   %eax
10007e63:	ff 51 14             	call   *0x14(%ecx)
10007e66:	85 c0                	test   %eax,%eax
10007e68:	75 33                	jne    0x10007e9d
10007e6a:	ff 75 b4             	pushl  -0x4c(%ebp)
10007e6d:	e8 16 cc ff ff       	call   0x10004a88
10007e72:	8b f8                	mov    %eax,%edi
10007e74:	59                   	pop    %ecx
10007e75:	85 ff                	test   %edi,%edi
10007e77:	74 24                	je     0x10007e9d
10007e79:	8b 4d 0c             	mov    0xc(%ebp),%ecx
10007e7c:	8d 45 f4             	lea    -0xc(%ebp),%eax
10007e7f:	8b 75 b4             	mov    -0x4c(%ebp),%esi
10007e82:	50                   	push   %eax
10007e83:	56                   	push   %esi
10007e84:	89 31                	mov    %esi,(%ecx)
10007e86:	8b 4d fc             	mov    -0x4(%ebp),%ecx
10007e89:	57                   	push   %edi
10007e8a:	51                   	push   %ecx
10007e8b:	8b 11                	mov    (%ecx),%edx
10007e8d:	ff 52 0c             	call   *0xc(%edx)
10007e90:	85 c0                	test   %eax,%eax
10007e92:	74 09                	je     0x10007e9d
10007e94:	57                   	push   %edi
10007e95:	e8 3b cc ff ff       	call   0x10004ad5
10007e9a:	59                   	pop    %ecx
10007e9b:	8b fb                	mov    %ebx,%edi
10007e9d:	8b 45 fc             	mov    -0x4(%ebp),%eax
10007ea0:	50                   	push   %eax
10007ea1:	8b 08                	mov    (%eax),%ecx
10007ea3:	ff 51 08             	call   *0x8(%ecx)
10007ea6:	5e                   	pop    %esi
10007ea7:	8b c7                	mov    %edi,%eax
10007ea9:	5f                   	pop    %edi
10007eaa:	5b                   	pop    %ebx
10007eab:	8b e5                	mov    %ebp,%esp
10007ead:	5d                   	pop    %ebp
10007eae:	c3                   	ret    
10007eaf:	55                   	push   %ebp
10007eb0:	8b ec                	mov    %esp,%ebp
10007eb2:	81 ec b0 01 00 00    	sub    $0x1b0,%esp
10007eb8:	56                   	push   %esi
10007eb9:	57                   	push   %edi
10007eba:	8d 85 50 fe ff ff    	lea    -0x1b0(%ebp),%eax
10007ec0:	50                   	push   %eax
10007ec1:	68 e6 00 00 00       	push   $0xe6
10007ec6:	6a 05                	push   $0x5
10007ec8:	68 b2 05 00 00       	push   $0x5b2
10007ecd:	68 e0 22 01 10       	push   $0x100122e0
10007ed2:	e8 e6 e1 ff ff       	call   0x100060bd
10007ed7:	83 c4 14             	add    $0x14,%esp
10007eda:	33 f6                	xor    %esi,%esi
10007edc:	33 c0                	xor    %eax,%eax
10007ede:	66 89 85 36 ff ff ff 	mov    %ax,-0xca(%ebp)
10007ee5:	8d 85 50 fe ff ff    	lea    -0x1b0(%ebp),%eax
10007eeb:	56                   	push   %esi
10007eec:	56                   	push   %esi
10007eed:	56                   	push   %esi
10007eee:	56                   	push   %esi
10007eef:	50                   	push   %eax
10007ef0:	ff 15 40 21 01 10    	call   *0x10012140
10007ef6:	8b f8                	mov    %eax,%edi
10007ef8:	33 c0                	xor    %eax,%eax
10007efa:	89 7d f8             	mov    %edi,-0x8(%ebp)
10007efd:	85 ff                	test   %edi,%edi
10007eff:	0f 84 ca 01 00 00    	je     0x100080cf
10007f05:	66 89 45 d0          	mov    %ax,-0x30(%ebp)
10007f09:	33 c9                	xor    %ecx,%ecx
10007f0b:	8d 45 b8             	lea    -0x48(%ebp),%eax
10007f0e:	c7 45 b8 3c 00 00 00 	movl   $0x3c,-0x48(%ebp)
10007f15:	50                   	push   %eax
10007f16:	56                   	push   %esi
10007f17:	56                   	push   %esi
10007f18:	ff 75 08             	pushl  0x8(%ebp)
10007f1b:	41                   	inc    %ecx
10007f1c:	89 75 bc             	mov    %esi,-0x44(%ebp)
10007f1f:	89 75 c0             	mov    %esi,-0x40(%ebp)
10007f22:	89 75 c4             	mov    %esi,-0x3c(%ebp)
10007f25:	89 75 c8             	mov    %esi,-0x38(%ebp)
10007f28:	89 4d cc             	mov    %ecx,-0x34(%ebp)
10007f2b:	89 75 d4             	mov    %esi,-0x2c(%ebp)
10007f2e:	89 75 d8             	mov    %esi,-0x28(%ebp)
10007f31:	89 75 dc             	mov    %esi,-0x24(%ebp)
10007f34:	89 75 e0             	mov    %esi,-0x20(%ebp)
10007f37:	89 75 e4             	mov    %esi,-0x1c(%ebp)
10007f3a:	89 4d e8             	mov    %ecx,-0x18(%ebp)
10007f3d:	89 75 ec             	mov    %esi,-0x14(%ebp)
10007f40:	89 75 f0             	mov    %esi,-0x10(%ebp)
10007f43:	ff 15 e8 21 01 10    	call   *0x100121e8
10007f49:	85 c0                	test   %eax,%eax
10007f4b:	75 0e                	jne    0x10007f5b
10007f4d:	57                   	push   %edi
10007f4e:	ff 15 c4 21 01 10    	call   *0x100121c4
10007f54:	33 c0                	xor    %eax,%eax
10007f56:	e9 74 01 00 00       	jmp    0x100080cf
10007f5b:	8b 4d c8             	mov    -0x38(%ebp),%ecx
10007f5e:	33 d2                	xor    %edx,%edx
10007f60:	8b 45 cc             	mov    -0x34(%ebp),%eax
10007f63:	53                   	push   %ebx
10007f64:	56                   	push   %esi
10007f65:	66 89 14 41          	mov    %dx,(%ecx,%eax,2)
10007f69:	ff 75 d0             	pushl  -0x30(%ebp)
10007f6c:	ff 75 c8             	pushl  -0x38(%ebp)
10007f6f:	57                   	push   %edi
10007f70:	ff 15 20 20 01 10    	call   *0x10012020
10007f76:	8b d8                	mov    %eax,%ebx
10007f78:	89 5d f4             	mov    %ebx,-0xc(%ebp)
10007f7b:	85 db                	test   %ebx,%ebx
10007f7d:	75 03                	jne    0x10007f82
10007f7f:	57                   	push   %edi
10007f80:	eb 61                	jmp    0x10007fe3
10007f82:	8b 45 e4             	mov    -0x1c(%ebp),%eax
10007f85:	66 39 30             	cmp    %si,(%eax)
10007f88:	75 06                	jne    0x10007f90
10007f8a:	6a 2f                	push   $0x2f
10007f8c:	59                   	pop    %ecx
10007f8d:	66 89 08             	mov    %cx,(%eax)
10007f90:	8d 45 ac             	lea    -0x54(%ebp),%eax
10007f93:	50                   	push   %eax
10007f94:	6a 08                	push   $0x8
10007f96:	6a 0a                	push   $0xa
10007f98:	68 81 03 00 00       	push   $0x381
10007f9d:	68 e0 22 01 10       	push   $0x100122e0
10007fa2:	e8 16 e1 ff ff       	call   0x100060bd
10007fa7:	83 c4 14             	add    $0x14,%esp
10007faa:	33 c0                	xor    %eax,%eax
10007fac:	83 7d c4 02          	cmpl   $0x2,-0x3c(%ebp)
10007fb0:	b9 00 00 80 00       	mov    $0x800000,%ecx
10007fb5:	66 89 45 b4          	mov    %ax,-0x4c(%ebp)
10007fb9:	0f 44 c1             	cmove  %ecx,%eax
10007fbc:	0d 00 01 00 00       	or     $0x100,%eax
10007fc1:	50                   	push   %eax
10007fc2:	56                   	push   %esi
10007fc3:	56                   	push   %esi
10007fc4:	56                   	push   %esi
10007fc5:	ff 75 e4             	pushl  -0x1c(%ebp)
10007fc8:	8d 45 ac             	lea    -0x54(%ebp),%eax
10007fcb:	50                   	push   %eax
10007fcc:	53                   	push   %ebx
10007fcd:	ff 15 d4 20 01 10    	call   *0x100120d4
10007fd3:	8b d8                	mov    %eax,%ebx
10007fd5:	85 db                	test   %ebx,%ebx
10007fd7:	75 17                	jne    0x10007ff0
10007fd9:	57                   	push   %edi
10007fda:	ff 15 c4 21 01 10    	call   *0x100121c4
10007fe0:	ff 75 f4             	pushl  -0xc(%ebp)
10007fe3:	ff 15 c4 21 01 10    	call   *0x100121c4
10007fe9:	33 c0                	xor    %eax,%eax
10007feb:	e9 de 00 00 00       	jmp    0x100080ce
10007ff0:	8d 85 38 ff ff ff    	lea    -0xc8(%ebp),%eax
10007ff6:	8b fe                	mov    %esi,%edi
10007ff8:	50                   	push   %eax
10007ff9:	6a 72                	push   $0x72
10007ffb:	6a 04                	push   $0x4
10007ffd:	68 88 07 00 00       	push   $0x788
10008002:	68 e0 22 01 10       	push   $0x100122e0
10008007:	e8 b1 e0 ff ff       	call   0x100060bd
1000800c:	83 c4 14             	add    $0x14,%esp
1000800f:	33 c0                	xor    %eax,%eax
10008011:	66 89 45 aa          	mov    %ax,-0x56(%ebp)
10008015:	56                   	push   %esi
10008016:	ff 75 10             	pushl  0x10(%ebp)
10008019:	8d 85 38 ff ff ff    	lea    -0xc8(%ebp),%eax
1000801f:	ff 75 10             	pushl  0x10(%ebp)
10008022:	ff 75 0c             	pushl  0xc(%ebp)
10008025:	6a ff                	push   $0xffffffff
10008027:	50                   	push   %eax
10008028:	53                   	push   %ebx
10008029:	ff 15 38 21 01 10    	call   *0x10012138
1000802f:	85 c0                	test   %eax,%eax
10008031:	75 2e                	jne    0x10008061
10008033:	e8 22 d5 ff ff       	call   0x1000555a
10008038:	3d 8f 2f 00 00       	cmp    $0x2f8f,%eax
1000803d:	75 1e                	jne    0x1000805d
1000803f:	6a 04                	push   $0x4
10008041:	8d 45 fc             	lea    -0x4(%ebp),%eax
10008044:	c7 45 fc 00 33 01 00 	movl   $0x13300,-0x4(%ebp)
1000804b:	50                   	push   %eax
1000804c:	6a 1f                	push   $0x1f
1000804e:	53                   	push   %ebx
1000804f:	ff 15 34 20 01 10    	call   *0x10012034
10008055:	85 c0                	test   %eax,%eax
10008057:	6a 01                	push   $0x1
10008059:	58                   	pop    %eax
1000805a:	0f 45 f8             	cmovne %eax,%edi
1000805d:	85 ff                	test   %edi,%edi
1000805f:	75 b4                	jne    0x10008015
10008061:	8b 45 18             	mov    0x18(%ebp),%eax
10008064:	56                   	push   %esi
10008065:	53                   	push   %ebx
10008066:	89 30                	mov    %esi,(%eax)
10008068:	ff 15 30 21 01 10    	call   *0x10012130
1000806e:	8b 7d f8             	mov    -0x8(%ebp),%edi
10008071:	85 c0                	test   %eax,%eax
10008073:	74 40                	je     0x100080b5
10008075:	56                   	push   %esi
10008076:	8d 45 f8             	lea    -0x8(%ebp),%eax
10008079:	89 75 fc             	mov    %esi,-0x4(%ebp)
1000807c:	50                   	push   %eax
1000807d:	8d 45 fc             	lea    -0x4(%ebp),%eax
10008080:	c7 45 f8 04 00 00 00 	movl   $0x4,-0x8(%ebp)
10008087:	50                   	push   %eax
10008088:	56                   	push   %esi
10008089:	68 13 00 00 20       	push   $0x20000013
1000808e:	53                   	push   %ebx
1000808f:	ff 15 dc 20 01 10    	call   *0x100120dc
10008095:	8b 4d 18             	mov    0x18(%ebp),%ecx
10008098:	f7 d8                	neg    %eax
1000809a:	1b c0                	sbb    %eax,%eax
1000809c:	23 45 fc             	and    -0x4(%ebp),%eax
1000809f:	89 01                	mov    %eax,(%ecx)
100080a1:	3d c8 00 00 00       	cmp    $0xc8,%eax
100080a6:	75 0d                	jne    0x100080b5
100080a8:	ff 75 14             	pushl  0x14(%ebp)
100080ab:	53                   	push   %ebx
100080ac:	e8 17 fd ff ff       	call   0x10007dc8
100080b1:	59                   	pop    %ecx
100080b2:	59                   	pop    %ecx
100080b3:	8b f0                	mov    %eax,%esi
100080b5:	57                   	push   %edi
100080b6:	ff 15 c4 21 01 10    	call   *0x100121c4
100080bc:	ff 75 f4             	pushl  -0xc(%ebp)
100080bf:	ff 15 c4 21 01 10    	call   *0x100121c4
100080c5:	53                   	push   %ebx
100080c6:	ff 15 c4 21 01 10    	call   *0x100121c4
100080cc:	8b c6                	mov    %esi,%eax
100080ce:	5b                   	pop    %ebx
100080cf:	5f                   	pop    %edi
100080d0:	5e                   	pop    %esi
100080d1:	8b e5                	mov    %ebp,%esp
100080d3:	5d                   	pop    %ebp
100080d4:	c3                   	ret    
100080d5:	c3                   	ret    
100080d6:	e9 24 ef ff ff       	jmp    0x10006fff
100080db:	55                   	push   %ebp
100080dc:	8b ec                	mov    %esp,%ebp
100080de:	ff 75 10             	pushl  0x10(%ebp)
100080e1:	8b 45 08             	mov    0x8(%ebp),%eax
100080e4:	ff 75 0c             	pushl  0xc(%ebp)
100080e7:	ff 30                	pushl  (%eax)
100080e9:	83 c0 04             	add    $0x4,%eax
100080ec:	50                   	push   %eax
100080ed:	e8 d6 06 00 00       	call   0x100087c8
100080f2:	83 c4 10             	add    $0x10,%esp
100080f5:	5d                   	pop    %ebp
100080f6:	c3                   	ret    
100080f7:	55                   	push   %ebp
100080f8:	8b ec                	mov    %esp,%ebp
100080fa:	56                   	push   %esi
100080fb:	ff 75 0c             	pushl  0xc(%ebp)
100080fe:	8b 75 08             	mov    0x8(%ebp),%esi
10008101:	ff 75 10             	pushl  0x10(%ebp)
10008104:	8d 46 04             	lea    0x4(%esi),%eax
10008107:	50                   	push   %eax
10008108:	e8 de 0b 00 00       	call   0x10008ceb
1000810d:	33 c9                	xor    %ecx,%ecx
1000810f:	89 06                	mov    %eax,(%esi)
10008111:	83 c4 0c             	add    $0xc,%esp
10008114:	85 c0                	test   %eax,%eax
10008116:	0f 95 c1             	setne  %cl
10008119:	8b c1                	mov    %ecx,%eax
1000811b:	5e                   	pop    %esi
1000811c:	5d                   	pop    %ebp
1000811d:	c3                   	ret    
1000811e:	55                   	push   %ebp
1000811f:	8b ec                	mov    %esp,%ebp
10008121:	83 ec 40             	sub    $0x40,%esp
10008124:	53                   	push   %ebx
10008125:	8b 5d 08             	mov    0x8(%ebp),%ebx
10008128:	57                   	push   %edi
10008129:	33 ff                	xor    %edi,%edi
1000812b:	39 bb 18 01 00 00    	cmp    %edi,0x118(%ebx)
10008131:	75 07                	jne    0x1000813a
10008133:	33 c0                	xor    %eax,%eax
10008135:	e9 7b 01 00 00       	jmp    0x100082b5
1000813a:	81 7d 10 00 00 01 00 	cmpl   $0x10000,0x10(%ebp)
10008141:	77 f0                	ja     0x10008133
10008143:	56                   	push   %esi
10008144:	8b 75 18             	mov    0x18(%ebp),%esi
10008147:	85 f6                	test   %esi,%esi
10008149:	74 40                	je     0x1000818b
1000814b:	83 fe 30             	cmp    $0x30,%esi
1000814e:	0f 87 46 01 00 00    	ja     0x1000829a
10008154:	56                   	push   %esi
10008155:	ff 75 14             	pushl  0x14(%ebp)
10008158:	8d 45 c0             	lea    -0x40(%ebp),%eax
1000815b:	50                   	push   %eax
1000815c:	e8 89 c9 ff ff       	call   0x10004aea
10008161:	83 c4 0c             	add    $0xc,%esp
10008164:	6a 30                	push   $0x30
10008166:	58                   	pop    %eax
10008167:	3b f0                	cmp    %eax,%esi
10008169:	74 12                	je     0x1000817d
1000816b:	2b c6                	sub    %esi,%eax
1000816d:	50                   	push   %eax
1000816e:	8d 45 c0             	lea    -0x40(%ebp),%eax
10008171:	03 c6                	add    %esi,%eax
10008173:	57                   	push   %edi
10008174:	50                   	push   %eax
10008175:	e8 95 c9 ff ff       	call   0x10004b0f
1000817a:	83 c4 0c             	add    $0xc,%esp
1000817d:	8d 45 c0             	lea    -0x40(%ebp),%eax
10008180:	50                   	push   %eax
10008181:	53                   	push   %ebx
10008182:	e8 41 02 00 00       	call   0x100083c8
10008187:	59                   	pop    %ecx
10008188:	59                   	pop    %ecx
10008189:	eb 0f                	jmp    0x1000819a
1000818b:	6a 30                	push   $0x30
1000818d:	8d 45 c0             	lea    -0x40(%ebp),%eax
10008190:	57                   	push   %edi
10008191:	50                   	push   %eax
10008192:	e8 78 c9 ff ff       	call   0x10004b0f
10008197:	83 c4 0c             	add    $0xc,%esp
1000819a:	39 bb 1c 01 00 00    	cmp    %edi,0x11c(%ebx)
100081a0:	75 29                	jne    0x100081cb
100081a2:	8d b3 f8 00 00 00    	lea    0xf8(%ebx),%esi
100081a8:	6a 10                	push   $0x10
100081aa:	56                   	push   %esi
100081ab:	e8 0a ec ff ff       	call   0x10006dba
100081b0:	8d 83 08 01 00 00    	lea    0x108(%ebx),%eax
100081b6:	50                   	push   %eax
100081b7:	56                   	push   %esi
100081b8:	53                   	push   %ebx
100081b9:	e8 1d ff ff ff       	call   0x100080db
100081be:	83 c4 14             	add    $0x14,%esp
100081c1:	c7 83 1c 01 00 00 01 	movl   $0x1,0x11c(%ebx)
100081c8:	00 00 00 
100081cb:	8b 45 10             	mov    0x10(%ebp),%eax
100081ce:	83 f8 10             	cmp    $0x10,%eax
100081d1:	72 5f                	jb     0x10008232
100081d3:	8b 75 0c             	mov    0xc(%ebp),%esi
100081d6:	89 75 08             	mov    %esi,0x8(%ebp)
100081d9:	8d 83 f8 00 00 00    	lea    0xf8(%ebx),%eax
100081df:	6a 10                	push   $0x10
100081e1:	50                   	push   %eax
100081e2:	e8 d3 eb ff ff       	call   0x10006dba
100081e7:	56                   	push   %esi
100081e8:	8d 83 f8 00 00 00    	lea    0xf8(%ebx),%eax
100081ee:	50                   	push   %eax
100081ef:	53                   	push   %ebx
100081f0:	e8 e6 fe ff ff       	call   0x100080db
100081f5:	83 c4 14             	add    $0x14,%esp
100081f8:	8d 8b 08 01 00 00    	lea    0x108(%ebx),%ecx
100081fe:	8b 04 be             	mov    (%esi,%edi,4),%eax
10008201:	3b 04 b9             	cmp    (%ecx,%edi,4),%eax
10008204:	75 0b                	jne    0x10008211
10008206:	47                   	inc    %edi
10008207:	83 ff 04             	cmp    $0x4,%edi
1000820a:	75 f2                	jne    0x100081fe
1000820c:	e9 89 00 00 00       	jmp    0x1000829a
10008211:	8b 45 10             	mov    0x10(%ebp),%eax
10008214:	8b f9                	mov    %ecx,%edi
10008216:	83 e8 10             	sub    $0x10,%eax
10008219:	89 45 10             	mov    %eax,0x10(%ebp)
1000821c:	a5                   	movsl  %ds:(%esi),%es:(%edi)
1000821d:	a5                   	movsl  %ds:(%esi),%es:(%edi)
1000821e:	a5                   	movsl  %ds:(%esi),%es:(%edi)
1000821f:	a5                   	movsl  %ds:(%esi),%es:(%edi)
10008220:	8b 75 08             	mov    0x8(%ebp),%esi
10008223:	33 ff                	xor    %edi,%edi
10008225:	83 c6 10             	add    $0x10,%esi
10008228:	89 75 08             	mov    %esi,0x8(%ebp)
1000822b:	83 f8 10             	cmp    $0x10,%eax
1000822e:	72 08                	jb     0x10008238
10008230:	eb a7                	jmp    0x100081d9
10008232:	8b 4d 0c             	mov    0xc(%ebp),%ecx
10008235:	89 4d 08             	mov    %ecx,0x8(%ebp)
10008238:	85 c0                	test   %eax,%eax
1000823a:	74 50                	je     0x1000828c
1000823c:	8d b3 f8 00 00 00    	lea    0xf8(%ebx),%esi
10008242:	6a 10                	push   $0x10
10008244:	56                   	push   %esi
10008245:	e8 70 eb ff ff       	call   0x10006dba
1000824a:	8d 45 f0             	lea    -0x10(%ebp),%eax
1000824d:	50                   	push   %eax
1000824e:	56                   	push   %esi
1000824f:	53                   	push   %ebx
10008250:	e8 86 fe ff ff       	call   0x100080db
10008255:	83 c4 14             	add    $0x14,%esp
10008258:	8d 8b 08 01 00 00    	lea    0x108(%ebx),%ecx
1000825e:	8d 55 f0             	lea    -0x10(%ebp),%edx
10008261:	8b 04 ba             	mov    (%edx,%edi,4),%eax
10008264:	3b 04 b9             	cmp    (%ecx,%edi,4),%eax
10008267:	75 08                	jne    0x10008271
10008269:	47                   	inc    %edi
1000826a:	83 ff 04             	cmp    $0x4,%edi
1000826d:	75 f2                	jne    0x10008261
1000826f:	eb 29                	jmp    0x1000829a
10008271:	ff 75 10             	pushl  0x10(%ebp)
10008274:	8b f9                	mov    %ecx,%edi
10008276:	8d 75 f0             	lea    -0x10(%ebp),%esi
10008279:	8d 45 f0             	lea    -0x10(%ebp),%eax
1000827c:	50                   	push   %eax
1000827d:	ff 75 08             	pushl  0x8(%ebp)
10008280:	a5                   	movsl  %ds:(%esi),%es:(%edi)
10008281:	a5                   	movsl  %ds:(%esi),%es:(%edi)
10008282:	a5                   	movsl  %ds:(%esi),%es:(%edi)
10008283:	a5                   	movsl  %ds:(%esi),%es:(%edi)
10008284:	e8 61 c8 ff ff       	call   0x10004aea
10008289:	83 c4 0c             	add    $0xc,%esp
1000828c:	8b 8b f4 00 00 00    	mov    0xf4(%ebx),%ecx
10008292:	81 f9 00 00 00 01    	cmp    $0x1000000,%ecx
10008298:	76 04                	jbe    0x1000829e
1000829a:	33 c0                	xor    %eax,%eax
1000829c:	eb 16                	jmp    0x100082b4
1000829e:	41                   	inc    %ecx
1000829f:	89 8b f4 00 00 00    	mov    %ecx,0xf4(%ebx)
100082a5:	8d 4d c0             	lea    -0x40(%ebp),%ecx
100082a8:	51                   	push   %ecx
100082a9:	53                   	push   %ebx
100082aa:	e8 19 01 00 00       	call   0x100083c8
100082af:	59                   	pop    %ecx
100082b0:	33 c0                	xor    %eax,%eax
100082b2:	59                   	pop    %ecx
100082b3:	40                   	inc    %eax
100082b4:	5e                   	pop    %esi
100082b5:	5f                   	pop    %edi
100082b6:	5b                   	pop    %ebx
100082b7:	8b e5                	mov    %ebp,%esp
100082b9:	5d                   	pop    %ebp
100082ba:	c3                   	ret    
100082bb:	55                   	push   %ebp
100082bc:	8b ec                	mov    %esp,%ebp
100082be:	83 ec 20             	sub    $0x20,%esp
100082c1:	57                   	push   %edi
100082c2:	68 20 01 00 00       	push   $0x120
100082c7:	6a 00                	push   $0x0
100082c9:	ff 75 08             	pushl  0x8(%ebp)
100082cc:	e8 3e c8 ff ff       	call   0x10004b0f
100082d1:	6a 08                	push   $0x8
100082d3:	59                   	pop    %ecx
100082d4:	33 c0                	xor    %eax,%eax
100082d6:	8d 7d e0             	lea    -0x20(%ebp),%edi
100082d9:	f3 ab                	rep stos %eax,%es:(%edi)
100082db:	8d 45 e0             	lea    -0x20(%ebp),%eax
100082de:	50                   	push   %eax
100082df:	68 00 01 00 00       	push   $0x100
100082e4:	ff 75 08             	pushl  0x8(%ebp)
100082e7:	e8 0b fe ff ff       	call   0x100080f7
100082ec:	ff 75 18             	pushl  0x18(%ebp)
100082ef:	ff 75 14             	pushl  0x14(%ebp)
100082f2:	ff 75 10             	pushl  0x10(%ebp)
100082f5:	ff 75 0c             	pushl  0xc(%ebp)
100082f8:	ff 75 08             	pushl  0x8(%ebp)
100082fb:	e8 50 00 00 00       	call   0x10008350
10008300:	83 c4 2c             	add    $0x2c,%esp
10008303:	5f                   	pop    %edi
10008304:	8b e5                	mov    %ebp,%esp
10008306:	5d                   	pop    %ebp
10008307:	c3                   	ret    
10008308:	55                   	push   %ebp
10008309:	8b ec                	mov    %esp,%ebp
1000830b:	53                   	push   %ebx
1000830c:	8b 5d 0c             	mov    0xc(%ebp),%ebx
1000830f:	56                   	push   %esi
10008310:	8b 75 10             	mov    0x10(%ebp),%esi
10008313:	57                   	push   %edi
10008314:	85 f6                	test   %esi,%esi
10008316:	74 2c                	je     0x10008344
10008318:	b8 00 00 01 00       	mov    $0x10000,%eax
1000831d:	6a 00                	push   $0x0
1000831f:	3b f0                	cmp    %eax,%esi
10008321:	8b fe                	mov    %esi,%edi
10008323:	6a 00                	push   $0x0
10008325:	0f 47 f8             	cmova  %eax,%edi
10008328:	57                   	push   %edi
10008329:	53                   	push   %ebx
1000832a:	ff 75 08             	pushl  0x8(%ebp)
1000832d:	e8 ec fd ff ff       	call   0x1000811e
10008332:	83 c4 14             	add    $0x14,%esp
10008335:	85 c0                	test   %eax,%eax
10008337:	74 13                	je     0x1000834c
10008339:	03 df                	add    %edi,%ebx
1000833b:	b8 00 00 01 00       	mov    $0x10000,%eax
10008340:	2b f7                	sub    %edi,%esi
10008342:	75 d9                	jne    0x1000831d
10008344:	33 c0                	xor    %eax,%eax
10008346:	40                   	inc    %eax
10008347:	5f                   	pop    %edi
10008348:	5e                   	pop    %esi
10008349:	5b                   	pop    %ebx
1000834a:	5d                   	pop    %ebp
1000834b:	c3                   	ret    
1000834c:	33 c0                	xor    %eax,%eax
1000834e:	eb f7                	jmp    0x10008347
10008350:	55                   	push   %ebp
10008351:	8b ec                	mov    %esp,%ebp
10008353:	83 ec 30             	sub    $0x30,%esp
10008356:	33 c9                	xor    %ecx,%ecx
10008358:	56                   	push   %esi
10008359:	8b 75 18             	mov    0x18(%ebp),%esi
1000835c:	57                   	push   %edi
1000835d:	6a 30                	push   $0x30
1000835f:	5f                   	pop    %edi
10008360:	3b f7                	cmp    %edi,%esi
10008362:	77 5c                	ja     0x100083c0
10008364:	39 7d 10             	cmp    %edi,0x10(%ebp)
10008367:	75 57                	jne    0x100083c0
10008369:	85 f6                	test   %esi,%esi
1000836b:	74 16                	je     0x10008383
1000836d:	56                   	push   %esi
1000836e:	ff 75 14             	pushl  0x14(%ebp)
10008371:	8d 45 d0             	lea    -0x30(%ebp),%eax
10008374:	50                   	push   %eax
10008375:	e8 70 c7 ff ff       	call   0x10004aea
1000837a:	83 c4 0c             	add    $0xc,%esp
1000837d:	8b ce                	mov    %esi,%ecx
1000837f:	3b f7                	cmp    %edi,%esi
10008381:	74 15                	je     0x10008398
10008383:	8b c7                	mov    %edi,%eax
10008385:	2b c1                	sub    %ecx,%eax
10008387:	50                   	push   %eax
10008388:	8d 45 d0             	lea    -0x30(%ebp),%eax
1000838b:	03 c1                	add    %ecx,%eax
1000838d:	6a 00                	push   $0x0
1000838f:	50                   	push   %eax
10008390:	e8 7a c7 ff ff       	call   0x10004b0f
10008395:	83 c4 0c             	add    $0xc,%esp
10008398:	57                   	push   %edi
10008399:	ff 75 0c             	pushl  0xc(%ebp)
1000839c:	8d 45 d0             	lea    -0x30(%ebp),%eax
1000839f:	50                   	push   %eax
100083a0:	e8 29 ea ff ff       	call   0x10006dce
100083a5:	8b 75 08             	mov    0x8(%ebp),%esi
100083a8:	8d 45 d0             	lea    -0x30(%ebp),%eax
100083ab:	50                   	push   %eax
100083ac:	56                   	push   %esi
100083ad:	e8 16 00 00 00       	call   0x100083c8
100083b2:	33 c0                	xor    %eax,%eax
100083b4:	83 c4 14             	add    $0x14,%esp
100083b7:	40                   	inc    %eax
100083b8:	89 86 f4 00 00 00    	mov    %eax,0xf4(%esi)
100083be:	eb 02                	jmp    0x100083c2
100083c0:	33 c0                	xor    %eax,%eax
100083c2:	5f                   	pop    %edi
100083c3:	5e                   	pop    %esi
100083c4:	8b e5                	mov    %ebp,%esp
100083c6:	5d                   	pop    %ebp
100083c7:	c3                   	ret    
100083c8:	55                   	push   %ebp
100083c9:	8b ec                	mov    %esp,%ebp
100083cb:	83 ec 30             	sub    $0x30,%esp
100083ce:	53                   	push   %ebx
100083cf:	8b 5d 08             	mov    0x8(%ebp),%ebx
100083d2:	56                   	push   %esi
100083d3:	57                   	push   %edi
100083d4:	33 f6                	xor    %esi,%esi
100083d6:	8d bb f8 00 00 00    	lea    0xf8(%ebx),%edi
100083dc:	6a 10                	push   $0x10
100083de:	57                   	push   %edi
100083df:	e8 d6 e9 ff ff       	call   0x10006dba
100083e4:	8d 45 d0             	lea    -0x30(%ebp),%eax
100083e7:	03 c6                	add    %esi,%eax
100083e9:	50                   	push   %eax
100083ea:	57                   	push   %edi
100083eb:	53                   	push   %ebx
100083ec:	e8 ea fc ff ff       	call   0x100080db
100083f1:	83 c6 10             	add    $0x10,%esi
100083f4:	83 c4 14             	add    $0x14,%esp
100083f7:	83 fe 30             	cmp    $0x30,%esi
100083fa:	72 e0                	jb     0x100083dc
100083fc:	6a 30                	push   $0x30
100083fe:	ff 75 0c             	pushl  0xc(%ebp)
10008401:	8d 45 d0             	lea    -0x30(%ebp),%eax
10008404:	50                   	push   %eax
10008405:	e8 c4 e9 ff ff       	call   0x10006dce
1000840a:	8d 45 d0             	lea    -0x30(%ebp),%eax
1000840d:	50                   	push   %eax
1000840e:	68 00 01 00 00       	push   $0x100
10008413:	53                   	push   %ebx
10008414:	e8 de fc ff ff       	call   0x100080f7
10008419:	8d 75 f0             	lea    -0x10(%ebp),%esi
1000841c:	c7 83 18 01 00 00 01 	movl   $0x1,0x118(%ebx)
10008423:	00 00 00 
10008426:	a5                   	movsl  %ds:(%esi),%es:(%edi)
10008427:	83 c4 18             	add    $0x18,%esp
1000842a:	a5                   	movsl  %ds:(%esi),%es:(%edi)
1000842b:	a5                   	movsl  %ds:(%esi),%es:(%edi)
1000842c:	a5                   	movsl  %ds:(%esi),%es:(%edi)
1000842d:	5f                   	pop    %edi
1000842e:	5e                   	pop    %esi
1000842f:	5b                   	pop    %ebx
10008430:	8b e5                	mov    %ebp,%esp
10008432:	5d                   	pop    %ebp
10008433:	c3                   	ret    
10008434:	55                   	push   %ebp
10008435:	8b ec                	mov    %esp,%ebp
10008437:	83 ec 44             	sub    $0x44,%esp
1000843a:	56                   	push   %esi
1000843b:	8b 75 14             	mov    0x14(%ebp),%esi
1000843e:	85 f6                	test   %esi,%esi
10008440:	0f 84 92 00 00 00    	je     0x100084d8
10008446:	53                   	push   %ebx
10008447:	8b 5d 10             	mov    0x10(%ebp),%ebx
1000844a:	8d 4d bc             	lea    -0x44(%ebp),%ecx
1000844d:	8b c3                	mov    %ebx,%eax
1000844f:	2b c1                	sub    %ecx,%eax
10008451:	89 45 14             	mov    %eax,0x14(%ebp)
10008454:	8b 45 0c             	mov    0xc(%ebp),%eax
10008457:	2b c1                	sub    %ecx,%eax
10008459:	57                   	push   %edi
1000845a:	89 45 fc             	mov    %eax,-0x4(%ebp)
1000845d:	ff 75 08             	pushl  0x8(%ebp)
10008460:	8d 45 bc             	lea    -0x44(%ebp),%eax
10008463:	33 ff                	xor    %edi,%edi
10008465:	50                   	push   %eax
10008466:	e8 ff 00 00 00       	call   0x1000856a
1000846b:	8b 45 08             	mov    0x8(%ebp),%eax
1000846e:	59                   	pop    %ecx
1000846f:	59                   	pop    %ecx
10008470:	83 40 20 01          	addl   $0x1,0x20(%eax)
10008474:	75 03                	jne    0x10008479
10008476:	ff 40 24             	incl   0x24(%eax)
10008479:	83 fe 40             	cmp    $0x40,%esi
1000847c:	76 32                	jbe    0x100084b0
1000847e:	8b 5d fc             	mov    -0x4(%ebp),%ebx
10008481:	8b d7                	mov    %edi,%edx
10008483:	8b 7d 14             	mov    0x14(%ebp),%edi
10008486:	8d 4d bc             	lea    -0x44(%ebp),%ecx
10008489:	03 ca                	add    %edx,%ecx
1000848b:	6a 40                	push   $0x40
1000848d:	8a 04 0b             	mov    (%ebx,%ecx,1),%al
10008490:	32 01                	xor    (%ecx),%al
10008492:	42                   	inc    %edx
10008493:	88 04 0f             	mov    %al,(%edi,%ecx,1)
10008496:	58                   	pop    %eax
10008497:	3b d0                	cmp    %eax,%edx
10008499:	72 eb                	jb     0x10008486
1000849b:	8b 5d 10             	mov    0x10(%ebp),%ebx
1000849e:	2b f0                	sub    %eax,%esi
100084a0:	01 45 14             	add    %eax,0x14(%ebp)
100084a3:	03 d8                	add    %eax,%ebx
100084a5:	01 45 0c             	add    %eax,0xc(%ebp)
100084a8:	01 45 fc             	add    %eax,-0x4(%ebp)
100084ab:	89 5d 10             	mov    %ebx,0x10(%ebp)
100084ae:	eb ad                	jmp    0x1000845d
100084b0:	85 f6                	test   %esi,%esi
100084b2:	74 22                	je     0x100084d6
100084b4:	8b 45 0c             	mov    0xc(%ebp),%eax
100084b7:	8d 4d bc             	lea    -0x44(%ebp),%ecx
100084ba:	2b c1                	sub    %ecx,%eax
100084bc:	2b d9                	sub    %ecx,%ebx
100084be:	89 45 0c             	mov    %eax,0xc(%ebp)
100084c1:	8d 4d bc             	lea    -0x44(%ebp),%ecx
100084c4:	03 cf                	add    %edi,%ecx
100084c6:	8a 04 08             	mov    (%eax,%ecx,1),%al
100084c9:	32 01                	xor    (%ecx),%al
100084cb:	47                   	inc    %edi
100084cc:	88 04 0b             	mov    %al,(%ebx,%ecx,1)
100084cf:	8b 45 0c             	mov    0xc(%ebp),%eax
100084d2:	3b fe                	cmp    %esi,%edi
100084d4:	72 eb                	jb     0x100084c1
100084d6:	5f                   	pop    %edi
100084d7:	5b                   	pop    %ebx
100084d8:	5e                   	pop    %esi
100084d9:	8b e5                	mov    %ebp,%esp
100084db:	5d                   	pop    %ebp
100084dc:	c3                   	ret    
100084dd:	55                   	push   %ebp
100084de:	8b ec                	mov    %esp,%ebp
100084e0:	8b 55 08             	mov    0x8(%ebp),%edx
100084e3:	8b 4d 0c             	mov    0xc(%ebp),%ecx
100084e6:	8b 01                	mov    (%ecx),%eax
100084e8:	89 42 18             	mov    %eax,0x18(%edx)
100084eb:	8b 41 04             	mov    0x4(%ecx),%eax
100084ee:	83 62 20 00          	andl   $0x0,0x20(%edx)
100084f2:	83 62 24 00          	andl   $0x0,0x24(%edx)
100084f6:	89 42 1c             	mov    %eax,0x1c(%edx)
100084f9:	5d                   	pop    %ebp
100084fa:	c3                   	ret    
100084fb:	55                   	push   %ebp
100084fc:	8b ec                	mov    %esp,%ebp
100084fe:	81 7d 10 00 01 00 00 	cmpl   $0x100,0x10(%ebp)
10008505:	8b 4d 0c             	mov    0xc(%ebp),%ecx
10008508:	8b 55 08             	mov    0x8(%ebp),%edx
1000850b:	56                   	push   %esi
1000850c:	8b 01                	mov    (%ecx),%eax
1000850e:	89 42 04             	mov    %eax,0x4(%edx)
10008511:	8b 41 04             	mov    0x4(%ecx),%eax
10008514:	89 42 08             	mov    %eax,0x8(%edx)
10008517:	8b 41 08             	mov    0x8(%ecx),%eax
1000851a:	89 42 0c             	mov    %eax,0xc(%edx)
1000851d:	8b 41 0c             	mov    0xc(%ecx),%eax
10008520:	89 42 10             	mov    %eax,0x10(%edx)
10008523:	75 0a                	jne    0x1000852f
10008525:	83 c1 10             	add    $0x10,%ecx
10008528:	be d0 d4 00 10       	mov    $0x1000d4d0,%esi
1000852d:	eb 05                	jmp    0x10008534
1000852f:	be e0 d4 00 10       	mov    $0x1000d4e0,%esi
10008534:	8b 01                	mov    (%ecx),%eax
10008536:	89 42 2c             	mov    %eax,0x2c(%edx)
10008539:	8b 41 04             	mov    0x4(%ecx),%eax
1000853c:	89 42 30             	mov    %eax,0x30(%edx)
1000853f:	8b 41 08             	mov    0x8(%ecx),%eax
10008542:	89 42 34             	mov    %eax,0x34(%edx)
10008545:	8b 41 0c             	mov    0xc(%ecx),%eax
10008548:	89 42 38             	mov    %eax,0x38(%edx)
1000854b:	8b 06                	mov    (%esi),%eax
1000854d:	89 02                	mov    %eax,(%edx)
1000854f:	8b 46 04             	mov    0x4(%esi),%eax
10008552:	89 42 14             	mov    %eax,0x14(%edx)
10008555:	8b 46 08             	mov    0x8(%esi),%eax
10008558:	89 42 28             	mov    %eax,0x28(%edx)
1000855b:	8b 46 0c             	mov    0xc(%esi),%eax
1000855e:	89 35 f8 30 01 10    	mov    %esi,0x100130f8
10008564:	89 42 3c             	mov    %eax,0x3c(%edx)
10008567:	5e                   	pop    %esi
10008568:	5d                   	pop    %ebp
10008569:	c3                   	ret    
1000856a:	55                   	push   %ebp
1000856b:	8b ec                	mov    %esp,%ebp
1000856d:	83 ec 74             	sub    $0x74,%esp
10008570:	53                   	push   %ebx
10008571:	56                   	push   %esi
10008572:	8b 75 0c             	mov    0xc(%ebp),%esi
10008575:	57                   	push   %edi
10008576:	6a 10                	push   $0x10
10008578:	59                   	pop    %ecx
10008579:	8d 7d 8c             	lea    -0x74(%ebp),%edi
1000857c:	c7 45 cc 0a 00 00 00 	movl   $0xa,-0x34(%ebp)
10008583:	f3 a5                	rep movsl %ds:(%esi),%es:(%edi)
10008585:	8b 45 b4             	mov    -0x4c(%ebp),%eax
10008588:	8b 7d bc             	mov    -0x44(%ebp),%edi
1000858b:	8b 4d c8             	mov    -0x38(%ebp),%ecx
1000858e:	8b 55 c4             	mov    -0x3c(%ebp),%edx
10008591:	8b 75 c0             	mov    -0x40(%ebp),%esi
10008594:	8b 5d b8             	mov    -0x48(%ebp),%ebx
10008597:	89 45 fc             	mov    %eax,-0x4(%ebp)
1000859a:	8b 45 b0             	mov    -0x50(%ebp),%eax
1000859d:	89 45 e0             	mov    %eax,-0x20(%ebp)
100085a0:	8b 45 ac             	mov    -0x54(%ebp),%eax
100085a3:	89 45 ec             	mov    %eax,-0x14(%ebp)
100085a6:	8b 45 a8             	mov    -0x58(%ebp),%eax
100085a9:	89 45 d4             	mov    %eax,-0x2c(%ebp)
100085ac:	8b 45 a4             	mov    -0x5c(%ebp),%eax
100085af:	89 45 d8             	mov    %eax,-0x28(%ebp)
100085b2:	8b 45 a0             	mov    -0x60(%ebp),%eax
100085b5:	89 45 e4             	mov    %eax,-0x1c(%ebp)
100085b8:	8b 45 9c             	mov    -0x64(%ebp),%eax
100085bb:	89 45 f0             	mov    %eax,-0x10(%ebp)
100085be:	8b 45 98             	mov    -0x68(%ebp),%eax
100085c1:	89 45 dc             	mov    %eax,-0x24(%ebp)
100085c4:	8b 45 94             	mov    -0x6c(%ebp),%eax
100085c7:	89 45 f4             	mov    %eax,-0xc(%ebp)
100085ca:	8b 45 90             	mov    -0x70(%ebp),%eax
100085cd:	89 45 f8             	mov    %eax,-0x8(%ebp)
100085d0:	8b 45 8c             	mov    -0x74(%ebp),%eax
100085d3:	89 7d d0             	mov    %edi,-0x30(%ebp)
100085d6:	89 45 e8             	mov    %eax,-0x18(%ebp)
100085d9:	03 c7                	add    %edi,%eax
100085db:	8b 7d d0             	mov    -0x30(%ebp),%edi
100085de:	c1 c0 07             	rol    $0x7,%eax
100085e1:	31 45 f0             	xor    %eax,-0x10(%ebp)
100085e4:	8b 45 f0             	mov    -0x10(%ebp),%eax
100085e7:	03 45 e8             	add    -0x18(%ebp),%eax
100085ea:	c1 c0 09             	rol    $0x9,%eax
100085ed:	31 45 ec             	xor    %eax,-0x14(%ebp)
100085f0:	8b 45 ec             	mov    -0x14(%ebp),%eax
100085f3:	03 45 f0             	add    -0x10(%ebp),%eax
100085f6:	c1 c0 0d             	rol    $0xd,%eax
100085f9:	33 f8                	xor    %eax,%edi
100085fb:	8b 45 ec             	mov    -0x14(%ebp),%eax
100085fe:	03 c7                	add    %edi,%eax
10008600:	89 7d d0             	mov    %edi,-0x30(%ebp)
10008603:	c1 c0 12             	rol    $0x12,%eax
10008606:	31 45 e8             	xor    %eax,-0x18(%ebp)
10008609:	8b 45 f8             	mov    -0x8(%ebp),%eax
1000860c:	03 45 e4             	add    -0x1c(%ebp),%eax
1000860f:	c1 c0 07             	rol    $0x7,%eax
10008612:	31 45 e0             	xor    %eax,-0x20(%ebp)
10008615:	8b 45 e0             	mov    -0x20(%ebp),%eax
10008618:	03 45 e4             	add    -0x1c(%ebp),%eax
1000861b:	c1 c0 09             	rol    $0x9,%eax
1000861e:	33 f0                	xor    %eax,%esi
10008620:	8b 7d d8             	mov    -0x28(%ebp),%edi
10008623:	8b 45 e0             	mov    -0x20(%ebp),%eax
10008626:	03 c6                	add    %esi,%eax
10008628:	c1 c0 0d             	rol    $0xd,%eax
1000862b:	31 45 f8             	xor    %eax,-0x8(%ebp)
1000862e:	8b 45 f8             	mov    -0x8(%ebp),%eax
10008631:	03 c6                	add    %esi,%eax
10008633:	c1 c0 12             	rol    $0x12,%eax
10008636:	31 45 e4             	xor    %eax,-0x1c(%ebp)
10008639:	8b 45 fc             	mov    -0x4(%ebp),%eax
1000863c:	03 c7                	add    %edi,%eax
1000863e:	c1 c0 07             	rol    $0x7,%eax
10008641:	33 d0                	xor    %eax,%edx
10008643:	8b 45 fc             	mov    -0x4(%ebp),%eax
10008646:	03 c2                	add    %edx,%eax
10008648:	c1 c0 09             	rol    $0x9,%eax
1000864b:	31 45 f4             	xor    %eax,-0xc(%ebp)
1000864e:	8b 45 f4             	mov    -0xc(%ebp),%eax
10008651:	03 c2                	add    %edx,%eax
10008653:	c1 c0 0d             	rol    $0xd,%eax
10008656:	33 f8                	xor    %eax,%edi
10008658:	8b 45 f4             	mov    -0xc(%ebp),%eax
1000865b:	03 c7                	add    %edi,%eax
1000865d:	89 7d d8             	mov    %edi,-0x28(%ebp)
10008660:	8b 7d dc             	mov    -0x24(%ebp),%edi
10008663:	c1 c0 12             	rol    $0x12,%eax
10008666:	31 45 fc             	xor    %eax,-0x4(%ebp)
10008669:	8d 04 0b             	lea    (%ebx,%ecx,1),%eax
1000866c:	c1 c0 07             	rol    $0x7,%eax
1000866f:	33 f8                	xor    %eax,%edi
10008671:	89 7d dc             	mov    %edi,-0x24(%ebp)
10008674:	8d 04 0f             	lea    (%edi,%ecx,1),%eax
10008677:	8b 7d d4             	mov    -0x2c(%ebp),%edi
1000867a:	c1 c0 09             	rol    $0x9,%eax
1000867d:	33 f8                	xor    %eax,%edi
1000867f:	8b 45 dc             	mov    -0x24(%ebp),%eax
10008682:	03 c7                	add    %edi,%eax
10008684:	89 7d d4             	mov    %edi,-0x2c(%ebp)
10008687:	c1 c0 0d             	rol    $0xd,%eax
1000868a:	33 d8                	xor    %eax,%ebx
1000868c:	8d 04 1f             	lea    (%edi,%ebx,1),%eax
1000868f:	c1 c0 12             	rol    $0x12,%eax
10008692:	33 c8                	xor    %eax,%ecx
10008694:	8b 45 e8             	mov    -0x18(%ebp),%eax
10008697:	03 45 dc             	add    -0x24(%ebp),%eax
1000869a:	c1 c0 07             	rol    $0x7,%eax
1000869d:	31 45 f8             	xor    %eax,-0x8(%ebp)
100086a0:	8b 45 f8             	mov    -0x8(%ebp),%eax
100086a3:	89 45 90             	mov    %eax,-0x70(%ebp)
100086a6:	03 45 e8             	add    -0x18(%ebp),%eax
100086a9:	c1 c0 09             	rol    $0x9,%eax
100086ac:	31 45 f4             	xor    %eax,-0xc(%ebp)
100086af:	8b 45 f4             	mov    -0xc(%ebp),%eax
100086b2:	89 45 94             	mov    %eax,-0x6c(%ebp)
100086b5:	03 45 f8             	add    -0x8(%ebp),%eax
100086b8:	c1 c0 0d             	rol    $0xd,%eax
100086bb:	8b 7d dc             	mov    -0x24(%ebp),%edi
100086be:	33 f8                	xor    %eax,%edi
100086c0:	8b 45 f4             	mov    -0xc(%ebp),%eax
100086c3:	03 c7                	add    %edi,%eax
100086c5:	89 7d dc             	mov    %edi,-0x24(%ebp)
100086c8:	c1 c0 12             	rol    $0x12,%eax
100086cb:	89 7d 98             	mov    %edi,-0x68(%ebp)
100086ce:	8b 7d e8             	mov    -0x18(%ebp),%edi
100086d1:	33 f8                	xor    %eax,%edi
100086d3:	8b 45 e4             	mov    -0x1c(%ebp),%eax
100086d6:	03 45 f0             	add    -0x10(%ebp),%eax
100086d9:	c1 c0 07             	rol    $0x7,%eax
100086dc:	31 45 d8             	xor    %eax,-0x28(%ebp)
100086df:	8b 45 d8             	mov    -0x28(%ebp),%eax
100086e2:	89 45 a4             	mov    %eax,-0x5c(%ebp)
100086e5:	03 45 e4             	add    -0x1c(%ebp),%eax
100086e8:	c1 c0 09             	rol    $0x9,%eax
100086eb:	89 7d e8             	mov    %edi,-0x18(%ebp)
100086ee:	89 7d 8c             	mov    %edi,-0x74(%ebp)
100086f1:	8b 7d d4             	mov    -0x2c(%ebp),%edi
100086f4:	33 f8                	xor    %eax,%edi
100086f6:	8b 45 d8             	mov    -0x28(%ebp),%eax
100086f9:	03 c7                	add    %edi,%eax
100086fb:	89 7d d4             	mov    %edi,-0x2c(%ebp)
100086fe:	c1 c0 0d             	rol    $0xd,%eax
10008701:	31 45 f0             	xor    %eax,-0x10(%ebp)
10008704:	8b 45 f0             	mov    -0x10(%ebp),%eax
10008707:	89 45 9c             	mov    %eax,-0x64(%ebp)
1000870a:	03 c7                	add    %edi,%eax
1000870c:	c1 c0 12             	rol    $0x12,%eax
1000870f:	89 7d a8             	mov    %edi,-0x58(%ebp)
10008712:	8b 7d e4             	mov    -0x1c(%ebp),%edi
10008715:	33 f8                	xor    %eax,%edi
10008717:	8b 45 fc             	mov    -0x4(%ebp),%eax
1000871a:	89 7d e4             	mov    %edi,-0x1c(%ebp)
1000871d:	89 7d a0             	mov    %edi,-0x60(%ebp)
10008720:	8b 7d e0             	mov    -0x20(%ebp),%edi
10008723:	03 c7                	add    %edi,%eax
10008725:	c1 c0 07             	rol    $0x7,%eax
10008728:	33 d8                	xor    %eax,%ebx
1000872a:	8b 45 fc             	mov    -0x4(%ebp),%eax
1000872d:	03 c3                	add    %ebx,%eax
1000872f:	c1 c0 09             	rol    $0x9,%eax
10008732:	31 45 ec             	xor    %eax,-0x14(%ebp)
10008735:	8b 45 ec             	mov    -0x14(%ebp),%eax
10008738:	89 45 ac             	mov    %eax,-0x54(%ebp)
1000873b:	03 c3                	add    %ebx,%eax
1000873d:	c1 c0 0d             	rol    $0xd,%eax
10008740:	33 f8                	xor    %eax,%edi
10008742:	8b c7                	mov    %edi,%eax
10008744:	89 7d e0             	mov    %edi,-0x20(%ebp)
10008747:	8b 7d d0             	mov    -0x30(%ebp),%edi
1000874a:	89 45 b0             	mov    %eax,-0x50(%ebp)
1000874d:	03 45 ec             	add    -0x14(%ebp),%eax
10008750:	c1 c0 12             	rol    $0x12,%eax
10008753:	31 45 fc             	xor    %eax,-0x4(%ebp)
10008756:	8b 45 fc             	mov    -0x4(%ebp),%eax
10008759:	89 45 b4             	mov    %eax,-0x4c(%ebp)
1000875c:	8d 04 11             	lea    (%ecx,%edx,1),%eax
1000875f:	c1 c0 07             	rol    $0x7,%eax
10008762:	33 f8                	xor    %eax,%edi
10008764:	89 7d d0             	mov    %edi,-0x30(%ebp)
10008767:	89 7d bc             	mov    %edi,-0x44(%ebp)
1000876a:	8d 04 39             	lea    (%ecx,%edi,1),%eax
1000876d:	c1 c0 09             	rol    $0x9,%eax
10008770:	33 f0                	xor    %eax,%esi
10008772:	8d 04 3e             	lea    (%esi,%edi,1),%eax
10008775:	c1 c0 0d             	rol    $0xd,%eax
10008778:	33 d0                	xor    %eax,%edx
1000877a:	8d 04 32             	lea    (%edx,%esi,1),%eax
1000877d:	c1 c0 12             	rol    $0x12,%eax
10008780:	33 c8                	xor    %eax,%ecx
10008782:	83 6d cc 01          	subl   $0x1,-0x34(%ebp)
10008786:	8b 45 e8             	mov    -0x18(%ebp),%eax
10008789:	0f 85 4a fe ff ff    	jne    0x100085d9
1000878f:	89 5d b8             	mov    %ebx,-0x48(%ebp)
10008792:	8d 45 8c             	lea    -0x74(%ebp),%eax
10008795:	8b 5d 0c             	mov    0xc(%ebp),%ebx
10008798:	89 55 c4             	mov    %edx,-0x3c(%ebp)
1000879b:	33 d2                	xor    %edx,%edx
1000879d:	89 4d c8             	mov    %ecx,-0x38(%ebp)
100087a0:	2b d8                	sub    %eax,%ebx
100087a2:	89 75 c0             	mov    %esi,-0x40(%ebp)
100087a5:	8d 04 93             	lea    (%ebx,%edx,4),%eax
100087a8:	8b 44 05 8c          	mov    -0x74(%ebp,%eax,1),%eax
100087ac:	01 44 95 8c          	add    %eax,-0x74(%ebp,%edx,4)
100087b0:	42                   	inc    %edx
100087b1:	83 fa 10             	cmp    $0x10,%edx
100087b4:	7c ef                	jl     0x100087a5
100087b6:	8b 7d 08             	mov    0x8(%ebp),%edi
100087b9:	8d 75 8c             	lea    -0x74(%ebp),%esi
100087bc:	6a 10                	push   $0x10
100087be:	59                   	pop    %ecx
100087bf:	f3 a5                	rep movsl %ds:(%esi),%es:(%edi)
100087c1:	5f                   	pop    %edi
100087c2:	5e                   	pop    %esi
100087c3:	5b                   	pop    %ebx
100087c4:	8b e5                	mov    %ebp,%esp
100087c6:	5d                   	pop    %ebp
100087c7:	c3                   	ret    
100087c8:	55                   	push   %ebp
100087c9:	8b ec                	mov    %esp,%ebp
100087cb:	83 ec 10             	sub    $0x10,%esp
100087ce:	8b 4d 10             	mov    0x10(%ebp),%ecx
100087d1:	53                   	push   %ebx
100087d2:	56                   	push   %esi
100087d3:	be 00 ff 00 ff       	mov    $0xff00ff00,%esi
100087d8:	bb ff 00 ff 00       	mov    $0xff00ff,%ebx
100087dd:	8b 01                	mov    (%ecx),%eax
100087df:	8b d0                	mov    %eax,%edx
100087e1:	c1 c0 08             	rol    $0x8,%eax
100087e4:	23 c3                	and    %ebx,%eax
100087e6:	c1 ca 08             	ror    $0x8,%edx
100087e9:	23 d6                	and    %esi,%edx
100087eb:	0b d0                	or     %eax,%edx
100087ed:	8b 41 04             	mov    0x4(%ecx),%eax
100087f0:	57                   	push   %edi
100087f1:	8b 7d 08             	mov    0x8(%ebp),%edi
100087f4:	33 17                	xor    (%edi),%edx
100087f6:	89 55 08             	mov    %edx,0x8(%ebp)
100087f9:	8b d0                	mov    %eax,%edx
100087fb:	c1 c0 08             	rol    $0x8,%eax
100087fe:	23 c3                	and    %ebx,%eax
10008800:	c1 ca 08             	ror    $0x8,%edx
10008803:	23 d6                	and    %esi,%edx
10008805:	0b d0                	or     %eax,%edx
10008807:	8b 41 08             	mov    0x8(%ecx),%eax
1000880a:	33 57 04             	xor    0x4(%edi),%edx
1000880d:	8b d8                	mov    %eax,%ebx
1000880f:	c1 c0 08             	rol    $0x8,%eax
10008812:	25 ff 00 ff 00       	and    $0xff00ff,%eax
10008817:	c1 cb 08             	ror    $0x8,%ebx
1000881a:	89 55 f8             	mov    %edx,-0x8(%ebp)
1000881d:	23 de                	and    %esi,%ebx
1000881f:	0b d8                	or     %eax,%ebx
10008821:	8b 41 0c             	mov    0xc(%ecx),%eax
10008824:	33 5f 08             	xor    0x8(%edi),%ebx
10008827:	8b d0                	mov    %eax,%edx
10008829:	c1 c0 08             	rol    $0x8,%eax
1000882c:	25 ff 00 ff 00       	and    $0xff00ff,%eax
10008831:	c1 ca 08             	ror    $0x8,%edx
10008834:	23 d6                	and    %esi,%edx
10008836:	0b d0                	or     %eax,%edx
10008838:	8b c3                	mov    %ebx,%eax
1000883a:	c1 e8 08             	shr    $0x8,%eax
1000883d:	0f b6 c8             	movzbl %al,%ecx
10008840:	8b 45 f8             	mov    -0x8(%ebp),%eax
10008843:	33 57 0c             	xor    0xc(%edi),%edx
10008846:	c1 e8 10             	shr    $0x10,%eax
10008849:	8b 0c 8d f0 dc 00 10 	mov    0x1000dcf0(,%ecx,4),%ecx
10008850:	0f b6 c0             	movzbl %al,%eax
10008853:	33 0c 85 f0 d8 00 10 	xor    0x1000d8f0(,%eax,4),%ecx
1000885a:	8b 45 08             	mov    0x8(%ebp),%eax
1000885d:	c1 e8 18             	shr    $0x18,%eax
10008860:	33 0c 85 f0 d4 00 10 	xor    0x1000d4f0(,%eax,4),%ecx
10008867:	0f b6 c2             	movzbl %dl,%eax
1000886a:	33 0c 85 f0 e0 00 10 	xor    0x1000e0f0(,%eax,4),%ecx
10008871:	8b c2                	mov    %edx,%eax
10008873:	33 4f 10             	xor    0x10(%edi),%ecx
10008876:	c1 e8 08             	shr    $0x8,%eax
10008879:	89 4d f4             	mov    %ecx,-0xc(%ebp)
1000887c:	0f b6 c8             	movzbl %al,%ecx
1000887f:	8b c3                	mov    %ebx,%eax
10008881:	c1 e8 10             	shr    $0x10,%eax
10008884:	0f b6 c0             	movzbl %al,%eax
10008887:	8b 0c 8d f0 dc 00 10 	mov    0x1000dcf0(,%ecx,4),%ecx
1000888e:	33 0c 85 f0 d8 00 10 	xor    0x1000d8f0(,%eax,4),%ecx
10008895:	8b 45 f8             	mov    -0x8(%ebp),%eax
10008898:	c1 e8 18             	shr    $0x18,%eax
1000889b:	33 0c 85 f0 d4 00 10 	xor    0x1000d4f0(,%eax,4),%ecx
100088a2:	8b 45 08             	mov    0x8(%ebp),%eax
100088a5:	0f b6 c0             	movzbl %al,%eax
100088a8:	33 0c 85 f0 e0 00 10 	xor    0x1000e0f0(,%eax,4),%ecx
100088af:	8b c2                	mov    %edx,%eax
100088b1:	33 4f 14             	xor    0x14(%edi),%ecx
100088b4:	c1 e8 10             	shr    $0x10,%eax
100088b7:	89 4d fc             	mov    %ecx,-0x4(%ebp)
100088ba:	0f b6 c8             	movzbl %al,%ecx
100088bd:	8b 45 08             	mov    0x8(%ebp),%eax
100088c0:	c1 e8 08             	shr    $0x8,%eax
100088c3:	0f b6 c0             	movzbl %al,%eax
100088c6:	8b 0c 8d f0 d8 00 10 	mov    0x1000d8f0(,%ecx,4),%ecx
100088cd:	33 0c 85 f0 dc 00 10 	xor    0x1000dcf0(,%eax,4),%ecx
100088d4:	8b c3                	mov    %ebx,%eax
100088d6:	c1 e8 18             	shr    $0x18,%eax
100088d9:	c1 ea 18             	shr    $0x18,%edx
100088dc:	33 0c 85 f0 d4 00 10 	xor    0x1000d4f0(,%eax,4),%ecx
100088e3:	89 4d 10             	mov    %ecx,0x10(%ebp)
100088e6:	8b 4d f8             	mov    -0x8(%ebp),%ecx
100088e9:	8b 75 10             	mov    0x10(%ebp),%esi
100088ec:	0f b6 c1             	movzbl %cl,%eax
100088ef:	c1 e9 08             	shr    $0x8,%ecx
100088f2:	0f b6 c9             	movzbl %cl,%ecx
100088f5:	33 34 85 f0 e0 00 10 	xor    0x1000e0f0(,%eax,4),%esi
100088fc:	8b c6                	mov    %esi,%eax
100088fe:	89 75 10             	mov    %esi,0x10(%ebp)
10008901:	33 47 18             	xor    0x18(%edi),%eax
10008904:	8b 0c 8d f0 dc 00 10 	mov    0x1000dcf0(,%ecx,4),%ecx
1000890b:	89 45 10             	mov    %eax,0x10(%ebp)
1000890e:	8b 45 08             	mov    0x8(%ebp),%eax
10008911:	c1 e8 10             	shr    $0x10,%eax
10008914:	0f b6 c0             	movzbl %al,%eax
10008917:	33 0c 85 f0 d8 00 10 	xor    0x1000d8f0(,%eax,4),%ecx
1000891e:	33 0c 95 f0 d4 00 10 	xor    0x1000d4f0(,%edx,4),%ecx
10008925:	0f b6 c3             	movzbl %bl,%eax
10008928:	33 0c 85 f0 e0 00 10 	xor    0x1000e0f0(,%eax,4),%ecx
1000892f:	8b 45 0c             	mov    0xc(%ebp),%eax
10008932:	33 4f 1c             	xor    0x1c(%edi),%ecx
10008935:	83 c7 20             	add    $0x20,%edi
10008938:	d1 f8                	sar    %eax
1000893a:	83 e8 01             	sub    $0x1,%eax
1000893d:	89 45 0c             	mov    %eax,0xc(%ebp)
10008940:	e9 ee 01 00 00       	jmp    0x10008b33
10008945:	8b 75 10             	mov    0x10(%ebp),%esi
10008948:	8b c6                	mov    %esi,%eax
1000894a:	c1 e8 08             	shr    $0x8,%eax
1000894d:	0f b6 c8             	movzbl %al,%ecx
10008950:	8b 45 fc             	mov    -0x4(%ebp),%eax
10008953:	c1 e8 10             	shr    $0x10,%eax
10008956:	0f b6 c0             	movzbl %al,%eax
10008959:	8b 0c 8d f0 dc 00 10 	mov    0x1000dcf0(,%ecx,4),%ecx
10008960:	8b 55 f4             	mov    -0xc(%ebp),%edx
10008963:	33 0c 85 f0 d8 00 10 	xor    0x1000d8f0(,%eax,4),%ecx
1000896a:	8b c2                	mov    %edx,%eax
1000896c:	c1 e8 18             	shr    $0x18,%eax
1000896f:	33 0c 85 f0 d4 00 10 	xor    0x1000d4f0(,%eax,4),%ecx
10008976:	8b 45 08             	mov    0x8(%ebp),%eax
10008979:	0f b6 c0             	movzbl %al,%eax
1000897c:	33 0c 85 f0 e0 00 10 	xor    0x1000e0f0(,%eax,4),%ecx
10008983:	33 0f                	xor    (%edi),%ecx
10008985:	8b 45 08             	mov    0x8(%ebp),%eax
10008988:	c1 e8 08             	shr    $0x8,%eax
1000898b:	89 4d f8             	mov    %ecx,-0x8(%ebp)
1000898e:	0f b6 c8             	movzbl %al,%ecx
10008991:	8b c6                	mov    %esi,%eax
10008993:	c1 e8 10             	shr    $0x10,%eax
10008996:	0f b6 c0             	movzbl %al,%eax
10008999:	8b 0c 8d f0 dc 00 10 	mov    0x1000dcf0(,%ecx,4),%ecx
100089a0:	33 0c 85 f0 d8 00 10 	xor    0x1000d8f0(,%eax,4),%ecx
100089a7:	8b 45 fc             	mov    -0x4(%ebp),%eax
100089aa:	c1 e8 18             	shr    $0x18,%eax
100089ad:	33 0c 85 f0 d4 00 10 	xor    0x1000d4f0(,%eax,4),%ecx
100089b4:	0f b6 c2             	movzbl %dl,%eax
100089b7:	33 0c 85 f0 e0 00 10 	xor    0x1000e0f0(,%eax,4),%ecx
100089be:	33 4f 04             	xor    0x4(%edi),%ecx
100089c1:	8b 45 08             	mov    0x8(%ebp),%eax
100089c4:	c1 e8 10             	shr    $0x10,%eax
100089c7:	89 4d f0             	mov    %ecx,-0x10(%ebp)
100089ca:	0f b6 c8             	movzbl %al,%ecx
100089cd:	8b c2                	mov    %edx,%eax
100089cf:	c1 e8 08             	shr    $0x8,%eax
100089d2:	0f b6 c0             	movzbl %al,%eax
100089d5:	c1 ea 10             	shr    $0x10,%edx
100089d8:	8b 1c 8d f0 d8 00 10 	mov    0x1000d8f0(,%ecx,4),%ebx
100089df:	8b 4d fc             	mov    -0x4(%ebp),%ecx
100089e2:	33 1c 85 f0 dc 00 10 	xor    0x1000dcf0(,%eax,4),%ebx
100089e9:	8b c6                	mov    %esi,%eax
100089eb:	c1 e8 18             	shr    $0x18,%eax
100089ee:	33 1c 85 f0 d4 00 10 	xor    0x1000d4f0(,%eax,4),%ebx
100089f5:	0f b6 c1             	movzbl %cl,%eax
100089f8:	c1 e9 08             	shr    $0x8,%ecx
100089fb:	0f b6 c9             	movzbl %cl,%ecx
100089fe:	33 1c 85 f0 e0 00 10 	xor    0x1000e0f0(,%eax,4),%ebx
10008a05:	33 5f 08             	xor    0x8(%edi),%ebx
10008a08:	0f b6 c2             	movzbl %dl,%eax
10008a0b:	8b 14 8d f0 dc 00 10 	mov    0x1000dcf0(,%ecx,4),%edx
10008a12:	33 14 85 f0 d8 00 10 	xor    0x1000d8f0(,%eax,4),%edx
10008a19:	8b 45 08             	mov    0x8(%ebp),%eax
10008a1c:	c1 e8 18             	shr    $0x18,%eax
10008a1f:	33 14 85 f0 d4 00 10 	xor    0x1000d4f0(,%eax,4),%edx
10008a26:	8b c6                	mov    %esi,%eax
10008a28:	0f b6 c0             	movzbl %al,%eax
10008a2b:	33 14 85 f0 e0 00 10 	xor    0x1000e0f0(,%eax,4),%edx
10008a32:	8b c3                	mov    %ebx,%eax
10008a34:	33 57 0c             	xor    0xc(%edi),%edx
10008a37:	c1 e8 08             	shr    $0x8,%eax
10008a3a:	0f b6 c8             	movzbl %al,%ecx
10008a3d:	8b 45 f0             	mov    -0x10(%ebp),%eax
10008a40:	c1 e8 10             	shr    $0x10,%eax
10008a43:	0f b6 c0             	movzbl %al,%eax
10008a46:	8b 0c 8d f0 dc 00 10 	mov    0x1000dcf0(,%ecx,4),%ecx
10008a4d:	33 0c 85 f0 d8 00 10 	xor    0x1000d8f0(,%eax,4),%ecx
10008a54:	8b 45 f8             	mov    -0x8(%ebp),%eax
10008a57:	c1 e8 18             	shr    $0x18,%eax
10008a5a:	33 0c 85 f0 d4 00 10 	xor    0x1000d4f0(,%eax,4),%ecx
10008a61:	0f b6 c2             	movzbl %dl,%eax
10008a64:	33 0c 85 f0 e0 00 10 	xor    0x1000e0f0(,%eax,4),%ecx
10008a6b:	8b c2                	mov    %edx,%eax
10008a6d:	33 4f 10             	xor    0x10(%edi),%ecx
10008a70:	c1 e8 08             	shr    $0x8,%eax
10008a73:	89 4d f4             	mov    %ecx,-0xc(%ebp)
10008a76:	0f b6 c8             	movzbl %al,%ecx
10008a79:	8b c3                	mov    %ebx,%eax
10008a7b:	c1 e8 10             	shr    $0x10,%eax
10008a7e:	8b 0c 8d f0 dc 00 10 	mov    0x1000dcf0(,%ecx,4),%ecx
10008a85:	0f b6 c0             	movzbl %al,%eax
10008a88:	33 0c 85 f0 d8 00 10 	xor    0x1000d8f0(,%eax,4),%ecx
10008a8f:	8b 45 f0             	mov    -0x10(%ebp),%eax
10008a92:	c1 e8 18             	shr    $0x18,%eax
10008a95:	33 0c 85 f0 d4 00 10 	xor    0x1000d4f0(,%eax,4),%ecx
10008a9c:	8b 45 f8             	mov    -0x8(%ebp),%eax
10008a9f:	0f b6 c0             	movzbl %al,%eax
10008aa2:	33 0c 85 f0 e0 00 10 	xor    0x1000e0f0(,%eax,4),%ecx
10008aa9:	8b c2                	mov    %edx,%eax
10008aab:	33 4f 14             	xor    0x14(%edi),%ecx
10008aae:	c1 e8 10             	shr    $0x10,%eax
10008ab1:	89 4d fc             	mov    %ecx,-0x4(%ebp)
10008ab4:	0f b6 c8             	movzbl %al,%ecx
10008ab7:	8b 45 f8             	mov    -0x8(%ebp),%eax
10008aba:	c1 e8 08             	shr    $0x8,%eax
10008abd:	0f b6 c0             	movzbl %al,%eax
10008ac0:	8b 0c 8d f0 d8 00 10 	mov    0x1000d8f0(,%ecx,4),%ecx
10008ac7:	c1 ea 18             	shr    $0x18,%edx
10008aca:	33 0c 85 f0 dc 00 10 	xor    0x1000dcf0(,%eax,4),%ecx
10008ad1:	8b c3                	mov    %ebx,%eax
10008ad3:	c1 e8 18             	shr    $0x18,%eax
10008ad6:	33 0c 85 f0 d4 00 10 	xor    0x1000d4f0(,%eax,4),%ecx
10008add:	89 4d 10             	mov    %ecx,0x10(%ebp)
10008ae0:	8b 4d f0             	mov    -0x10(%ebp),%ecx
10008ae3:	8b 75 10             	mov    0x10(%ebp),%esi
10008ae6:	0f b6 c1             	movzbl %cl,%eax
10008ae9:	c1 e9 08             	shr    $0x8,%ecx
10008aec:	0f b6 c9             	movzbl %cl,%ecx
10008aef:	33 34 85 f0 e0 00 10 	xor    0x1000e0f0(,%eax,4),%esi
10008af6:	8b c6                	mov    %esi,%eax
10008af8:	89 75 10             	mov    %esi,0x10(%ebp)
10008afb:	33 47 18             	xor    0x18(%edi),%eax
10008afe:	8b 0c 8d f0 dc 00 10 	mov    0x1000dcf0(,%ecx,4),%ecx
10008b05:	89 45 10             	mov    %eax,0x10(%ebp)
10008b08:	8b 45 f8             	mov    -0x8(%ebp),%eax
10008b0b:	c1 e8 10             	shr    $0x10,%eax
10008b0e:	0f b6 c0             	movzbl %al,%eax
10008b11:	33 0c 85 f0 d8 00 10 	xor    0x1000d8f0(,%eax,4),%ecx
10008b18:	33 0c 95 f0 d4 00 10 	xor    0x1000d4f0(,%edx,4),%ecx
10008b1f:	0f b6 c3             	movzbl %bl,%eax
10008b22:	33 0c 85 f0 e0 00 10 	xor    0x1000e0f0(,%eax,4),%ecx
10008b29:	33 4f 1c             	xor    0x1c(%edi),%ecx
10008b2c:	83 c7 20             	add    $0x20,%edi
10008b2f:	83 6d 0c 01          	subl   $0x1,0xc(%ebp)
10008b33:	89 4d 08             	mov    %ecx,0x8(%ebp)
10008b36:	0f 85 09 fe ff ff    	jne    0x10008945
10008b3c:	8b 45 fc             	mov    -0x4(%ebp),%eax
10008b3f:	be 00 00 00 ff       	mov    $0xff000000,%esi
10008b44:	c1 e8 10             	shr    $0x10,%eax
10008b47:	0f b6 c0             	movzbl %al,%eax
10008b4a:	8b 5d f4             	mov    -0xc(%ebp),%ebx
10008b4d:	8b 55 14             	mov    0x14(%ebp),%edx
10008b50:	8b 0c 85 f0 e4 00 10 	mov    0x1000e4f0(,%eax,4),%ecx
10008b57:	8b 45 10             	mov    0x10(%ebp),%eax
10008b5a:	81 e1 00 00 ff 00    	and    $0xff0000,%ecx
10008b60:	c1 e8 08             	shr    $0x8,%eax
10008b63:	0f b6 c0             	movzbl %al,%eax
10008b66:	8b 04 85 f0 e4 00 10 	mov    0x1000e4f0(,%eax,4),%eax
10008b6d:	25 00 ff 00 00       	and    $0xff00,%eax
10008b72:	33 c8                	xor    %eax,%ecx
10008b74:	8b c3                	mov    %ebx,%eax
10008b76:	c1 e8 18             	shr    $0x18,%eax
10008b79:	8b 04 85 f0 e4 00 10 	mov    0x1000e4f0(,%eax,4),%eax
10008b80:	25 00 00 00 ff       	and    $0xff000000,%eax
10008b85:	33 c8                	xor    %eax,%ecx
10008b87:	8b 45 08             	mov    0x8(%ebp),%eax
10008b8a:	0f b6 c0             	movzbl %al,%eax
10008b8d:	0f b6 04 85 f0 e4 00 	movzbl 0x1000e4f0(,%eax,4),%eax
10008b94:	10 
10008b95:	33 c8                	xor    %eax,%ecx
10008b97:	33 0f                	xor    (%edi),%ecx
10008b99:	8b c1                	mov    %ecx,%eax
10008b9b:	c1 c1 08             	rol    $0x8,%ecx
10008b9e:	c1 c8 08             	ror    $0x8,%eax
10008ba1:	81 e1 ff 00 ff 00    	and    $0xff00ff,%ecx
10008ba7:	25 00 ff 00 ff       	and    $0xff00ff00,%eax
10008bac:	0b c1                	or     %ecx,%eax
10008bae:	89 02                	mov    %eax,(%edx)
10008bb0:	8b 45 10             	mov    0x10(%ebp),%eax
10008bb3:	c1 e8 10             	shr    $0x10,%eax
10008bb6:	0f b6 c0             	movzbl %al,%eax
10008bb9:	8b 0c 85 f0 e4 00 10 	mov    0x1000e4f0(,%eax,4),%ecx
10008bc0:	8b 45 08             	mov    0x8(%ebp),%eax
10008bc3:	81 e1 00 00 ff 00    	and    $0xff0000,%ecx
10008bc9:	c1 e8 08             	shr    $0x8,%eax
10008bcc:	0f b6 c0             	movzbl %al,%eax
10008bcf:	8b 04 85 f0 e4 00 10 	mov    0x1000e4f0(,%eax,4),%eax
10008bd6:	25 00 ff 00 00       	and    $0xff00,%eax
10008bdb:	33 c8                	xor    %eax,%ecx
10008bdd:	8b 45 fc             	mov    -0x4(%ebp),%eax
10008be0:	c1 e8 18             	shr    $0x18,%eax
10008be3:	8b 04 85 f0 e4 00 10 	mov    0x1000e4f0(,%eax,4),%eax
10008bea:	23 c6                	and    %esi,%eax
10008bec:	33 c8                	xor    %eax,%ecx
10008bee:	0f b6 c3             	movzbl %bl,%eax
10008bf1:	0f b6 04 85 f0 e4 00 	movzbl 0x1000e4f0(,%eax,4),%eax
10008bf8:	10 
10008bf9:	33 c8                	xor    %eax,%ecx
10008bfb:	33 4f 04             	xor    0x4(%edi),%ecx
10008bfe:	8b c1                	mov    %ecx,%eax
10008c00:	c1 c1 08             	rol    $0x8,%ecx
10008c03:	c1 c8 08             	ror    $0x8,%eax
10008c06:	81 e1 ff 00 ff 00    	and    $0xff00ff,%ecx
10008c0c:	25 00 ff 00 ff       	and    $0xff00ff00,%eax
10008c11:	0b c1                	or     %ecx,%eax
10008c13:	89 42 04             	mov    %eax,0x4(%edx)
10008c16:	8b 45 08             	mov    0x8(%ebp),%eax
10008c19:	c1 e8 10             	shr    $0x10,%eax
10008c1c:	0f b6 c0             	movzbl %al,%eax
10008c1f:	8b 0c 85 f0 e4 00 10 	mov    0x1000e4f0(,%eax,4),%ecx
10008c26:	8b c3                	mov    %ebx,%eax
10008c28:	c1 e8 08             	shr    $0x8,%eax
10008c2b:	81 e1 00 00 ff 00    	and    $0xff0000,%ecx
10008c31:	0f b6 c0             	movzbl %al,%eax
10008c34:	8b 04 85 f0 e4 00 10 	mov    0x1000e4f0(,%eax,4),%eax
10008c3b:	25 00 ff 00 00       	and    $0xff00,%eax
10008c40:	33 c8                	xor    %eax,%ecx
10008c42:	8b 45 10             	mov    0x10(%ebp),%eax
10008c45:	c1 e8 18             	shr    $0x18,%eax
10008c48:	8b 04 85 f0 e4 00 10 	mov    0x1000e4f0(,%eax,4),%eax
10008c4f:	23 c6                	and    %esi,%eax
10008c51:	33 c8                	xor    %eax,%ecx
10008c53:	8b 45 fc             	mov    -0x4(%ebp),%eax
10008c56:	0f b6 c0             	movzbl %al,%eax
10008c59:	0f b6 04 85 f0 e4 00 	movzbl 0x1000e4f0(,%eax,4),%eax
10008c60:	10 
10008c61:	33 c8                	xor    %eax,%ecx
10008c63:	33 4f 08             	xor    0x8(%edi),%ecx
10008c66:	8b c1                	mov    %ecx,%eax
10008c68:	c1 c8 08             	ror    $0x8,%eax
10008c6b:	25 00 ff 00 ff       	and    $0xff00ff00,%eax
10008c70:	c1 c1 08             	rol    $0x8,%ecx
10008c73:	81 e1 ff 00 ff 00    	and    $0xff00ff,%ecx
10008c79:	c1 eb 10             	shr    $0x10,%ebx
10008c7c:	0b c1                	or     %ecx,%eax
10008c7e:	89 42 08             	mov    %eax,0x8(%edx)
10008c81:	0f b6 c3             	movzbl %bl,%eax
10008c84:	8b 0c 85 f0 e4 00 10 	mov    0x1000e4f0(,%eax,4),%ecx
10008c8b:	8b 45 fc             	mov    -0x4(%ebp),%eax
10008c8e:	81 e1 00 00 ff 00    	and    $0xff0000,%ecx
10008c94:	c1 e8 08             	shr    $0x8,%eax
10008c97:	0f b6 c0             	movzbl %al,%eax
10008c9a:	8b 04 85 f0 e4 00 10 	mov    0x1000e4f0(,%eax,4),%eax
10008ca1:	25 00 ff 00 00       	and    $0xff00,%eax
10008ca6:	33 c8                	xor    %eax,%ecx
10008ca8:	8b 45 08             	mov    0x8(%ebp),%eax
10008cab:	c1 e8 18             	shr    $0x18,%eax
10008cae:	8b 04 85 f0 e4 00 10 	mov    0x1000e4f0(,%eax,4),%eax
10008cb5:	23 c6                	and    %esi,%eax
10008cb7:	33 c8                	xor    %eax,%ecx
10008cb9:	8b 45 10             	mov    0x10(%ebp),%eax
10008cbc:	0f b6 c0             	movzbl %al,%eax
10008cbf:	0f b6 04 85 f0 e4 00 	movzbl 0x1000e4f0(,%eax,4),%eax
10008cc6:	10 
10008cc7:	33 c8                	xor    %eax,%ecx
10008cc9:	33 4f 0c             	xor    0xc(%edi),%ecx
10008ccc:	8b c1                	mov    %ecx,%eax
10008cce:	c1 c1 08             	rol    $0x8,%ecx
10008cd1:	c1 c8 08             	ror    $0x8,%eax
10008cd4:	81 e1 ff 00 ff 00    	and    $0xff00ff,%ecx
10008cda:	5f                   	pop    %edi
10008cdb:	25 00 ff 00 ff       	and    $0xff00ff00,%eax
10008ce0:	0b c1                	or     %ecx,%eax
10008ce2:	5e                   	pop    %esi
10008ce3:	89 42 0c             	mov    %eax,0xc(%edx)
10008ce6:	5b                   	pop    %ebx
10008ce7:	8b e5                	mov    %ebp,%esp
10008ce9:	5d                   	pop    %ebp
10008cea:	c3                   	ret    
10008ceb:	55                   	push   %ebp
10008cec:	8b ec                	mov    %esp,%ebp
10008cee:	53                   	push   %ebx
10008cef:	8b 5d 0c             	mov    0xc(%ebp),%ebx
10008cf2:	ba 00 ff 00 ff       	mov    $0xff00ff00,%edx
10008cf7:	56                   	push   %esi
10008cf8:	8b 75 08             	mov    0x8(%ebp),%esi
10008cfb:	57                   	push   %edi
10008cfc:	8b 03                	mov    (%ebx),%eax
10008cfe:	8b c8                	mov    %eax,%ecx
10008d00:	c1 c0 08             	rol    $0x8,%eax
10008d03:	25 ff 00 ff 00       	and    $0xff00ff,%eax
10008d08:	c1 c9 08             	ror    $0x8,%ecx
10008d0b:	23 ca                	and    %edx,%ecx
10008d0d:	8d 7e 04             	lea    0x4(%esi),%edi
10008d10:	0b c8                	or     %eax,%ecx
10008d12:	89 0e                	mov    %ecx,(%esi)
10008d14:	8b 4b 04             	mov    0x4(%ebx),%ecx
10008d17:	8b c1                	mov    %ecx,%eax
10008d19:	c1 c8 08             	ror    $0x8,%eax
10008d1c:	23 c2                	and    %edx,%eax
10008d1e:	c1 c1 08             	rol    $0x8,%ecx
10008d21:	81 e1 ff 00 ff 00    	and    $0xff00ff,%ecx
10008d27:	0b c1                	or     %ecx,%eax
10008d29:	89 07                	mov    %eax,(%edi)
10008d2b:	8b 4b 08             	mov    0x8(%ebx),%ecx
10008d2e:	8b c1                	mov    %ecx,%eax
10008d30:	c1 c8 08             	ror    $0x8,%eax
10008d33:	23 c2                	and    %edx,%eax
10008d35:	c1 c1 08             	rol    $0x8,%ecx
10008d38:	81 e1 ff 00 ff 00    	and    $0xff00ff,%ecx
10008d3e:	0b c1                	or     %ecx,%eax
10008d40:	89 46 08             	mov    %eax,0x8(%esi)
10008d43:	8b 43 0c             	mov    0xc(%ebx),%eax
10008d46:	8b d0                	mov    %eax,%edx
10008d48:	c1 ca 08             	ror    $0x8,%edx
10008d4b:	c1 c0 08             	rol    $0x8,%eax
10008d4e:	81 e2 00 ff 00 ff    	and    $0xff00ff00,%edx
10008d54:	25 ff 00 ff 00       	and    $0xff00ff,%eax
10008d59:	0b d0                	or     %eax,%edx
10008d5b:	81 7d 10 80 00 00 00 	cmpl   $0x80,0x10(%ebp)
10008d62:	89 56 0c             	mov    %edx,0xc(%esi)
10008d65:	0f 85 f2 00 00 00    	jne    0x10008e5d
10008d6b:	8b c2                	mov    %edx,%eax
10008d6d:	bb 00 00 00 ff       	mov    $0xff000000,%ebx
10008d72:	c1 e8 10             	shr    $0x10,%eax
10008d75:	0f b6 c0             	movzbl %al,%eax
10008d78:	8b 0c 85 f0 e4 00 10 	mov    0x1000e4f0(,%eax,4),%ecx
10008d7f:	8b c2                	mov    %edx,%eax
10008d81:	c1 e8 08             	shr    $0x8,%eax
10008d84:	81 f1 00 00 00 01    	xor    $0x1000000,%ecx
10008d8a:	0f b6 c0             	movzbl %al,%eax
10008d8d:	23 cb                	and    %ebx,%ecx
10008d8f:	8b 04 85 f0 e4 00 10 	mov    0x1000e4f0(,%eax,4),%eax
10008d96:	25 00 00 ff 00       	and    $0xff0000,%eax
10008d9b:	33 c8                	xor    %eax,%ecx
10008d9d:	8b c2                	mov    %edx,%eax
10008d9f:	c1 e8 18             	shr    $0x18,%eax
10008da2:	0f b6 04 85 f0 e4 00 	movzbl 0x1000e4f0(,%eax,4),%eax
10008da9:	10 
10008daa:	33 c8                	xor    %eax,%ecx
10008dac:	0f b6 c2             	movzbl %dl,%eax
10008daf:	8b 04 85 f0 e4 00 10 	mov    0x1000e4f0(,%eax,4),%eax
10008db6:	25 00 ff 00 00       	and    $0xff00,%eax
10008dbb:	33 c8                	xor    %eax,%ecx
10008dbd:	8b 07                	mov    (%edi),%eax
10008dbf:	33 0e                	xor    (%esi),%ecx
10008dc1:	33 c1                	xor    %ecx,%eax
10008dc3:	89 4e 10             	mov    %ecx,0x10(%esi)
10008dc6:	8b 4e 08             	mov    0x8(%esi),%ecx
10008dc9:	89 46 14             	mov    %eax,0x14(%esi)
10008dcc:	33 c8                	xor    %eax,%ecx
10008dce:	8b c2                	mov    %edx,%eax
10008dd0:	89 4e 18             	mov    %ecx,0x18(%esi)
10008dd3:	33 c1                	xor    %ecx,%eax
10008dd5:	89 46 1c             	mov    %eax,0x1c(%esi)
10008dd8:	be f4 fc 00 10       	mov    $0x1000fcf4,%esi
10008ddd:	8d 7f 10             	lea    0x10(%edi),%edi
10008de0:	8b 4f 08             	mov    0x8(%edi),%ecx
10008de3:	8b c1                	mov    %ecx,%eax
10008de5:	c1 e8 08             	shr    $0x8,%eax
10008de8:	0f b6 c0             	movzbl %al,%eax
10008deb:	8b 14 85 f0 e4 00 10 	mov    0x1000e4f0(,%eax,4),%edx
10008df2:	8b c1                	mov    %ecx,%eax
10008df4:	c1 e8 10             	shr    $0x10,%eax
10008df7:	81 e2 00 00 ff 00    	and    $0xff0000,%edx
10008dfd:	0f b6 c0             	movzbl %al,%eax
10008e00:	8b 04 85 f0 e4 00 10 	mov    0x1000e4f0(,%eax,4),%eax
10008e07:	23 c3                	and    %ebx,%eax
10008e09:	33 d0                	xor    %eax,%edx
10008e0b:	8b c1                	mov    %ecx,%eax
10008e0d:	c1 e8 18             	shr    $0x18,%eax
10008e10:	0f b6 04 85 f0 e4 00 	movzbl 0x1000e4f0(,%eax,4),%eax
10008e17:	10 
10008e18:	33 d0                	xor    %eax,%edx
10008e1a:	0f b6 c1             	movzbl %cl,%eax
10008e1d:	8b 04 85 f0 e4 00 10 	mov    0x1000e4f0(,%eax,4),%eax
10008e24:	25 00 ff 00 00       	and    $0xff00,%eax
10008e29:	33 d0                	xor    %eax,%edx
10008e2b:	33 57 fc             	xor    -0x4(%edi),%edx
10008e2e:	33 16                	xor    (%esi),%edx
10008e30:	83 c6 04             	add    $0x4,%esi
10008e33:	89 57 0c             	mov    %edx,0xc(%edi)
10008e36:	8b 07                	mov    (%edi),%eax
10008e38:	33 c2                	xor    %edx,%eax
10008e3a:	89 47 10             	mov    %eax,0x10(%edi)
10008e3d:	8b 4f 04             	mov    0x4(%edi),%ecx
10008e40:	33 c8                	xor    %eax,%ecx
10008e42:	89 4f 14             	mov    %ecx,0x14(%edi)
10008e45:	8b 47 08             	mov    0x8(%edi),%eax
10008e48:	33 c1                	xor    %ecx,%eax
10008e4a:	89 47 18             	mov    %eax,0x18(%edi)
10008e4d:	81 fe 18 fd 00 10    	cmp    $0x1000fd18,%esi
10008e53:	75 88                	jne    0x10008ddd
10008e55:	6a 0a                	push   $0xa
10008e57:	58                   	pop    %eax
10008e58:	e9 0b 03 00 00       	jmp    0x10009168
10008e5d:	8b 4b 10             	mov    0x10(%ebx),%ecx
10008e60:	8b c1                	mov    %ecx,%eax
10008e62:	c1 c8 08             	ror    $0x8,%eax
10008e65:	25 00 ff 00 ff       	and    $0xff00ff00,%eax
10008e6a:	c1 c1 08             	rol    $0x8,%ecx
10008e6d:	81 e1 ff 00 ff 00    	and    $0xff00ff,%ecx
10008e73:	0b c1                	or     %ecx,%eax
10008e75:	89 46 10             	mov    %eax,0x10(%esi)
10008e78:	8b 43 14             	mov    0x14(%ebx),%eax
10008e7b:	8b d0                	mov    %eax,%edx
10008e7d:	c1 ca 08             	ror    $0x8,%edx
10008e80:	c1 c0 08             	rol    $0x8,%eax
10008e83:	81 e2 00 ff 00 ff    	and    $0xff00ff00,%edx
10008e89:	25 ff 00 ff 00       	and    $0xff00ff,%eax
10008e8e:	0b d0                	or     %eax,%edx
10008e90:	81 7d 10 c0 00 00 00 	cmpl   $0xc0,0x10(%ebp)
10008e97:	89 56 14             	mov    %edx,0x14(%esi)
10008e9a:	0f 85 0a 01 00 00    	jne    0x10008faa
10008ea0:	8b c2                	mov    %edx,%eax
10008ea2:	bb 00 00 00 ff       	mov    $0xff000000,%ebx
10008ea7:	c1 e8 10             	shr    $0x10,%eax
10008eaa:	0f b6 c0             	movzbl %al,%eax
10008ead:	8b 0c 85 f0 e4 00 10 	mov    0x1000e4f0(,%eax,4),%ecx
10008eb4:	8b c2                	mov    %edx,%eax
10008eb6:	c1 e8 08             	shr    $0x8,%eax
10008eb9:	81 f1 00 00 00 01    	xor    $0x1000000,%ecx
10008ebf:	0f b6 c0             	movzbl %al,%eax
10008ec2:	23 cb                	and    %ebx,%ecx
10008ec4:	8b 04 85 f0 e4 00 10 	mov    0x1000e4f0(,%eax,4),%eax
10008ecb:	25 00 00 ff 00       	and    $0xff0000,%eax
10008ed0:	33 c8                	xor    %eax,%ecx
10008ed2:	8b c2                	mov    %edx,%eax
10008ed4:	c1 e8 18             	shr    $0x18,%eax
10008ed7:	0f b6 04 85 f0 e4 00 	movzbl 0x1000e4f0(,%eax,4),%eax
10008ede:	10 
10008edf:	33 c8                	xor    %eax,%ecx
10008ee1:	0f b6 c2             	movzbl %dl,%eax
10008ee4:	8b 04 85 f0 e4 00 10 	mov    0x1000e4f0(,%eax,4),%eax
10008eeb:	25 00 ff 00 00       	and    $0xff00,%eax
10008ef0:	33 c8                	xor    %eax,%ecx
10008ef2:	8b 07                	mov    (%edi),%eax
10008ef4:	33 0e                	xor    (%esi),%ecx
10008ef6:	bf f4 fc 00 10       	mov    $0x1000fcf4,%edi
10008efb:	33 c1                	xor    %ecx,%eax
10008efd:	89 4e 18             	mov    %ecx,0x18(%esi)
10008f00:	8b 4e 08             	mov    0x8(%esi),%ecx
10008f03:	33 c8                	xor    %eax,%ecx
10008f05:	89 46 1c             	mov    %eax,0x1c(%esi)
10008f08:	8b 46 0c             	mov    0xc(%esi),%eax
10008f0b:	33 c1                	xor    %ecx,%eax
10008f0d:	89 4e 20             	mov    %ecx,0x20(%esi)
10008f10:	89 46 24             	mov    %eax,0x24(%esi)
10008f13:	83 c6 28             	add    $0x28,%esi
10008f16:	8b 4e e8             	mov    -0x18(%esi),%ecx
10008f19:	33 4e fc             	xor    -0x4(%esi),%ecx
10008f1c:	8b 46 ec             	mov    -0x14(%esi),%eax
10008f1f:	33 c1                	xor    %ecx,%eax
10008f21:	89 0e                	mov    %ecx,(%esi)
10008f23:	89 46 04             	mov    %eax,0x4(%esi)
10008f26:	8d 76 18             	lea    0x18(%esi),%esi
10008f29:	8b 4e ec             	mov    -0x14(%esi),%ecx
10008f2c:	8b c1                	mov    %ecx,%eax
10008f2e:	c1 e8 08             	shr    $0x8,%eax
10008f31:	0f b6 c0             	movzbl %al,%eax
10008f34:	8b 14 85 f0 e4 00 10 	mov    0x1000e4f0(,%eax,4),%edx
10008f3b:	8b c1                	mov    %ecx,%eax
10008f3d:	c1 e8 10             	shr    $0x10,%eax
10008f40:	81 e2 00 00 ff 00    	and    $0xff0000,%edx
10008f46:	0f b6 c0             	movzbl %al,%eax
10008f49:	8b 04 85 f0 e4 00 10 	mov    0x1000e4f0(,%eax,4),%eax
10008f50:	23 c3                	and    %ebx,%eax
10008f52:	33 d0                	xor    %eax,%edx
10008f54:	8b c1                	mov    %ecx,%eax
10008f56:	c1 e8 18             	shr    $0x18,%eax
10008f59:	0f b6 04 85 f0 e4 00 	movzbl 0x1000e4f0(,%eax,4),%eax
10008f60:	10 
10008f61:	33 d0                	xor    %eax,%edx
10008f63:	0f b6 c1             	movzbl %cl,%eax
10008f66:	8b 04 85 f0 e4 00 10 	mov    0x1000e4f0(,%eax,4),%eax
10008f6d:	25 00 ff 00 00       	and    $0xff00,%eax
10008f72:	33 d0                	xor    %eax,%edx
10008f74:	33 56 d8             	xor    -0x28(%esi),%edx
10008f77:	33 17                	xor    (%edi),%edx
10008f79:	83 c7 04             	add    $0x4,%edi
10008f7c:	89 56 f0             	mov    %edx,-0x10(%esi)
10008f7f:	8b 46 dc             	mov    -0x24(%esi),%eax
10008f82:	33 c2                	xor    %edx,%eax
10008f84:	89 46 f4             	mov    %eax,-0xc(%esi)
10008f87:	8b 4e e0             	mov    -0x20(%esi),%ecx
10008f8a:	33 c8                	xor    %eax,%ecx
10008f8c:	89 4e f8             	mov    %ecx,-0x8(%esi)
10008f8f:	8b 46 e4             	mov    -0x1c(%esi),%eax
10008f92:	33 c1                	xor    %ecx,%eax
10008f94:	89 46 fc             	mov    %eax,-0x4(%esi)
10008f97:	81 ff 10 fd 00 10    	cmp    $0x1000fd10,%edi
10008f9d:	0f 85 73 ff ff ff    	jne    0x10008f16
10008fa3:	6a 0c                	push   $0xc
10008fa5:	e9 ad fe ff ff       	jmp    0x10008e57
10008faa:	8b 4b 18             	mov    0x18(%ebx),%ecx
10008fad:	ba 00 ff 00 ff       	mov    $0xff00ff00,%edx
10008fb2:	8b c1                	mov    %ecx,%eax
10008fb4:	c1 c1 08             	rol    $0x8,%ecx
10008fb7:	c1 c8 08             	ror    $0x8,%eax
10008fba:	81 e1 ff 00 ff 00    	and    $0xff00ff,%ecx
10008fc0:	23 c2                	and    %edx,%eax
10008fc2:	0b c1                	or     %ecx,%eax
10008fc4:	89 46 18             	mov    %eax,0x18(%esi)
10008fc7:	8b 4b 1c             	mov    0x1c(%ebx),%ecx
10008fca:	8b c1                	mov    %ecx,%eax
10008fcc:	c1 c8 08             	ror    $0x8,%eax
10008fcf:	c1 c1 08             	rol    $0x8,%ecx
10008fd2:	23 c2                	and    %edx,%eax
10008fd4:	81 e1 ff 00 ff 00    	and    $0xff00ff,%ecx
10008fda:	0b c1                	or     %ecx,%eax
10008fdc:	81 7d 10 00 01 00 00 	cmpl   $0x100,0x10(%ebp)
10008fe3:	89 46 1c             	mov    %eax,0x1c(%esi)
10008fe6:	0f 85 7a 01 00 00    	jne    0x10009166
10008fec:	8b c8                	mov    %eax,%ecx
10008fee:	c7 45 0c f4 fc 00 10 	movl   $0x1000fcf4,0xc(%ebp)
10008ff5:	c1 e8 10             	shr    $0x10,%eax
10008ff8:	bb 00 00 00 ff       	mov    $0xff000000,%ebx
10008ffd:	0f b6 c0             	movzbl %al,%eax
10009000:	8b 14 85 f0 e4 00 10 	mov    0x1000e4f0(,%eax,4),%edx
10009007:	8b c1                	mov    %ecx,%eax
10009009:	c1 e8 08             	shr    $0x8,%eax
1000900c:	81 f2 00 00 00 01    	xor    $0x1000000,%edx
10009012:	0f b6 c0             	movzbl %al,%eax
10009015:	23 d3                	and    %ebx,%edx
10009017:	8b 04 85 f0 e4 00 10 	mov    0x1000e4f0(,%eax,4),%eax
1000901e:	25 00 00 ff 00       	and    $0xff0000,%eax
10009023:	33 d0                	xor    %eax,%edx
10009025:	8b c1                	mov    %ecx,%eax
10009027:	c1 e8 18             	shr    $0x18,%eax
1000902a:	0f b6 04 85 f0 e4 00 	movzbl 0x1000e4f0(,%eax,4),%eax
10009031:	10 
10009032:	33 d0                	xor    %eax,%edx
10009034:	0f b6 c1             	movzbl %cl,%eax
10009037:	8b 4e 08             	mov    0x8(%esi),%ecx
1000903a:	8b 04 85 f0 e4 00 10 	mov    0x1000e4f0(,%eax,4),%eax
10009041:	25 00 ff 00 00       	and    $0xff00,%eax
10009046:	33 d0                	xor    %eax,%edx
10009048:	8b 07                	mov    (%edi),%eax
1000904a:	33 16                	xor    (%esi),%edx
1000904c:	bf 00 ff 00 00       	mov    $0xff00,%edi
10009051:	33 c2                	xor    %edx,%eax
10009053:	89 56 20             	mov    %edx,0x20(%esi)
10009056:	89 46 24             	mov    %eax,0x24(%esi)
10009059:	8d 56 30             	lea    0x30(%esi),%edx
1000905c:	33 c8                	xor    %eax,%ecx
1000905e:	89 55 10             	mov    %edx,0x10(%ebp)
10009061:	8b 46 0c             	mov    0xc(%esi),%eax
10009064:	33 c1                	xor    %ecx,%eax
10009066:	89 4e 28             	mov    %ecx,0x28(%esi)
10009069:	89 46 2c             	mov    %eax,0x2c(%esi)
1000906c:	be 00 00 ff 00       	mov    $0xff0000,%esi
10009071:	8b 4a fc             	mov    -0x4(%edx),%ecx
10009074:	8b c1                	mov    %ecx,%eax
10009076:	c1 e8 10             	shr    $0x10,%eax
10009079:	0f b6 c0             	movzbl %al,%eax
1000907c:	8b 14 85 f0 e4 00 10 	mov    0x1000e4f0(,%eax,4),%edx
10009083:	8b c1                	mov    %ecx,%eax
10009085:	c1 e8 08             	shr    $0x8,%eax
10009088:	23 d6                	and    %esi,%edx
1000908a:	0f b6 c0             	movzbl %al,%eax
1000908d:	8b 04 85 f0 e4 00 10 	mov    0x1000e4f0(,%eax,4),%eax
10009094:	23 c7                	and    %edi,%eax
10009096:	33 d0                	xor    %eax,%edx
10009098:	8b c1                	mov    %ecx,%eax
1000909a:	c1 e8 18             	shr    $0x18,%eax
1000909d:	8b 04 85 f0 e4 00 10 	mov    0x1000e4f0(,%eax,4),%eax
100090a4:	23 c3                	and    %ebx,%eax
100090a6:	33 d0                	xor    %eax,%edx
100090a8:	0f b6 c1             	movzbl %cl,%eax
100090ab:	0f b6 04 85 f0 e4 00 	movzbl 0x1000e4f0(,%eax,4),%eax
100090b2:	10 
100090b3:	33 d0                	xor    %eax,%edx
100090b5:	8b 45 10             	mov    0x10(%ebp),%eax
100090b8:	33 50 e0             	xor    -0x20(%eax),%edx
100090bb:	89 10                	mov    %edx,(%eax)
100090bd:	8b 40 e4             	mov    -0x1c(%eax),%eax
100090c0:	33 c2                	xor    %edx,%eax
100090c2:	8b 55 10             	mov    0x10(%ebp),%edx
100090c5:	8b 4a e8             	mov    -0x18(%edx),%ecx
100090c8:	89 42 04             	mov    %eax,0x4(%edx)
100090cb:	33 c8                	xor    %eax,%ecx
100090cd:	8b 42 ec             	mov    -0x14(%edx),%eax
100090d0:	33 c1                	xor    %ecx,%eax
100090d2:	89 4a 08             	mov    %ecx,0x8(%edx)
100090d5:	89 42 0c             	mov    %eax,0xc(%edx)
100090d8:	83 c2 20             	add    $0x20,%edx
100090db:	89 55 10             	mov    %edx,0x10(%ebp)
100090de:	8b 4a ec             	mov    -0x14(%edx),%ecx
100090e1:	8b c1                	mov    %ecx,%eax
100090e3:	c1 e8 08             	shr    $0x8,%eax
100090e6:	0f b6 c0             	movzbl %al,%eax
100090e9:	8b 14 85 f0 e4 00 10 	mov    0x1000e4f0(,%eax,4),%edx
100090f0:	8b c1                	mov    %ecx,%eax
100090f2:	c1 e8 10             	shr    $0x10,%eax
100090f5:	23 d6                	and    %esi,%edx
100090f7:	0f b6 c0             	movzbl %al,%eax
100090fa:	8b 04 85 f0 e4 00 10 	mov    0x1000e4f0(,%eax,4),%eax
10009101:	23 c3                	and    %ebx,%eax
10009103:	33 d0                	xor    %eax,%edx
10009105:	8b c1                	mov    %ecx,%eax
10009107:	c1 e8 18             	shr    $0x18,%eax
1000910a:	0f b6 04 85 f0 e4 00 	movzbl 0x1000e4f0(,%eax,4),%eax
10009111:	10 
10009112:	33 d0                	xor    %eax,%edx
10009114:	0f b6 c1             	movzbl %cl,%eax
10009117:	8b 4d 0c             	mov    0xc(%ebp),%ecx
1000911a:	8b 04 85 f0 e4 00 10 	mov    0x1000e4f0(,%eax,4),%eax
10009121:	23 c7                	and    %edi,%eax
10009123:	33 d0                	xor    %eax,%edx
10009125:	8b 45 10             	mov    0x10(%ebp),%eax
10009128:	33 50 d0             	xor    -0x30(%eax),%edx
1000912b:	33 11                	xor    (%ecx),%edx
1000912d:	89 50 f0             	mov    %edx,-0x10(%eax)
10009130:	8b 40 d4             	mov    -0x2c(%eax),%eax
10009133:	33 c2                	xor    %edx,%eax
10009135:	8b 55 10             	mov    0x10(%ebp),%edx
10009138:	89 42 f4             	mov    %eax,-0xc(%edx)
1000913b:	8b 4a d8             	mov    -0x28(%edx),%ecx
1000913e:	33 c8                	xor    %eax,%ecx
10009140:	89 4a f8             	mov    %ecx,-0x8(%edx)
10009143:	8b 42 dc             	mov    -0x24(%edx),%eax
10009146:	33 c1                	xor    %ecx,%eax
10009148:	89 42 fc             	mov    %eax,-0x4(%edx)
1000914b:	8b 45 0c             	mov    0xc(%ebp),%eax
1000914e:	83 c0 04             	add    $0x4,%eax
10009151:	89 45 0c             	mov    %eax,0xc(%ebp)
10009154:	3d 0c fd 00 10       	cmp    $0x1000fd0c,%eax
10009159:	0f 85 12 ff ff ff    	jne    0x10009071
1000915f:	6a 0e                	push   $0xe
10009161:	e9 f1 fc ff ff       	jmp    0x10008e57
10009166:	33 c0                	xor    %eax,%eax
10009168:	5f                   	pop    %edi
10009169:	5e                   	pop    %esi
1000916a:	5b                   	pop    %ebx
1000916b:	5d                   	pop    %ebp
1000916c:	c3                   	ret    
1000916d:	55                   	push   %ebp
1000916e:	8b ec                	mov    %esp,%ebp
10009170:	81 ec f0 04 00 00    	sub    $0x4f0,%esp
10009176:	53                   	push   %ebx
10009177:	56                   	push   %esi
10009178:	57                   	push   %edi
10009179:	bf 90 00 00 00       	mov    $0x90,%edi
1000917e:	8d 85 e0 fc ff ff    	lea    -0x320(%ebp),%eax
10009184:	57                   	push   %edi
10009185:	33 f6                	xor    %esi,%esi
10009187:	56                   	push   %esi
10009188:	50                   	push   %eax
10009189:	e8 81 b9 ff ff       	call   0x10004b0f
1000918e:	57                   	push   %edi
1000918f:	33 db                	xor    %ebx,%ebx
10009191:	89 b5 3c ff ff ff    	mov    %esi,-0xc4(%ebp)
10009197:	8d 85 40 ff ff ff    	lea    -0xc0(%ebp),%eax
1000919d:	43                   	inc    %ebx
1000919e:	56                   	push   %esi
1000919f:	50                   	push   %eax
100091a0:	89 9d 38 ff ff ff    	mov    %ebx,-0xc8(%ebp)
100091a6:	e8 64 b9 ff ff       	call   0x10004b0f
100091ab:	57                   	push   %edi
100091ac:	8d 85 a8 fe ff ff    	lea    -0x158(%ebp),%eax
100091b2:	89 9d a0 fe ff ff    	mov    %ebx,-0x160(%ebp)
100091b8:	56                   	push   %esi
100091b9:	50                   	push   %eax
100091ba:	89 b5 a4 fe ff ff    	mov    %esi,-0x15c(%ebp)
100091c0:	e8 4a b9 ff ff       	call   0x10004b0f
100091c5:	83 c7 08             	add    $0x8,%edi
100091c8:	8d 85 40 fc ff ff    	lea    -0x3c0(%ebp),%eax
100091ce:	57                   	push   %edi
100091cf:	56                   	push   %esi
100091d0:	50                   	push   %eax
100091d1:	e8 39 b9 ff ff       	call   0x10004b0f
100091d6:	8d 85 d8 fc ff ff    	lea    -0x328(%ebp),%eax
100091dc:	89 45 e4             	mov    %eax,-0x1c(%ebp)
100091df:	8d b5 a0 fe ff ff    	lea    -0x160(%ebp),%esi
100091e5:	8d 85 38 ff ff ff    	lea    -0xc8(%ebp),%eax
100091eb:	89 75 dc             	mov    %esi,-0x24(%ebp)
100091ee:	89 45 ec             	mov    %eax,-0x14(%ebp)
100091f1:	33 f6                	xor    %esi,%esi
100091f3:	8d 85 40 fc ff ff    	lea    -0x3c0(%ebp),%eax
100091f9:	57                   	push   %edi
100091fa:	89 45 f4             	mov    %eax,-0xc(%ebp)
100091fd:	8d 85 a8 fb ff ff    	lea    -0x458(%ebp),%eax
10009203:	56                   	push   %esi
10009204:	50                   	push   %eax
10009205:	e8 05 b9 ff ff       	call   0x10004b0f
1000920a:	68 90 00 00 00       	push   $0x90
1000920f:	8d 85 10 fe ff ff    	lea    -0x1f0(%ebp),%eax
10009215:	89 9d 08 fe ff ff    	mov    %ebx,-0x1f8(%ebp)
1000921b:	56                   	push   %esi
1000921c:	50                   	push   %eax
1000921d:	89 b5 0c fe ff ff    	mov    %esi,-0x1f4(%ebp)
10009223:	e8 e7 b8 ff ff       	call   0x10004b0f
10009228:	83 c4 48             	add    $0x48,%esp
1000922b:	8d 85 10 fb ff ff    	lea    -0x4f0(%ebp),%eax
10009231:	57                   	push   %edi
10009232:	56                   	push   %esi
10009233:	50                   	push   %eax
10009234:	e8 d6 b8 ff ff       	call   0x10004b0f
10009239:	68 90 00 00 00       	push   $0x90
1000923e:	8d 85 78 fd ff ff    	lea    -0x288(%ebp),%eax
10009244:	89 9d 70 fd ff ff    	mov    %ebx,-0x290(%ebp)
1000924a:	56                   	push   %esi
1000924b:	50                   	push   %eax
1000924c:	89 b5 74 fd ff ff    	mov    %esi,-0x28c(%ebp)
10009252:	e8 b8 b8 ff ff       	call   0x10004b0f
10009257:	8b 75 14             	mov    0x14(%ebp),%esi
1000925a:	8d 85 a8 fb ff ff    	lea    -0x458(%ebp),%eax
10009260:	89 45 f0             	mov    %eax,-0x10(%ebp)
10009263:	8d bd d8 fc ff ff    	lea    -0x328(%ebp),%edi
10009269:	83 c4 18             	add    $0x18,%esp
1000926c:	8d 85 08 fe ff ff    	lea    -0x1f8(%ebp),%eax
10009272:	89 45 e0             	mov    %eax,-0x20(%ebp)
10009275:	8d 85 10 fb ff ff    	lea    -0x4f0(%ebp),%eax
1000927b:	89 45 f8             	mov    %eax,-0x8(%ebp)
1000927e:	8d 85 70 fd ff ff    	lea    -0x290(%ebp),%eax
10009284:	89 45 e8             	mov    %eax,-0x18(%ebp)
10009287:	8b 45 10             	mov    0x10(%ebp),%eax
1000928a:	6a 14                	push   $0x14
1000928c:	59                   	pop    %ecx
1000928d:	f3 a5                	rep movsl %ds:(%esi),%es:(%edi)
1000928f:	8d 58 1f             	lea    0x1f(%eax),%ebx
10009292:	c7 45 d0 20 00 00 00 	movl   $0x20,-0x30(%ebp)
10009299:	89 5d d4             	mov    %ebx,-0x2c(%ebp)
1000929c:	8d 8d d8 fc ff ff    	lea    -0x328(%ebp),%ecx
100092a2:	8a 03                	mov    (%ebx),%al
100092a4:	8b 5d dc             	mov    -0x24(%ebp),%ebx
100092a7:	88 45 ff             	mov    %al,-0x1(%ebp)
100092aa:	c7 45 d8 08 00 00 00 	movl   $0x8,-0x28(%ebp)
100092b1:	c0 e8 07             	shr    $0x7,%al
100092b4:	0f b6 c0             	movzbl %al,%eax
100092b7:	99                   	cltd   
100092b8:	8b f2                	mov    %edx,%esi
100092ba:	8b f8                	mov    %eax,%edi
100092bc:	56                   	push   %esi
100092bd:	57                   	push   %edi
100092be:	51                   	push   %ecx
100092bf:	53                   	push   %ebx
100092c0:	e8 ba 18 00 00       	call   0x1000ab7f
100092c5:	56                   	push   %esi
100092c6:	57                   	push   %edi
100092c7:	ff 75 ec             	pushl  -0x14(%ebp)
100092ca:	ff 75 f4             	pushl  -0xc(%ebp)
100092cd:	e8 ad 18 00 00       	call   0x1000ab7f
100092d2:	ff 75 14             	pushl  0x14(%ebp)
100092d5:	ff 75 ec             	pushl  -0x14(%ebp)
100092d8:	ff 75 e4             	pushl  -0x1c(%ebp)
100092db:	ff 75 f4             	pushl  -0xc(%ebp)
100092de:	53                   	push   %ebx
100092df:	ff 75 e0             	pushl  -0x20(%ebp)
100092e2:	ff 75 f0             	pushl  -0x10(%ebp)
100092e5:	ff 75 e8             	pushl  -0x18(%ebp)
100092e8:	ff 75 f8             	pushl  -0x8(%ebp)
100092eb:	e8 8b 0a 00 00       	call   0x10009d7b
100092f0:	83 c4 44             	add    $0x44,%esp
100092f3:	56                   	push   %esi
100092f4:	57                   	push   %edi
100092f5:	ff 75 f0             	pushl  -0x10(%ebp)
100092f8:	ff 75 f8             	pushl  -0x8(%ebp)
100092fb:	e8 7f 18 00 00       	call   0x1000ab7f
10009300:	56                   	push   %esi
10009301:	8b 75 e0             	mov    -0x20(%ebp),%esi
10009304:	57                   	push   %edi
10009305:	8b 7d e8             	mov    -0x18(%ebp),%edi
10009308:	56                   	push   %esi
10009309:	57                   	push   %edi
1000930a:	e8 70 18 00 00       	call   0x1000ab7f
1000930f:	8b 4d f0             	mov    -0x10(%ebp),%ecx
10009312:	8b c3                	mov    %ebx,%eax
10009314:	8b 5d f8             	mov    -0x8(%ebp),%ebx
10009317:	83 c4 20             	add    $0x20,%esp
1000931a:	89 45 f8             	mov    %eax,-0x8(%ebp)
1000931d:	8b d7                	mov    %edi,%edx
1000931f:	8b 45 f4             	mov    -0xc(%ebp),%eax
10009322:	89 45 e8             	mov    %eax,-0x18(%ebp)
10009325:	8b 45 e4             	mov    -0x1c(%ebp),%eax
10009328:	89 45 f0             	mov    %eax,-0x10(%ebp)
1000932b:	8b 45 ec             	mov    -0x14(%ebp),%eax
1000932e:	89 45 e0             	mov    %eax,-0x20(%ebp)
10009331:	8a 45 ff             	mov    -0x1(%ebp),%al
10009334:	02 c0                	add    %al,%al
10009336:	89 55 f4             	mov    %edx,-0xc(%ebp)
10009339:	83 6d d8 01          	subl   $0x1,-0x28(%ebp)
1000933d:	89 4d e4             	mov    %ecx,-0x1c(%ebp)
10009340:	89 75 ec             	mov    %esi,-0x14(%ebp)
10009343:	88 45 ff             	mov    %al,-0x1(%ebp)
10009346:	0f 85 65 ff ff ff    	jne    0x100092b1
1000934c:	89 5d dc             	mov    %ebx,-0x24(%ebp)
1000934f:	8b 5d d4             	mov    -0x2c(%ebp),%ebx
10009352:	4b                   	dec    %ebx
10009353:	83 6d d0 01          	subl   $0x1,-0x30(%ebp)
10009357:	89 5d d4             	mov    %ebx,-0x2c(%ebp)
1000935a:	0f 85 42 ff ff ff    	jne    0x100092a2
10009360:	8b 75 dc             	mov    -0x24(%ebp),%esi
10009363:	8b 7d 08             	mov    0x8(%ebp),%edi
10009366:	6a 14                	push   $0x14
10009368:	59                   	pop    %ecx
10009369:	f3 a5                	rep movsl %ds:(%esi),%es:(%edi)
1000936b:	8b 7d 0c             	mov    0xc(%ebp),%edi
1000936e:	8b f2                	mov    %edx,%esi
10009370:	6a 14                	push   $0x14
10009372:	59                   	pop    %ecx
10009373:	f3 a5                	rep movsl %ds:(%esi),%es:(%edi)
10009375:	5f                   	pop    %edi
10009376:	5e                   	pop    %esi
10009377:	5b                   	pop    %ebx
10009378:	8b e5                	mov    %ebp,%esp
1000937a:	5d                   	pop    %ebp
1000937b:	c3                   	ret    
1000937c:	55                   	push   %ebp
1000937d:	8b ec                	mov    %esp,%ebp
1000937f:	81 ec 90 01 00 00    	sub    $0x190,%esp
10009385:	8d 85 10 ff ff ff    	lea    -0xf0(%ebp),%eax
1000938b:	56                   	push   %esi
1000938c:	57                   	push   %edi
1000938d:	ff 75 0c             	pushl  0xc(%ebp)
10009390:	50                   	push   %eax
10009391:	e8 09 14 00 00       	call   0x1000a79f
10009396:	8d 85 10 ff ff ff    	lea    -0xf0(%ebp),%eax
1000939c:	50                   	push   %eax
1000939d:	8d 85 60 ff ff ff    	lea    -0xa0(%ebp),%eax
100093a3:	50                   	push   %eax
100093a4:	e8 f6 13 00 00       	call   0x1000a79f
100093a9:	8d 85 60 ff ff ff    	lea    -0xa0(%ebp),%eax
100093af:	50                   	push   %eax
100093b0:	8d 45 b0             	lea    -0x50(%ebp),%eax
100093b3:	50                   	push   %eax
100093b4:	e8 e6 13 00 00       	call   0x1000a79f
100093b9:	ff 75 0c             	pushl  0xc(%ebp)
100093bc:	8d 45 b0             	lea    -0x50(%ebp),%eax
100093bf:	50                   	push   %eax
100093c0:	8d 85 c0 fe ff ff    	lea    -0x140(%ebp),%eax
100093c6:	50                   	push   %eax
100093c7:	e8 f5 0b 00 00       	call   0x10009fc1
100093cc:	8d 85 10 ff ff ff    	lea    -0xf0(%ebp),%eax
100093d2:	50                   	push   %eax
100093d3:	8d 85 c0 fe ff ff    	lea    -0x140(%ebp),%eax
100093d9:	50                   	push   %eax
100093da:	8d 85 70 fe ff ff    	lea    -0x190(%ebp),%eax
100093e0:	50                   	push   %eax
100093e1:	e8 db 0b 00 00       	call   0x10009fc1
100093e6:	8d 85 70 fe ff ff    	lea    -0x190(%ebp),%eax
100093ec:	50                   	push   %eax
100093ed:	8d 45 b0             	lea    -0x50(%ebp),%eax
100093f0:	50                   	push   %eax
100093f1:	e8 a9 13 00 00       	call   0x1000a79f
100093f6:	8d 85 c0 fe ff ff    	lea    -0x140(%ebp),%eax
100093fc:	50                   	push   %eax
100093fd:	8d 45 b0             	lea    -0x50(%ebp),%eax
10009400:	50                   	push   %eax
10009401:	8d 85 10 ff ff ff    	lea    -0xf0(%ebp),%eax
10009407:	50                   	push   %eax
10009408:	e8 b4 0b 00 00       	call   0x10009fc1
1000940d:	83 c4 44             	add    $0x44,%esp
10009410:	8d 85 10 ff ff ff    	lea    -0xf0(%ebp),%eax
10009416:	50                   	push   %eax
10009417:	8d 45 b0             	lea    -0x50(%ebp),%eax
1000941a:	50                   	push   %eax
1000941b:	e8 7f 13 00 00       	call   0x1000a79f
10009420:	8d 45 b0             	lea    -0x50(%ebp),%eax
10009423:	50                   	push   %eax
10009424:	8d 85 60 ff ff ff    	lea    -0xa0(%ebp),%eax
1000942a:	50                   	push   %eax
1000942b:	e8 6f 13 00 00       	call   0x1000a79f
10009430:	8d 85 60 ff ff ff    	lea    -0xa0(%ebp),%eax
10009436:	50                   	push   %eax
10009437:	8d 45 b0             	lea    -0x50(%ebp),%eax
1000943a:	50                   	push   %eax
1000943b:	e8 5f 13 00 00       	call   0x1000a79f
10009440:	8d 45 b0             	lea    -0x50(%ebp),%eax
10009443:	50                   	push   %eax
10009444:	8d 85 60 ff ff ff    	lea    -0xa0(%ebp),%eax
1000944a:	50                   	push   %eax
1000944b:	e8 4f 13 00 00       	call   0x1000a79f
10009450:	8d 85 60 ff ff ff    	lea    -0xa0(%ebp),%eax
10009456:	50                   	push   %eax
10009457:	8d 45 b0             	lea    -0x50(%ebp),%eax
1000945a:	50                   	push   %eax
1000945b:	e8 3f 13 00 00       	call   0x1000a79f
10009460:	8d 85 10 ff ff ff    	lea    -0xf0(%ebp),%eax
10009466:	50                   	push   %eax
10009467:	8d 45 b0             	lea    -0x50(%ebp),%eax
1000946a:	50                   	push   %eax
1000946b:	8d 85 c0 fe ff ff    	lea    -0x140(%ebp),%eax
10009471:	50                   	push   %eax
10009472:	e8 4a 0b 00 00       	call   0x10009fc1
10009477:	8d 85 c0 fe ff ff    	lea    -0x140(%ebp),%eax
1000947d:	50                   	push   %eax
1000947e:	8d 45 b0             	lea    -0x50(%ebp),%eax
10009481:	50                   	push   %eax
10009482:	e8 18 13 00 00       	call   0x1000a79f
10009487:	8d 45 b0             	lea    -0x50(%ebp),%eax
1000948a:	50                   	push   %eax
1000948b:	8d 85 60 ff ff ff    	lea    -0xa0(%ebp),%eax
10009491:	50                   	push   %eax
10009492:	e8 08 13 00 00       	call   0x1000a79f
10009497:	83 c4 44             	add    $0x44,%esp
1000949a:	6a 04                	push   $0x4
1000949c:	5f                   	pop    %edi
1000949d:	8b f7                	mov    %edi,%esi
1000949f:	8d 85 60 ff ff ff    	lea    -0xa0(%ebp),%eax
100094a5:	50                   	push   %eax
100094a6:	8d 45 b0             	lea    -0x50(%ebp),%eax
100094a9:	50                   	push   %eax
100094aa:	e8 f0 12 00 00       	call   0x1000a79f
100094af:	8d 45 b0             	lea    -0x50(%ebp),%eax
100094b2:	50                   	push   %eax
100094b3:	8d 85 60 ff ff ff    	lea    -0xa0(%ebp),%eax
100094b9:	50                   	push   %eax
100094ba:	e8 e0 12 00 00       	call   0x1000a79f
100094bf:	83 c4 10             	add    $0x10,%esp
100094c2:	83 ee 01             	sub    $0x1,%esi
100094c5:	75 d8                	jne    0x1000949f
100094c7:	8d 85 c0 fe ff ff    	lea    -0x140(%ebp),%eax
100094cd:	50                   	push   %eax
100094ce:	8d 85 60 ff ff ff    	lea    -0xa0(%ebp),%eax
100094d4:	50                   	push   %eax
100094d5:	8d 85 10 ff ff ff    	lea    -0xf0(%ebp),%eax
100094db:	50                   	push   %eax
100094dc:	e8 e0 0a 00 00       	call   0x10009fc1
100094e1:	8d 85 10 ff ff ff    	lea    -0xf0(%ebp),%eax
100094e7:	50                   	push   %eax
100094e8:	8d 45 b0             	lea    -0x50(%ebp),%eax
100094eb:	50                   	push   %eax
100094ec:	e8 ae 12 00 00       	call   0x1000a79f
100094f1:	8d 45 b0             	lea    -0x50(%ebp),%eax
100094f4:	50                   	push   %eax
100094f5:	8d 85 60 ff ff ff    	lea    -0xa0(%ebp),%eax
100094fb:	50                   	push   %eax
100094fc:	e8 9e 12 00 00       	call   0x1000a79f
10009501:	83 c4 1c             	add    $0x1c,%esp
10009504:	6a 09                	push   $0x9
10009506:	5e                   	pop    %esi
10009507:	8d 85 60 ff ff ff    	lea    -0xa0(%ebp),%eax
1000950d:	50                   	push   %eax
1000950e:	8d 45 b0             	lea    -0x50(%ebp),%eax
10009511:	50                   	push   %eax
10009512:	e8 88 12 00 00       	call   0x1000a79f
10009517:	8d 45 b0             	lea    -0x50(%ebp),%eax
1000951a:	50                   	push   %eax
1000951b:	8d 85 60 ff ff ff    	lea    -0xa0(%ebp),%eax
10009521:	50                   	push   %eax
10009522:	e8 78 12 00 00       	call   0x1000a79f
10009527:	83 c4 10             	add    $0x10,%esp
1000952a:	83 ee 01             	sub    $0x1,%esi
1000952d:	75 d8                	jne    0x10009507
1000952f:	8d 85 10 ff ff ff    	lea    -0xf0(%ebp),%eax
10009535:	50                   	push   %eax
10009536:	8d 85 60 ff ff ff    	lea    -0xa0(%ebp),%eax
1000953c:	50                   	push   %eax
1000953d:	8d 45 b0             	lea    -0x50(%ebp),%eax
10009540:	50                   	push   %eax
10009541:	e8 7b 0a 00 00       	call   0x10009fc1
10009546:	8d 45 b0             	lea    -0x50(%ebp),%eax
10009549:	50                   	push   %eax
1000954a:	8d 85 60 ff ff ff    	lea    -0xa0(%ebp),%eax
10009550:	50                   	push   %eax
10009551:	e8 49 12 00 00       	call   0x1000a79f
10009556:	8d 85 60 ff ff ff    	lea    -0xa0(%ebp),%eax
1000955c:	50                   	push   %eax
1000955d:	8d 45 b0             	lea    -0x50(%ebp),%eax
10009560:	50                   	push   %eax
10009561:	e8 39 12 00 00       	call   0x1000a79f
10009566:	83 c4 1c             	add    $0x1c,%esp
10009569:	8d 45 b0             	lea    -0x50(%ebp),%eax
1000956c:	50                   	push   %eax
1000956d:	8d 85 60 ff ff ff    	lea    -0xa0(%ebp),%eax
10009573:	50                   	push   %eax
10009574:	e8 26 12 00 00       	call   0x1000a79f
10009579:	8d 85 60 ff ff ff    	lea    -0xa0(%ebp),%eax
1000957f:	50                   	push   %eax
10009580:	8d 45 b0             	lea    -0x50(%ebp),%eax
10009583:	50                   	push   %eax
10009584:	e8 16 12 00 00       	call   0x1000a79f
10009589:	83 c4 10             	add    $0x10,%esp
1000958c:	83 ef 01             	sub    $0x1,%edi
1000958f:	75 d8                	jne    0x10009569
10009591:	8d 85 c0 fe ff ff    	lea    -0x140(%ebp),%eax
10009597:	50                   	push   %eax
10009598:	8d 45 b0             	lea    -0x50(%ebp),%eax
1000959b:	50                   	push   %eax
1000959c:	8d 85 10 ff ff ff    	lea    -0xf0(%ebp),%eax
100095a2:	50                   	push   %eax
100095a3:	e8 19 0a 00 00       	call   0x10009fc1
100095a8:	8d 85 10 ff ff ff    	lea    -0xf0(%ebp),%eax
100095ae:	50                   	push   %eax
100095af:	8d 45 b0             	lea    -0x50(%ebp),%eax
100095b2:	50                   	push   %eax
100095b3:	e8 e7 11 00 00       	call   0x1000a79f
100095b8:	8d 45 b0             	lea    -0x50(%ebp),%eax
100095bb:	50                   	push   %eax
100095bc:	8d 85 60 ff ff ff    	lea    -0xa0(%ebp),%eax
100095c2:	50                   	push   %eax
100095c3:	e8 d7 11 00 00       	call   0x1000a79f
100095c8:	83 c4 1c             	add    $0x1c,%esp
100095cb:	6a 18                	push   $0x18
100095cd:	5e                   	pop    %esi
100095ce:	8b fe                	mov    %esi,%edi
100095d0:	8d 85 60 ff ff ff    	lea    -0xa0(%ebp),%eax
100095d6:	50                   	push   %eax
100095d7:	8d 45 b0             	lea    -0x50(%ebp),%eax
100095da:	50                   	push   %eax
100095db:	e8 bf 11 00 00       	call   0x1000a79f
100095e0:	8d 45 b0             	lea    -0x50(%ebp),%eax
100095e3:	50                   	push   %eax
100095e4:	8d 85 60 ff ff ff    	lea    -0xa0(%ebp),%eax
100095ea:	50                   	push   %eax
100095eb:	e8 af 11 00 00       	call   0x1000a79f
100095f0:	83 c4 10             	add    $0x10,%esp
100095f3:	83 ef 01             	sub    $0x1,%edi
100095f6:	75 d8                	jne    0x100095d0
100095f8:	8d 85 10 ff ff ff    	lea    -0xf0(%ebp),%eax
100095fe:	50                   	push   %eax
100095ff:	8d 85 60 ff ff ff    	lea    -0xa0(%ebp),%eax
10009605:	50                   	push   %eax
10009606:	8d 85 c0 fe ff ff    	lea    -0x140(%ebp),%eax
1000960c:	50                   	push   %eax
1000960d:	e8 af 09 00 00       	call   0x10009fc1
10009612:	8d 85 c0 fe ff ff    	lea    -0x140(%ebp),%eax
10009618:	50                   	push   %eax
10009619:	8d 85 60 ff ff ff    	lea    -0xa0(%ebp),%eax
1000961f:	50                   	push   %eax
10009620:	e8 7a 11 00 00       	call   0x1000a79f
10009625:	8d 85 60 ff ff ff    	lea    -0xa0(%ebp),%eax
1000962b:	50                   	push   %eax
1000962c:	8d 45 b0             	lea    -0x50(%ebp),%eax
1000962f:	50                   	push   %eax
10009630:	e8 6a 11 00 00       	call   0x1000a79f
10009635:	83 c4 1c             	add    $0x1c,%esp
10009638:	6a 31                	push   $0x31
1000963a:	5f                   	pop    %edi
1000963b:	8d 45 b0             	lea    -0x50(%ebp),%eax
1000963e:	50                   	push   %eax
1000963f:	8d 85 60 ff ff ff    	lea    -0xa0(%ebp),%eax
10009645:	50                   	push   %eax
10009646:	e8 54 11 00 00       	call   0x1000a79f
1000964b:	8d 85 60 ff ff ff    	lea    -0xa0(%ebp),%eax
10009651:	50                   	push   %eax
10009652:	8d 45 b0             	lea    -0x50(%ebp),%eax
10009655:	50                   	push   %eax
10009656:	e8 44 11 00 00       	call   0x1000a79f
1000965b:	83 c4 10             	add    $0x10,%esp
1000965e:	83 ef 01             	sub    $0x1,%edi
10009661:	75 d8                	jne    0x1000963b
10009663:	8d 85 c0 fe ff ff    	lea    -0x140(%ebp),%eax
10009669:	50                   	push   %eax
1000966a:	8d 45 b0             	lea    -0x50(%ebp),%eax
1000966d:	50                   	push   %eax
1000966e:	8d 85 60 ff ff ff    	lea    -0xa0(%ebp),%eax
10009674:	50                   	push   %eax
10009675:	e8 47 09 00 00       	call   0x10009fc1
1000967a:	8d 85 60 ff ff ff    	lea    -0xa0(%ebp),%eax
10009680:	50                   	push   %eax
10009681:	8d 45 b0             	lea    -0x50(%ebp),%eax
10009684:	50                   	push   %eax
10009685:	e8 15 11 00 00       	call   0x1000a79f
1000968a:	8d 45 b0             	lea    -0x50(%ebp),%eax
1000968d:	50                   	push   %eax
1000968e:	8d 85 60 ff ff ff    	lea    -0xa0(%ebp),%eax
10009694:	50                   	push   %eax
10009695:	e8 05 11 00 00       	call   0x1000a79f
1000969a:	83 c4 1c             	add    $0x1c,%esp
1000969d:	8d 85 60 ff ff ff    	lea    -0xa0(%ebp),%eax
100096a3:	50                   	push   %eax
100096a4:	8d 45 b0             	lea    -0x50(%ebp),%eax
100096a7:	50                   	push   %eax
100096a8:	e8 f2 10 00 00       	call   0x1000a79f
100096ad:	8d 45 b0             	lea    -0x50(%ebp),%eax
100096b0:	50                   	push   %eax
100096b1:	8d 85 60 ff ff ff    	lea    -0xa0(%ebp),%eax
100096b7:	50                   	push   %eax
100096b8:	e8 e2 10 00 00       	call   0x1000a79f
100096bd:	83 c4 10             	add    $0x10,%esp
100096c0:	83 ee 01             	sub    $0x1,%esi
100096c3:	75 d8                	jne    0x1000969d
100096c5:	8d 85 10 ff ff ff    	lea    -0xf0(%ebp),%eax
100096cb:	50                   	push   %eax
100096cc:	8d 85 60 ff ff ff    	lea    -0xa0(%ebp),%eax
100096d2:	50                   	push   %eax
100096d3:	8d 45 b0             	lea    -0x50(%ebp),%eax
100096d6:	50                   	push   %eax
100096d7:	e8 e5 08 00 00       	call   0x10009fc1
100096dc:	8d 45 b0             	lea    -0x50(%ebp),%eax
100096df:	50                   	push   %eax
100096e0:	8d 85 60 ff ff ff    	lea    -0xa0(%ebp),%eax
100096e6:	50                   	push   %eax
100096e7:	e8 b3 10 00 00       	call   0x1000a79f
100096ec:	8d 85 60 ff ff ff    	lea    -0xa0(%ebp),%eax
100096f2:	50                   	push   %eax
100096f3:	8d 45 b0             	lea    -0x50(%ebp),%eax
100096f6:	50                   	push   %eax
100096f7:	e8 a3 10 00 00       	call   0x1000a79f
100096fc:	8d 45 b0             	lea    -0x50(%ebp),%eax
100096ff:	50                   	push   %eax
10009700:	8d 85 60 ff ff ff    	lea    -0xa0(%ebp),%eax
10009706:	50                   	push   %eax
10009707:	e8 93 10 00 00       	call   0x1000a79f
1000970c:	8d 85 60 ff ff ff    	lea    -0xa0(%ebp),%eax
10009712:	50                   	push   %eax
10009713:	8d 45 b0             	lea    -0x50(%ebp),%eax
10009716:	50                   	push   %eax
10009717:	e8 83 10 00 00       	call   0x1000a79f
1000971c:	8d 45 b0             	lea    -0x50(%ebp),%eax
1000971f:	50                   	push   %eax
10009720:	8d 85 60 ff ff ff    	lea    -0xa0(%ebp),%eax
10009726:	50                   	push   %eax
10009727:	e8 73 10 00 00       	call   0x1000a79f
1000972c:	8d 85 70 fe ff ff    	lea    -0x190(%ebp),%eax
10009732:	50                   	push   %eax
10009733:	8d 85 60 ff ff ff    	lea    -0xa0(%ebp),%eax
10009739:	50                   	push   %eax
1000973a:	ff 75 08             	pushl  0x8(%ebp)
1000973d:	e8 7f 08 00 00       	call   0x10009fc1
10009742:	83 c4 40             	add    $0x40,%esp
10009745:	5f                   	pop    %edi
10009746:	5e                   	pop    %esi
10009747:	8b e5                	mov    %ebp,%esp
10009749:	5d                   	pop    %ebp
1000974a:	c3                   	ret    
1000974b:	55                   	push   %ebp
1000974c:	8b ec                	mov    %esp,%ebp
1000974e:	81 ec 18 01 00 00    	sub    $0x118,%esp
10009754:	6a 20                	push   $0x20
10009756:	ff 75 0c             	pushl  0xc(%ebp)
10009759:	8d 45 e0             	lea    -0x20(%ebp),%eax
1000975c:	50                   	push   %eax
1000975d:	e8 88 b3 ff ff       	call   0x10004aea
10009762:	8a 45 ff             	mov    -0x1(%ebp),%al
10009765:	ff 75 10             	pushl  0x10(%ebp)
10009768:	80 65 e0 f8          	andb   $0xf8,-0x20(%ebp)
1000976c:	24 3f                	and    $0x3f,%al
1000976e:	0c 40                	or     $0x40,%al
10009770:	88 45 ff             	mov    %al,-0x1(%ebp)
10009773:	8d 45 90             	lea    -0x70(%ebp),%eax
10009776:	50                   	push   %eax
10009777:	e8 2b 03 00 00       	call   0x10009aa7
1000977c:	8d 45 90             	lea    -0x70(%ebp),%eax
1000977f:	50                   	push   %eax
10009780:	8d 45 e0             	lea    -0x20(%ebp),%eax
10009783:	50                   	push   %eax
10009784:	8d 85 38 ff ff ff    	lea    -0xc8(%ebp),%eax
1000978a:	50                   	push   %eax
1000978b:	8d 85 e8 fe ff ff    	lea    -0x118(%ebp),%eax
10009791:	50                   	push   %eax
10009792:	e8 d6 f9 ff ff       	call   0x1000916d
10009797:	8d 85 38 ff ff ff    	lea    -0xc8(%ebp),%eax
1000979d:	50                   	push   %eax
1000979e:	8d 45 90             	lea    -0x70(%ebp),%eax
100097a1:	50                   	push   %eax
100097a2:	e8 d5 fb ff ff       	call   0x1000937c
100097a7:	8d 45 90             	lea    -0x70(%ebp),%eax
100097aa:	50                   	push   %eax
100097ab:	8d 85 e8 fe ff ff    	lea    -0x118(%ebp),%eax
100097b1:	50                   	push   %eax
100097b2:	8d 85 38 ff ff ff    	lea    -0xc8(%ebp),%eax
100097b8:	50                   	push   %eax
100097b9:	e8 03 08 00 00       	call   0x10009fc1
100097be:	8d 85 38 ff ff ff    	lea    -0xc8(%ebp),%eax
100097c4:	50                   	push   %eax
100097c5:	ff 75 08             	pushl  0x8(%ebp)
100097c8:	e8 09 00 00 00       	call   0x100097d6
100097cd:	83 c4 40             	add    $0x40,%esp
100097d0:	33 c0                	xor    %eax,%eax
100097d2:	8b e5                	mov    %ebp,%esp
100097d4:	5d                   	pop    %ebp
100097d5:	c3                   	ret    
100097d6:	55                   	push   %ebp
100097d7:	8b ec                	mov    %esp,%ebp
100097d9:	8b 55 0c             	mov    0xc(%ebp),%edx
100097dc:	83 ec 40             	sub    $0x40,%esp
100097df:	33 c9                	xor    %ecx,%ecx
100097e1:	8b 04 ca             	mov    (%edx,%ecx,8),%eax
100097e4:	89 44 8d c0          	mov    %eax,-0x40(%ebp,%ecx,4)
100097e8:	41                   	inc    %ecx
100097e9:	83 f9 0a             	cmp    $0xa,%ecx
100097ec:	7c f3                	jl     0x100097e1
100097ee:	53                   	push   %ebx
100097ef:	56                   	push   %esi
100097f0:	57                   	push   %edi
100097f1:	6a 02                	push   $0x2
100097f3:	5f                   	pop    %edi
100097f4:	8b f7                	mov    %edi,%esi
100097f6:	33 db                	xor    %ebx,%ebx
100097f8:	8b 4c 9d c0          	mov    -0x40(%ebp,%ebx,4),%ecx
100097fc:	8b d1                	mov    %ecx,%edx
100097fe:	c1 fa 1f             	sar    $0x1f,%edx
10009801:	8b c1                	mov    %ecx,%eax
10009803:	f6 c3 01             	test   $0x1,%bl
10009806:	74 0e                	je     0x10009816
10009808:	c1 f8 19             	sar    $0x19,%eax
1000980b:	23 d0                	and    %eax,%edx
1000980d:	f7 da                	neg    %edx
1000980f:	8b c2                	mov    %edx,%eax
10009811:	c1 e0 19             	shl    $0x19,%eax
10009814:	eb 0c                	jmp    0x10009822
10009816:	c1 f8 1a             	sar    $0x1a,%eax
10009819:	23 d0                	and    %eax,%edx
1000981b:	f7 da                	neg    %edx
1000981d:	8b c2                	mov    %edx,%eax
1000981f:	c1 e0 1a             	shl    $0x1a,%eax
10009822:	29 54 9d c4          	sub    %edx,-0x3c(%ebp,%ebx,4)
10009826:	03 c1                	add    %ecx,%eax
10009828:	89 44 9d c0          	mov    %eax,-0x40(%ebp,%ebx,4)
1000982c:	43                   	inc    %ebx
1000982d:	83 fb 09             	cmp    $0x9,%ebx
10009830:	7c c6                	jl     0x100097f8
10009832:	8b 4d e4             	mov    -0x1c(%ebp),%ecx
10009835:	8b d1                	mov    %ecx,%edx
10009837:	c1 fa 1f             	sar    $0x1f,%edx
1000983a:	8b c1                	mov    %ecx,%eax
1000983c:	c1 f8 19             	sar    $0x19,%eax
1000983f:	23 d0                	and    %eax,%edx
10009841:	f7 da                	neg    %edx
10009843:	8b c2                	mov    %edx,%eax
10009845:	c1 e0 19             	shl    $0x19,%eax
10009848:	03 c8                	add    %eax,%ecx
1000984a:	6b c2 ed             	imul   $0xffffffed,%edx,%eax
1000984d:	8b 55 c0             	mov    -0x40(%ebp),%edx
10009850:	89 4d e4             	mov    %ecx,-0x1c(%ebp)
10009853:	03 d0                	add    %eax,%edx
10009855:	89 55 c0             	mov    %edx,-0x40(%ebp)
10009858:	83 ee 01             	sub    $0x1,%esi
1000985b:	75 99                	jne    0x100097f6
1000985d:	8b ca                	mov    %edx,%ecx
1000985f:	8b c2                	mov    %edx,%eax
10009861:	c1 f8 1a             	sar    $0x1a,%eax
10009864:	bb ff ff ff 01       	mov    $0x1ffffff,%ebx
10009869:	c1 f9 1f             	sar    $0x1f,%ecx
1000986c:	23 c8                	and    %eax,%ecx
1000986e:	f7 d9                	neg    %ecx
10009870:	8b c1                	mov    %ecx,%eax
10009872:	c1 e0 1a             	shl    $0x1a,%eax
10009875:	03 d0                	add    %eax,%edx
10009877:	29 4d c4             	sub    %ecx,-0x3c(%ebp)
1000987a:	89 55 c0             	mov    %edx,-0x40(%ebp)
1000987d:	33 d2                	xor    %edx,%edx
1000987f:	8b 44 95 c0          	mov    -0x40(%ebp,%edx,4),%eax
10009883:	8b c8                	mov    %eax,%ecx
10009885:	f6 c2 01             	test   $0x1,%dl
10009888:	74 07                	je     0x10009891
1000988a:	c1 f9 19             	sar    $0x19,%ecx
1000988d:	23 c3                	and    %ebx,%eax
1000988f:	eb 08                	jmp    0x10009899
10009891:	c1 f9 1a             	sar    $0x1a,%ecx
10009894:	25 ff ff ff 03       	and    $0x3ffffff,%eax
10009899:	01 4c 95 c4          	add    %ecx,-0x3c(%ebp,%edx,4)
1000989d:	89 44 95 c0          	mov    %eax,-0x40(%ebp,%edx,4)
100098a1:	42                   	inc    %edx
100098a2:	83 fa 09             	cmp    $0x9,%edx
100098a5:	7c d8                	jl     0x1000987f
100098a7:	8b 45 e4             	mov    -0x1c(%ebp),%eax
100098aa:	8b c8                	mov    %eax,%ecx
100098ac:	8b 75 c0             	mov    -0x40(%ebp),%esi
100098af:	23 c3                	and    %ebx,%eax
100098b1:	c1 f9 19             	sar    $0x19,%ecx
100098b4:	89 45 e4             	mov    %eax,-0x1c(%ebp)
100098b7:	6b c1 13             	imul   $0x13,%ecx,%eax
100098ba:	03 f0                	add    %eax,%esi
100098bc:	89 75 c0             	mov    %esi,-0x40(%ebp)
100098bf:	83 ef 01             	sub    $0x1,%edi
100098c2:	75 b9                	jne    0x1000987d
100098c4:	8d 96 13 00 00 fc    	lea    -0x3ffffed(%esi),%edx
100098ca:	33 db                	xor    %ebx,%ebx
100098cc:	c1 fa 1f             	sar    $0x1f,%edx
100098cf:	bf ff ff ff 01       	mov    $0x1ffffff,%edi
100098d4:	43                   	inc    %ebx
100098d5:	f7 d2                	not    %edx
100098d7:	89 5d f8             	mov    %ebx,-0x8(%ebp)
100098da:	89 5d fc             	mov    %ebx,-0x4(%ebp)
100098dd:	f6 c3 01             	test   $0x1,%bl
100098e0:	74 03                	je     0x100098e5
100098e2:	57                   	push   %edi
100098e3:	eb 05                	jmp    0x100098ea
100098e5:	68 ff ff ff 03       	push   $0x3ffffff
100098ea:	ff 74 9d c0          	pushl  -0x40(%ebp,%ebx,4)
100098ee:	e8 58 12 00 00       	call   0x1000ab4b
100098f3:	23 d0                	and    %eax,%edx
100098f5:	43                   	inc    %ebx
100098f6:	59                   	pop    %ecx
100098f7:	59                   	pop    %ecx
100098f8:	83 fb 0a             	cmp    $0xa,%ebx
100098fb:	7c e0                	jl     0x100098dd
100098fd:	8b 5d f8             	mov    -0x8(%ebp),%ebx
10009900:	8b c2                	mov    %edx,%eax
10009902:	25 ed ff ff 03       	and    $0x3ffffed,%eax
10009907:	2b f0                	sub    %eax,%esi
10009909:	89 75 c0             	mov    %esi,-0x40(%ebp)
1000990c:	8b c2                	mov    %edx,%eax
1000990e:	f6 c3 01             	test   $0x1,%bl
10009911:	74 04                	je     0x10009917
10009913:	23 c7                	and    %edi,%eax
10009915:	eb 05                	jmp    0x1000991c
10009917:	25 ff ff ff 03       	and    $0x3ffffff,%eax
1000991c:	29 44 9d c0          	sub    %eax,-0x40(%ebp,%ebx,4)
10009920:	43                   	inc    %ebx
10009921:	83 fb 0a             	cmp    $0xa,%ebx
10009924:	7c e6                	jl     0x1000990c
10009926:	8b 45 cc             	mov    -0x34(%ebp),%eax
10009929:	c1 e0 05             	shl    $0x5,%eax
1000992c:	89 45 f8             	mov    %eax,-0x8(%ebp)
1000992f:	8b 45 d0             	mov    -0x30(%ebp),%eax
10009932:	c1 e0 06             	shl    $0x6,%eax
10009935:	89 45 fc             	mov    %eax,-0x4(%ebp)
10009938:	8b 45 d8             	mov    -0x28(%ebp),%eax
1000993b:	8b 75 08             	mov    0x8(%ebp),%esi
1000993e:	03 c0                	add    %eax,%eax
10009940:	89 45 f4             	mov    %eax,-0xc(%ebp)
10009943:	8b 45 dc             	mov    -0x24(%ebp),%eax
10009946:	c1 e0 03             	shl    $0x3,%eax
10009949:	89 45 f0             	mov    %eax,-0x10(%ebp)
1000994c:	8b 45 e0             	mov    -0x20(%ebp),%eax
1000994f:	8b 4d c0             	mov    -0x40(%ebp),%ecx
10009952:	c1 e0 04             	shl    $0x4,%eax
10009955:	89 45 ec             	mov    %eax,-0x14(%ebp)
10009958:	8b 45 e4             	mov    -0x1c(%ebp),%eax
1000995b:	c1 e0 06             	shl    $0x6,%eax
1000995e:	8b 55 c4             	mov    -0x3c(%ebp),%edx
10009961:	89 45 e8             	mov    %eax,-0x18(%ebp)
10009964:	8b c1                	mov    %ecx,%eax
10009966:	c1 f8 08             	sar    $0x8,%eax
10009969:	88 46 01             	mov    %al,0x1(%esi)
1000996c:	8b c1                	mov    %ecx,%eax
1000996e:	8b 5d c8             	mov    -0x38(%ebp),%ebx
10009971:	c1 f8 10             	sar    $0x10,%eax
10009974:	88 46 02             	mov    %al,0x2(%esi)
10009977:	c1 e2 02             	shl    $0x2,%edx
1000997a:	8b c2                	mov    %edx,%eax
1000997c:	c1 e3 03             	shl    $0x3,%ebx
1000997f:	c1 f8 08             	sar    $0x8,%eax
10009982:	88 46 04             	mov    %al,0x4(%esi)
10009985:	8b c2                	mov    %edx,%eax
10009987:	c1 f8 10             	sar    $0x10,%eax
1000998a:	88 46 05             	mov    %al,0x5(%esi)
1000998d:	8b c3                	mov    %ebx,%eax
1000998f:	c1 f8 08             	sar    $0x8,%eax
10009992:	88 46 07             	mov    %al,0x7(%esi)
10009995:	8b c3                	mov    %ebx,%eax
10009997:	c1 f8 10             	sar    $0x10,%eax
1000999a:	88 0e                	mov    %cl,(%esi)
1000999c:	88 46 08             	mov    %al,0x8(%esi)
1000999f:	c1 f9 18             	sar    $0x18,%ecx
100099a2:	0a ca                	or     %dl,%cl
100099a4:	c1 fa 18             	sar    $0x18,%edx
100099a7:	88 4e 03             	mov    %cl,0x3(%esi)
100099aa:	0a d3                	or     %bl,%dl
100099ac:	8b 4d f8             	mov    -0x8(%ebp),%ecx
100099af:	8b c1                	mov    %ecx,%eax
100099b1:	c1 f8 08             	sar    $0x8,%eax
100099b4:	88 46 0a             	mov    %al,0xa(%esi)
100099b7:	8b c1                	mov    %ecx,%eax
100099b9:	c1 f8 10             	sar    $0x10,%eax
100099bc:	88 46 0b             	mov    %al,0xb(%esi)
100099bf:	88 56 06             	mov    %dl,0x6(%esi)
100099c2:	8b 55 fc             	mov    -0x4(%ebp),%edx
100099c5:	8b c2                	mov    %edx,%eax
100099c7:	c1 f8 08             	sar    $0x8,%eax
100099ca:	88 46 0d             	mov    %al,0xd(%esi)
100099cd:	8b c2                	mov    %edx,%eax
100099cf:	c1 fb 18             	sar    $0x18,%ebx
100099d2:	0a d9                	or     %cl,%bl
100099d4:	c1 f8 10             	sar    $0x10,%eax
100099d7:	c1 f9 18             	sar    $0x18,%ecx
100099da:	0a ca                	or     %dl,%cl
100099dc:	88 46 0e             	mov    %al,0xe(%esi)
100099df:	88 4e 0c             	mov    %cl,0xc(%esi)
100099e2:	8b 4d d4             	mov    -0x2c(%ebp),%ecx
100099e5:	8b c1                	mov    %ecx,%eax
100099e7:	c1 f8 08             	sar    $0x8,%eax
100099ea:	88 46 11             	mov    %al,0x11(%esi)
100099ed:	8b c1                	mov    %ecx,%eax
100099ef:	c1 fa 18             	sar    $0x18,%edx
100099f2:	c1 f8 10             	sar    $0x10,%eax
100099f5:	88 56 0f             	mov    %dl,0xf(%esi)
100099f8:	8b 55 f4             	mov    -0xc(%ebp),%edx
100099fb:	88 4e 10             	mov    %cl,0x10(%esi)
100099fe:	88 5e 09             	mov    %bl,0x9(%esi)
10009a01:	88 46 12             	mov    %al,0x12(%esi)
10009a04:	c1 f9 18             	sar    $0x18,%ecx
10009a07:	8b c2                	mov    %edx,%eax
10009a09:	0a ca                	or     %dl,%cl
10009a0b:	c1 f8 08             	sar    $0x8,%eax
10009a0e:	88 46 14             	mov    %al,0x14(%esi)
10009a11:	8b c2                	mov    %edx,%eax
10009a13:	c1 f8 10             	sar    $0x10,%eax
10009a16:	88 46 15             	mov    %al,0x15(%esi)
10009a19:	88 4e 13             	mov    %cl,0x13(%esi)
10009a1c:	8b 4d f0             	mov    -0x10(%ebp),%ecx
10009a1f:	8b c1                	mov    %ecx,%eax
10009a21:	c1 f8 08             	sar    $0x8,%eax
10009a24:	88 46 17             	mov    %al,0x17(%esi)
10009a27:	8b c1                	mov    %ecx,%eax
10009a29:	c1 f8 10             	sar    $0x10,%eax
10009a2c:	c1 fa 18             	sar    $0x18,%edx
10009a2f:	0a d1                	or     %cl,%dl
10009a31:	88 46 18             	mov    %al,0x18(%esi)
10009a34:	88 56 16             	mov    %dl,0x16(%esi)
10009a37:	8b 55 ec             	mov    -0x14(%ebp),%edx
10009a3a:	8b c2                	mov    %edx,%eax
10009a3c:	c1 f8 08             	sar    $0x8,%eax
10009a3f:	88 46 1a             	mov    %al,0x1a(%esi)
10009a42:	8b c2                	mov    %edx,%eax
10009a44:	c1 f9 18             	sar    $0x18,%ecx
10009a47:	0a ca                	or     %dl,%cl
10009a49:	c1 f8 10             	sar    $0x10,%eax
10009a4c:	88 46 1b             	mov    %al,0x1b(%esi)
10009a4f:	88 4e 19             	mov    %cl,0x19(%esi)
10009a52:	8b 4d e8             	mov    -0x18(%ebp),%ecx
10009a55:	8b c1                	mov    %ecx,%eax
10009a57:	c1 f8 08             	sar    $0x8,%eax
10009a5a:	88 46 1d             	mov    %al,0x1d(%esi)
10009a5d:	8b c1                	mov    %ecx,%eax
10009a5f:	c1 fa 18             	sar    $0x18,%edx
10009a62:	0a d1                	or     %cl,%dl
10009a64:	c1 f8 10             	sar    $0x10,%eax
10009a67:	c1 f9 18             	sar    $0x18,%ecx
10009a6a:	5f                   	pop    %edi
10009a6b:	88 56 1c             	mov    %dl,0x1c(%esi)
10009a6e:	88 46 1e             	mov    %al,0x1e(%esi)
10009a71:	88 4e 1f             	mov    %cl,0x1f(%esi)
10009a74:	5e                   	pop    %esi
10009a75:	5b                   	pop    %ebx
10009a76:	8b e5                	mov    %ebp,%esp
10009a78:	5d                   	pop    %ebp
10009a79:	c3                   	ret    
10009a7a:	55                   	push   %ebp
10009a7b:	8b ec                	mov    %esp,%ebp
10009a7d:	8b 55 08             	mov    0x8(%ebp),%edx
10009a80:	56                   	push   %esi
10009a81:	8b 75 0c             	mov    0xc(%ebp),%esi
10009a84:	57                   	push   %edi
10009a85:	6a 0a                	push   $0xa
10009a87:	2b f2                	sub    %edx,%esi
10009a89:	5f                   	pop    %edi
10009a8a:	8b 0c 16             	mov    (%esi,%edx,1),%ecx
10009a8d:	2b 0a                	sub    (%edx),%ecx
10009a8f:	8b 44 16 04          	mov    0x4(%esi,%edx,1),%eax
10009a93:	1b 42 04             	sbb    0x4(%edx),%eax
10009a96:	89 0a                	mov    %ecx,(%edx)
10009a98:	8d 52 08             	lea    0x8(%edx),%edx
10009a9b:	89 42 fc             	mov    %eax,-0x4(%edx)
10009a9e:	83 ef 01             	sub    $0x1,%edi
10009aa1:	75 e7                	jne    0x10009a8a
10009aa3:	5f                   	pop    %edi
10009aa4:	5e                   	pop    %esi
10009aa5:	5d                   	pop    %ebp
10009aa6:	c3                   	ret    
10009aa7:	55                   	push   %ebp
10009aa8:	8b ec                	mov    %esp,%ebp
10009aaa:	53                   	push   %ebx
10009aab:	8b 5d 0c             	mov    0xc(%ebp),%ebx
10009aae:	56                   	push   %esi
10009aaf:	57                   	push   %edi
10009ab0:	8b 7d 08             	mov    0x8(%ebp),%edi
10009ab3:	0f b6 43 02          	movzbl 0x2(%ebx),%eax
10009ab7:	99                   	cltd   
10009ab8:	8b f0                	mov    %eax,%esi
10009aba:	8b ca                	mov    %edx,%ecx
10009abc:	0f b6 43 03          	movzbl 0x3(%ebx),%eax
10009ac0:	99                   	cltd   
10009ac1:	0f a4 c2 08          	shld   $0x8,%eax,%edx
10009ac5:	0b ca                	or     %edx,%ecx
10009ac7:	c1 e0 08             	shl    $0x8,%eax
10009aca:	0b f0                	or     %eax,%esi
10009acc:	0f b6 03             	movzbl (%ebx),%eax
10009acf:	0f a4 f1 10          	shld   $0x10,%esi,%ecx
10009ad3:	99                   	cltd   
10009ad4:	33 c9                	xor    %ecx,%ecx
10009ad6:	c1 e6 10             	shl    $0x10,%esi
10009ad9:	0b f0                	or     %eax,%esi
10009adb:	0f b6 43 01          	movzbl 0x1(%ebx),%eax
10009adf:	99                   	cltd   
10009ae0:	81 e6 ff ff ff 03    	and    $0x3ffffff,%esi
10009ae6:	0f a4 c2 08          	shld   $0x8,%eax,%edx
10009aea:	0b ca                	or     %edx,%ecx
10009aec:	c1 e0 08             	shl    $0x8,%eax
10009aef:	0b f0                	or     %eax,%esi
10009af1:	89 4f 04             	mov    %ecx,0x4(%edi)
10009af4:	89 37                	mov    %esi,(%edi)
10009af6:	8a 43 06             	mov    0x6(%ebx),%al
10009af9:	24 07                	and    $0x7,%al
10009afb:	0f b6 c0             	movzbl %al,%eax
10009afe:	99                   	cltd   
10009aff:	8b c8                	mov    %eax,%ecx
10009b01:	8b f2                	mov    %edx,%esi
10009b03:	0f b6 43 05          	movzbl 0x5(%ebx),%eax
10009b07:	0f a4 ce 08          	shld   $0x8,%ecx,%esi
10009b0b:	99                   	cltd   
10009b0c:	c1 e1 08             	shl    $0x8,%ecx
10009b0f:	0b f2                	or     %edx,%esi
10009b11:	0b c8                	or     %eax,%ecx
10009b13:	0f b6 43 04          	movzbl 0x4(%ebx),%eax
10009b17:	0f a4 ce 08          	shld   $0x8,%ecx,%esi
10009b1b:	99                   	cltd   
10009b1c:	c1 e1 08             	shl    $0x8,%ecx
10009b1f:	0b f2                	or     %edx,%esi
10009b21:	0b c8                	or     %eax,%ecx
10009b23:	8a 43 03             	mov    0x3(%ebx),%al
10009b26:	0f a4 ce 06          	shld   $0x6,%ecx,%esi
10009b2a:	c0 e8 02             	shr    $0x2,%al
10009b2d:	0f b6 c0             	movzbl %al,%eax
10009b30:	99                   	cltd   
10009b31:	c1 e1 06             	shl    $0x6,%ecx
10009b34:	0b f2                	or     %edx,%esi
10009b36:	0b c8                	or     %eax,%ecx
10009b38:	89 77 0c             	mov    %esi,0xc(%edi)
10009b3b:	89 4f 08             	mov    %ecx,0x8(%edi)
10009b3e:	8a 43 09             	mov    0x9(%ebx),%al
10009b41:	24 1f                	and    $0x1f,%al
10009b43:	0f b6 c0             	movzbl %al,%eax
10009b46:	99                   	cltd   
10009b47:	8b c8                	mov    %eax,%ecx
10009b49:	8b f2                	mov    %edx,%esi
10009b4b:	0f b6 43 08          	movzbl 0x8(%ebx),%eax
10009b4f:	0f a4 ce 08          	shld   $0x8,%ecx,%esi
10009b53:	99                   	cltd   
10009b54:	c1 e1 08             	shl    $0x8,%ecx
10009b57:	0b f2                	or     %edx,%esi
10009b59:	0b c8                	or     %eax,%ecx
10009b5b:	0f b6 43 07          	movzbl 0x7(%ebx),%eax
10009b5f:	0f a4 ce 08          	shld   $0x8,%ecx,%esi
10009b63:	99                   	cltd   
10009b64:	c1 e1 08             	shl    $0x8,%ecx
10009b67:	0b f2                	or     %edx,%esi
10009b69:	0b c8                	or     %eax,%ecx
10009b6b:	8a 43 06             	mov    0x6(%ebx),%al
10009b6e:	0f a4 ce 05          	shld   $0x5,%ecx,%esi
10009b72:	c1 e1 05             	shl    $0x5,%ecx
10009b75:	c0 e8 03             	shr    $0x3,%al
10009b78:	0f b6 c0             	movzbl %al,%eax
10009b7b:	99                   	cltd   
10009b7c:	0b c8                	or     %eax,%ecx
10009b7e:	0b f2                	or     %edx,%esi
10009b80:	89 4f 10             	mov    %ecx,0x10(%edi)
10009b83:	89 77 14             	mov    %esi,0x14(%edi)
10009b86:	8a 43 0c             	mov    0xc(%ebx),%al
10009b89:	24 3f                	and    $0x3f,%al
10009b8b:	0f b6 c0             	movzbl %al,%eax
10009b8e:	99                   	cltd   
10009b8f:	8b c8                	mov    %eax,%ecx
10009b91:	8b f2                	mov    %edx,%esi
10009b93:	0f a4 ce 08          	shld   $0x8,%ecx,%esi
10009b97:	0f b6 43 0b          	movzbl 0xb(%ebx),%eax
10009b9b:	99                   	cltd   
10009b9c:	0b f2                	or     %edx,%esi
10009b9e:	c1 e1 08             	shl    $0x8,%ecx
10009ba1:	0b c8                	or     %eax,%ecx
10009ba3:	0f b6 43 0a          	movzbl 0xa(%ebx),%eax
10009ba7:	0f a4 ce 08          	shld   $0x8,%ecx,%esi
10009bab:	99                   	cltd   
10009bac:	0b f2                	or     %edx,%esi
10009bae:	c1 e1 08             	shl    $0x8,%ecx
10009bb1:	0b c8                	or     %eax,%ecx
10009bb3:	8a 43 09             	mov    0x9(%ebx),%al
10009bb6:	0f a4 ce 03          	shld   $0x3,%ecx,%esi
10009bba:	c0 e8 05             	shr    $0x5,%al
10009bbd:	0f b6 c0             	movzbl %al,%eax
10009bc0:	99                   	cltd   
10009bc1:	0b f2                	or     %edx,%esi
10009bc3:	c1 e1 03             	shl    $0x3,%ecx
10009bc6:	0b c8                	or     %eax,%ecx
10009bc8:	89 77 1c             	mov    %esi,0x1c(%edi)
10009bcb:	89 4f 18             	mov    %ecx,0x18(%edi)
10009bce:	0f b6 43 0f          	movzbl 0xf(%ebx),%eax
10009bd2:	99                   	cltd   
10009bd3:	8b c8                	mov    %eax,%ecx
10009bd5:	8b f2                	mov    %edx,%esi
10009bd7:	0f b6 43 0e          	movzbl 0xe(%ebx),%eax
10009bdb:	0f a4 ce 08          	shld   $0x8,%ecx,%esi
10009bdf:	99                   	cltd   
10009be0:	0b f2                	or     %edx,%esi
10009be2:	c1 e1 08             	shl    $0x8,%ecx
10009be5:	0b c8                	or     %eax,%ecx
10009be7:	0f b6 43 0d          	movzbl 0xd(%ebx),%eax
10009beb:	0f a4 ce 08          	shld   $0x8,%ecx,%esi
10009bef:	99                   	cltd   
10009bf0:	0b f2                	or     %edx,%esi
10009bf2:	c1 e1 08             	shl    $0x8,%ecx
10009bf5:	0b c8                	or     %eax,%ecx
10009bf7:	8a 43 0c             	mov    0xc(%ebx),%al
10009bfa:	0f a4 ce 02          	shld   $0x2,%ecx,%esi
10009bfe:	c0 e8 06             	shr    $0x6,%al
10009c01:	0f b6 c0             	movzbl %al,%eax
10009c04:	99                   	cltd   
10009c05:	0b f2                	or     %edx,%esi
10009c07:	c1 e1 02             	shl    $0x2,%ecx
10009c0a:	0b c8                	or     %eax,%ecx
10009c0c:	89 77 24             	mov    %esi,0x24(%edi)
10009c0f:	89 4f 20             	mov    %ecx,0x20(%edi)
10009c12:	0f b6 43 13          	movzbl 0x13(%ebx),%eax
10009c16:	99                   	cltd   
10009c17:	8b f0                	mov    %eax,%esi
10009c19:	8b ca                	mov    %edx,%ecx
10009c1b:	0f b6 43 12          	movzbl 0x12(%ebx),%eax
10009c1f:	0f a4 f1 08          	shld   $0x8,%esi,%ecx
10009c23:	99                   	cltd   
10009c24:	c1 e6 08             	shl    $0x8,%esi
10009c27:	0b ca                	or     %edx,%ecx
10009c29:	0b f0                	or     %eax,%esi
10009c2b:	0f b6 43 10          	movzbl 0x10(%ebx),%eax
10009c2f:	0f a4 f1 10          	shld   $0x10,%esi,%ecx
10009c33:	99                   	cltd   
10009c34:	33 c9                	xor    %ecx,%ecx
10009c36:	c1 e6 10             	shl    $0x10,%esi
10009c39:	0b f0                	or     %eax,%esi
10009c3b:	0f b6 43 11          	movzbl 0x11(%ebx),%eax
10009c3f:	99                   	cltd   
10009c40:	81 e6 ff ff ff 01    	and    $0x1ffffff,%esi
10009c46:	0f a4 c2 08          	shld   $0x8,%eax,%edx
10009c4a:	c1 e0 08             	shl    $0x8,%eax
10009c4d:	0b f0                	or     %eax,%esi
10009c4f:	0b ca                	or     %edx,%ecx
10009c51:	89 77 28             	mov    %esi,0x28(%edi)
10009c54:	89 4f 2c             	mov    %ecx,0x2c(%edi)
10009c57:	8a 43 16             	mov    0x16(%ebx),%al
10009c5a:	24 07                	and    $0x7,%al
10009c5c:	0f b6 c0             	movzbl %al,%eax
10009c5f:	99                   	cltd   
10009c60:	8b c8                	mov    %eax,%ecx
10009c62:	8b f2                	mov    %edx,%esi
10009c64:	0f a4 ce 08          	shld   $0x8,%ecx,%esi
10009c68:	0f b6 43 15          	movzbl 0x15(%ebx),%eax
10009c6c:	99                   	cltd   
10009c6d:	c1 e1 08             	shl    $0x8,%ecx
10009c70:	0b f2                	or     %edx,%esi
10009c72:	0b c8                	or     %eax,%ecx
10009c74:	0f b6 43 14          	movzbl 0x14(%ebx),%eax
10009c78:	0f a4 ce 08          	shld   $0x8,%ecx,%esi
10009c7c:	99                   	cltd   
10009c7d:	c1 e1 08             	shl    $0x8,%ecx
10009c80:	0b f2                	or     %edx,%esi
10009c82:	0b c8                	or     %eax,%ecx
10009c84:	8a 43 13             	mov    0x13(%ebx),%al
10009c87:	0f a4 ce 07          	shld   $0x7,%ecx,%esi
10009c8b:	d0 e8                	shr    %al
10009c8d:	0f b6 c0             	movzbl %al,%eax
10009c90:	99                   	cltd   
10009c91:	c1 e1 07             	shl    $0x7,%ecx
10009c94:	0b f2                	or     %edx,%esi
10009c96:	0b c8                	or     %eax,%ecx
10009c98:	89 77 34             	mov    %esi,0x34(%edi)
10009c9b:	89 4f 30             	mov    %ecx,0x30(%edi)
10009c9e:	8a 43 19             	mov    0x19(%ebx),%al
10009ca1:	24 0f                	and    $0xf,%al
10009ca3:	0f b6 c0             	movzbl %al,%eax
10009ca6:	99                   	cltd   
10009ca7:	8b c8                	mov    %eax,%ecx
10009ca9:	8b f2                	mov    %edx,%esi
10009cab:	0f b6 43 18          	movzbl 0x18(%ebx),%eax
10009caf:	0f a4 ce 08          	shld   $0x8,%ecx,%esi
10009cb3:	99                   	cltd   
10009cb4:	c1 e1 08             	shl    $0x8,%ecx
10009cb7:	0b f2                	or     %edx,%esi
10009cb9:	0b c8                	or     %eax,%ecx
10009cbb:	0f b6 43 17          	movzbl 0x17(%ebx),%eax
10009cbf:	0f a4 ce 08          	shld   $0x8,%ecx,%esi
10009cc3:	99                   	cltd   
10009cc4:	c1 e1 08             	shl    $0x8,%ecx
10009cc7:	0b f2                	or     %edx,%esi
10009cc9:	0b c8                	or     %eax,%ecx
10009ccb:	8a 43 16             	mov    0x16(%ebx),%al
10009cce:	0f a4 ce 05          	shld   $0x5,%ecx,%esi
10009cd2:	c0 e8 03             	shr    $0x3,%al
10009cd5:	0f b6 c0             	movzbl %al,%eax
10009cd8:	99                   	cltd   
10009cd9:	c1 e1 05             	shl    $0x5,%ecx
10009cdc:	0b f2                	or     %edx,%esi
10009cde:	0b c8                	or     %eax,%ecx
10009ce0:	89 77 3c             	mov    %esi,0x3c(%edi)
10009ce3:	89 4f 38             	mov    %ecx,0x38(%edi)
10009ce6:	8a 43 1c             	mov    0x1c(%ebx),%al
10009ce9:	24 3f                	and    $0x3f,%al
10009ceb:	0f b6 c0             	movzbl %al,%eax
10009cee:	99                   	cltd   
10009cef:	8b c8                	mov    %eax,%ecx
10009cf1:	8b f2                	mov    %edx,%esi
10009cf3:	0f b6 43 1b          	movzbl 0x1b(%ebx),%eax
10009cf7:	0f a4 ce 08          	shld   $0x8,%ecx,%esi
10009cfb:	99                   	cltd   
10009cfc:	c1 e1 08             	shl    $0x8,%ecx
10009cff:	0b f2                	or     %edx,%esi
10009d01:	0b c8                	or     %eax,%ecx
10009d03:	0f b6 43 1a          	movzbl 0x1a(%ebx),%eax
10009d07:	0f a4 ce 08          	shld   $0x8,%ecx,%esi
10009d0b:	99                   	cltd   
10009d0c:	c1 e1 08             	shl    $0x8,%ecx
10009d0f:	0b f2                	or     %edx,%esi
10009d11:	0b c8                	or     %eax,%ecx
10009d13:	8a 43 19             	mov    0x19(%ebx),%al
10009d16:	0f a4 ce 04          	shld   $0x4,%ecx,%esi
10009d1a:	c1 e1 04             	shl    $0x4,%ecx
10009d1d:	c0 e8 04             	shr    $0x4,%al
10009d20:	0f b6 c0             	movzbl %al,%eax
10009d23:	99                   	cltd   
10009d24:	0b c8                	or     %eax,%ecx
10009d26:	0b f2                	or     %edx,%esi
10009d28:	89 4f 40             	mov    %ecx,0x40(%edi)
10009d2b:	89 77 44             	mov    %esi,0x44(%edi)
10009d2e:	8a 43 1f             	mov    0x1f(%ebx),%al
10009d31:	24 7f                	and    $0x7f,%al
10009d33:	0f b6 c0             	movzbl %al,%eax
10009d36:	99                   	cltd   
10009d37:	8b c8                	mov    %eax,%ecx
10009d39:	8b f2                	mov    %edx,%esi
10009d3b:	0f b6 43 1e          	movzbl 0x1e(%ebx),%eax
10009d3f:	0f a4 ce 08          	shld   $0x8,%ecx,%esi
10009d43:	99                   	cltd   
10009d44:	c1 e1 08             	shl    $0x8,%ecx
10009d47:	0b f2                	or     %edx,%esi
10009d49:	0b c8                	or     %eax,%ecx
10009d4b:	0f b6 43 1d          	movzbl 0x1d(%ebx),%eax
10009d4f:	0f a4 ce 08          	shld   $0x8,%ecx,%esi
10009d53:	99                   	cltd   
10009d54:	c1 e1 08             	shl    $0x8,%ecx
10009d57:	0b f2                	or     %edx,%esi
10009d59:	0b c8                	or     %eax,%ecx
10009d5b:	8a 43 1c             	mov    0x1c(%ebx),%al
10009d5e:	0f a4 ce 02          	shld   $0x2,%ecx,%esi
10009d62:	c0 e8 06             	shr    $0x6,%al
10009d65:	0f b6 c0             	movzbl %al,%eax
10009d68:	c1 e1 02             	shl    $0x2,%ecx
10009d6b:	99                   	cltd   
10009d6c:	0b c8                	or     %eax,%ecx
10009d6e:	0b f2                	or     %edx,%esi
10009d70:	89 77 4c             	mov    %esi,0x4c(%edi)
10009d73:	89 4f 48             	mov    %ecx,0x48(%edi)
10009d76:	5f                   	pop    %edi
10009d77:	5e                   	pop    %esi
10009d78:	5b                   	pop    %ebx
10009d79:	5d                   	pop    %ebp
10009d7a:	c3                   	ret    
10009d7b:	55                   	push   %ebp
10009d7c:	8b ec                	mov    %esp,%ebp
10009d7e:	81 ec c8 01 00 00    	sub    $0x1c8,%esp
10009d84:	56                   	push   %esi
10009d85:	8b 75 18             	mov    0x18(%ebp),%esi
10009d88:	57                   	push   %edi
10009d89:	6a 14                	push   $0x14
10009d8b:	59                   	pop    %ecx
10009d8c:	ff 75 1c             	pushl  0x1c(%ebp)
10009d8f:	8d bd 80 fe ff ff    	lea    -0x180(%ebp),%edi
10009d95:	ff 75 18             	pushl  0x18(%ebp)
10009d98:	f3 a5                	rep movsl %ds:(%esi),%es:(%edi)
10009d9a:	e8 70 0d 00 00       	call   0x1000ab0f
10009d9f:	8d 85 80 fe ff ff    	lea    -0x180(%ebp),%eax
10009da5:	50                   	push   %eax
10009da6:	ff 75 1c             	pushl  0x1c(%ebp)
10009da9:	e8 cc fc ff ff       	call   0x10009a7a
10009dae:	8b 75 20             	mov    0x20(%ebp),%esi
10009db1:	8d bd 80 fe ff ff    	lea    -0x180(%ebp),%edi
10009db7:	6a 14                	push   $0x14
10009db9:	59                   	pop    %ecx
10009dba:	ff 75 24             	pushl  0x24(%ebp)
10009dbd:	f3 a5                	rep movsl %ds:(%esi),%es:(%edi)
10009dbf:	ff 75 20             	pushl  0x20(%ebp)
10009dc2:	e8 48 0d 00 00       	call   0x1000ab0f
10009dc7:	8d 85 80 fe ff ff    	lea    -0x180(%ebp),%eax
10009dcd:	50                   	push   %eax
10009dce:	ff 75 24             	pushl  0x24(%ebp)
10009dd1:	e8 a4 fc ff ff       	call   0x10009a7a
10009dd6:	ff 75 1c             	pushl  0x1c(%ebp)
10009dd9:	8d 85 d0 fe ff ff    	lea    -0x130(%ebp),%eax
10009ddf:	ff 75 20             	pushl  0x20(%ebp)
10009de2:	50                   	push   %eax
10009de3:	e8 25 02 00 00       	call   0x1000a00d
10009de8:	ff 75 24             	pushl  0x24(%ebp)
10009deb:	8d 85 68 ff ff ff    	lea    -0x98(%ebp),%eax
10009df1:	ff 75 18             	pushl  0x18(%ebp)
10009df4:	50                   	push   %eax
10009df5:	e8 13 02 00 00       	call   0x1000a00d
10009dfa:	8d 85 d0 fe ff ff    	lea    -0x130(%ebp),%eax
10009e00:	50                   	push   %eax
10009e01:	e8 e9 07 00 00       	call   0x1000a5ef
10009e06:	8d 85 d0 fe ff ff    	lea    -0x130(%ebp),%eax
10009e0c:	50                   	push   %eax
10009e0d:	e8 c9 06 00 00       	call   0x1000a4db
10009e12:	83 c4 40             	add    $0x40,%esp
10009e15:	8d 85 68 ff ff ff    	lea    -0x98(%ebp),%eax
10009e1b:	50                   	push   %eax
10009e1c:	e8 ce 07 00 00       	call   0x1000a5ef
10009e21:	8d 85 68 ff ff ff    	lea    -0x98(%ebp),%eax
10009e27:	50                   	push   %eax
10009e28:	e8 ae 06 00 00       	call   0x1000a4db
10009e2d:	6a 14                	push   $0x14
10009e2f:	59                   	pop    %ecx
10009e30:	8d 85 68 ff ff ff    	lea    -0x98(%ebp),%eax
10009e36:	50                   	push   %eax
10009e37:	8d 85 d0 fe ff ff    	lea    -0x130(%ebp),%eax
10009e3d:	8d b5 d0 fe ff ff    	lea    -0x130(%ebp),%esi
10009e43:	8d bd 80 fe ff ff    	lea    -0x180(%ebp),%edi
10009e49:	f3 a5                	rep movsl %ds:(%esi),%es:(%edi)
10009e4b:	50                   	push   %eax
10009e4c:	e8 be 0c 00 00       	call   0x1000ab0f
10009e51:	8d 85 80 fe ff ff    	lea    -0x180(%ebp),%eax
10009e57:	50                   	push   %eax
10009e58:	8d 85 68 ff ff ff    	lea    -0x98(%ebp),%eax
10009e5e:	50                   	push   %eax
10009e5f:	e8 16 fc ff ff       	call   0x10009a7a
10009e64:	8d 85 d0 fe ff ff    	lea    -0x130(%ebp),%eax
10009e6a:	50                   	push   %eax
10009e6b:	8d 85 38 fe ff ff    	lea    -0x1c8(%ebp),%eax
10009e71:	50                   	push   %eax
10009e72:	e8 28 09 00 00       	call   0x1000a79f
10009e77:	8d 85 68 ff ff ff    	lea    -0x98(%ebp),%eax
10009e7d:	50                   	push   %eax
10009e7e:	8d 85 d0 fe ff ff    	lea    -0x130(%ebp),%eax
10009e84:	50                   	push   %eax
10009e85:	e8 15 09 00 00       	call   0x1000a79f
10009e8a:	ff 75 28             	pushl  0x28(%ebp)
10009e8d:	8d 85 d0 fe ff ff    	lea    -0x130(%ebp),%eax
10009e93:	50                   	push   %eax
10009e94:	8d 85 68 ff ff ff    	lea    -0x98(%ebp),%eax
10009e9a:	50                   	push   %eax
10009e9b:	e8 6d 01 00 00       	call   0x1000a00d
10009ea0:	8d 85 68 ff ff ff    	lea    -0x98(%ebp),%eax
10009ea6:	50                   	push   %eax
10009ea7:	e8 43 07 00 00       	call   0x1000a5ef
10009eac:	8d 85 68 ff ff ff    	lea    -0x98(%ebp),%eax
10009eb2:	50                   	push   %eax
10009eb3:	e8 23 06 00 00       	call   0x1000a4db
10009eb8:	8b 7d 10             	mov    0x10(%ebp),%edi
10009ebb:	8d b5 38 fe ff ff    	lea    -0x1c8(%ebp),%esi
10009ec1:	6a 14                	push   $0x14
10009ec3:	59                   	pop    %ecx
10009ec4:	f3 a5                	rep movsl %ds:(%esi),%es:(%edi)
10009ec6:	8b 7d 14             	mov    0x14(%ebp),%edi
10009ec9:	8d 85 38 fe ff ff    	lea    -0x1c8(%ebp),%eax
10009ecf:	6a 14                	push   $0x14
10009ed1:	59                   	pop    %ecx
10009ed2:	ff 75 18             	pushl  0x18(%ebp)
10009ed5:	8d b5 68 ff ff ff    	lea    -0x98(%ebp),%esi
10009edb:	f3 a5                	rep movsl %ds:(%esi),%es:(%edi)
10009edd:	50                   	push   %eax
10009ede:	e8 bc 08 00 00       	call   0x1000a79f
10009ee3:	83 c4 44             	add    $0x44,%esp
10009ee6:	8d 85 68 ff ff ff    	lea    -0x98(%ebp),%eax
10009eec:	ff 75 1c             	pushl  0x1c(%ebp)
10009eef:	50                   	push   %eax
10009ef0:	e8 aa 08 00 00       	call   0x1000a79f
10009ef5:	8d 85 68 ff ff ff    	lea    -0x98(%ebp),%eax
10009efb:	50                   	push   %eax
10009efc:	8d 85 38 fe ff ff    	lea    -0x1c8(%ebp),%eax
10009f02:	50                   	push   %eax
10009f03:	ff 75 08             	pushl  0x8(%ebp)
10009f06:	e8 02 01 00 00       	call   0x1000a00d
10009f0b:	ff 75 08             	pushl  0x8(%ebp)
10009f0e:	e8 dc 06 00 00       	call   0x1000a5ef
10009f13:	ff 75 08             	pushl  0x8(%ebp)
10009f16:	e8 c0 05 00 00       	call   0x1000a4db
10009f1b:	8d 85 38 fe ff ff    	lea    -0x1c8(%ebp),%eax
10009f21:	50                   	push   %eax
10009f22:	8d 85 68 ff ff ff    	lea    -0x98(%ebp),%eax
10009f28:	50                   	push   %eax
10009f29:	e8 4c fb ff ff       	call   0x10009a7a
10009f2e:	6a 48                	push   $0x48
10009f30:	8d 85 20 ff ff ff    	lea    -0xe0(%ebp),%eax
10009f36:	6a 00                	push   $0x0
10009f38:	50                   	push   %eax
10009f39:	e8 d1 ab ff ff       	call   0x10004b0f
10009f3e:	83 c4 30             	add    $0x30,%esp
10009f41:	33 f6                	xor    %esi,%esi
10009f43:	6a 00                	push   $0x0
10009f45:	68 41 db 01 00       	push   $0x1db41
10009f4a:	ff b4 35 6c ff ff ff 	pushl  -0x94(%ebp,%esi,1)
10009f51:	ff b4 35 68 ff ff ff 	pushl  -0x98(%ebp,%esi,1)
10009f58:	e8 03 29 00 00       	call   0x1000c860
10009f5d:	89 84 35 d0 fe ff ff 	mov    %eax,-0x130(%ebp,%esi,1)
10009f64:	89 94 35 d4 fe ff ff 	mov    %edx,-0x12c(%ebp,%esi,1)
10009f6b:	83 c6 08             	add    $0x8,%esi
10009f6e:	83 fe 50             	cmp    $0x50,%esi
10009f71:	72 d0                	jb     0x10009f43
10009f73:	8d 85 d0 fe ff ff    	lea    -0x130(%ebp),%eax
10009f79:	50                   	push   %eax
10009f7a:	e8 5c 05 00 00       	call   0x1000a4db
10009f7f:	8d 85 38 fe ff ff    	lea    -0x1c8(%ebp),%eax
10009f85:	50                   	push   %eax
10009f86:	8d 85 d0 fe ff ff    	lea    -0x130(%ebp),%eax
10009f8c:	50                   	push   %eax
10009f8d:	e8 7d 0b 00 00       	call   0x1000ab0f
10009f92:	8d 85 d0 fe ff ff    	lea    -0x130(%ebp),%eax
10009f98:	50                   	push   %eax
10009f99:	8d 85 68 ff ff ff    	lea    -0x98(%ebp),%eax
10009f9f:	50                   	push   %eax
10009fa0:	ff 75 0c             	pushl  0xc(%ebp)
10009fa3:	e8 65 00 00 00       	call   0x1000a00d
10009fa8:	ff 75 0c             	pushl  0xc(%ebp)
10009fab:	e8 3f 06 00 00       	call   0x1000a5ef
10009fb0:	ff 75 0c             	pushl  0xc(%ebp)
10009fb3:	e8 23 05 00 00       	call   0x1000a4db
10009fb8:	83 c4 20             	add    $0x20,%esp
10009fbb:	5f                   	pop    %edi
10009fbc:	5e                   	pop    %esi
10009fbd:	8b e5                	mov    %ebp,%esp
10009fbf:	5d                   	pop    %ebp
10009fc0:	c3                   	ret    
10009fc1:	55                   	push   %ebp
10009fc2:	8b ec                	mov    %esp,%ebp
10009fc4:	81 ec 98 00 00 00    	sub    $0x98,%esp
10009fca:	8d 85 68 ff ff ff    	lea    -0x98(%ebp),%eax
10009fd0:	56                   	push   %esi
10009fd1:	57                   	push   %edi
10009fd2:	ff 75 10             	pushl  0x10(%ebp)
10009fd5:	ff 75 0c             	pushl  0xc(%ebp)
10009fd8:	50                   	push   %eax
10009fd9:	e8 2f 00 00 00       	call   0x1000a00d
10009fde:	8d 85 68 ff ff ff    	lea    -0x98(%ebp),%eax
10009fe4:	50                   	push   %eax
10009fe5:	e8 05 06 00 00       	call   0x1000a5ef
10009fea:	8d 85 68 ff ff ff    	lea    -0x98(%ebp),%eax
10009ff0:	50                   	push   %eax
10009ff1:	e8 e5 04 00 00       	call   0x1000a4db
10009ff6:	8b 7d 08             	mov    0x8(%ebp),%edi
10009ff9:	8d b5 68 ff ff ff    	lea    -0x98(%ebp),%esi
10009fff:	83 c4 14             	add    $0x14,%esp
1000a002:	6a 14                	push   $0x14
1000a004:	59                   	pop    %ecx
1000a005:	f3 a5                	rep movsl %ds:(%esi),%es:(%edi)
1000a007:	5f                   	pop    %edi
1000a008:	5e                   	pop    %esi
1000a009:	8b e5                	mov    %ebp,%esp
1000a00b:	5d                   	pop    %ebp
1000a00c:	c3                   	ret    
1000a00d:	55                   	push   %ebp
1000a00e:	8b ec                	mov    %esp,%ebp
1000a010:	8b 4d 08             	mov    0x8(%ebp),%ecx
1000a013:	53                   	push   %ebx
1000a014:	8b 5d 0c             	mov    0xc(%ebp),%ebx
1000a017:	56                   	push   %esi
1000a018:	57                   	push   %edi
1000a019:	8b 7d 10             	mov    0x10(%ebp),%edi
1000a01c:	8b 03                	mov    (%ebx),%eax
1000a01e:	f7 2f                	imull  (%edi)
1000a020:	89 01                	mov    %eax,(%ecx)
1000a022:	89 51 04             	mov    %edx,0x4(%ecx)
1000a025:	8b 43 08             	mov    0x8(%ebx),%eax
1000a028:	f7 2f                	imull  (%edi)
1000a02a:	8b c8                	mov    %eax,%ecx
1000a02c:	8b f2                	mov    %edx,%esi
1000a02e:	8b 03                	mov    (%ebx),%eax
1000a030:	f7 6f 08             	imull  0x8(%edi)
1000a033:	03 c8                	add    %eax,%ecx
1000a035:	8b 45 08             	mov    0x8(%ebp),%eax
1000a038:	13 f2                	adc    %edx,%esi
1000a03a:	89 48 08             	mov    %ecx,0x8(%eax)
1000a03d:	89 70 0c             	mov    %esi,0xc(%eax)
1000a040:	8b 43 08             	mov    0x8(%ebx),%eax
1000a043:	f7 6f 08             	imull  0x8(%edi)
1000a046:	8b c8                	mov    %eax,%ecx
1000a048:	8b f2                	mov    %edx,%esi
1000a04a:	8b 03                	mov    (%ebx),%eax
1000a04c:	f7 6f 10             	imull  0x10(%edi)
1000a04f:	0f a4 ce 01          	shld   $0x1,%ecx,%esi
1000a053:	03 c9                	add    %ecx,%ecx
1000a055:	03 c8                	add    %eax,%ecx
1000a057:	8b 43 10             	mov    0x10(%ebx),%eax
1000a05a:	13 f2                	adc    %edx,%esi
1000a05c:	f7 2f                	imull  (%edi)
1000a05e:	03 c8                	add    %eax,%ecx
1000a060:	8b 45 08             	mov    0x8(%ebp),%eax
1000a063:	13 f2                	adc    %edx,%esi
1000a065:	89 48 10             	mov    %ecx,0x10(%eax)
1000a068:	89 70 14             	mov    %esi,0x14(%eax)
1000a06b:	8b 03                	mov    (%ebx),%eax
1000a06d:	f7 6f 18             	imull  0x18(%edi)
1000a070:	8b c8                	mov    %eax,%ecx
1000a072:	8b f2                	mov    %edx,%esi
1000a074:	8b 43 08             	mov    0x8(%ebx),%eax
1000a077:	f7 6f 10             	imull  0x10(%edi)
1000a07a:	03 c8                	add    %eax,%ecx
1000a07c:	8b 43 10             	mov    0x10(%ebx),%eax
1000a07f:	13 f2                	adc    %edx,%esi
1000a081:	f7 6f 08             	imull  0x8(%edi)
1000a084:	03 c8                	add    %eax,%ecx
1000a086:	8b 43 18             	mov    0x18(%ebx),%eax
1000a089:	13 f2                	adc    %edx,%esi
1000a08b:	f7 2f                	imull  (%edi)
1000a08d:	03 c8                	add    %eax,%ecx
1000a08f:	8b 45 08             	mov    0x8(%ebp),%eax
1000a092:	13 f2                	adc    %edx,%esi
1000a094:	89 48 18             	mov    %ecx,0x18(%eax)
1000a097:	89 70 1c             	mov    %esi,0x1c(%eax)
1000a09a:	8b 43 18             	mov    0x18(%ebx),%eax
1000a09d:	f7 6f 08             	imull  0x8(%edi)
1000a0a0:	8b c8                	mov    %eax,%ecx
1000a0a2:	8b f2                	mov    %edx,%esi
1000a0a4:	8b 43 08             	mov    0x8(%ebx),%eax
1000a0a7:	f7 6f 18             	imull  0x18(%edi)
1000a0aa:	03 c8                	add    %eax,%ecx
1000a0ac:	8b 43 10             	mov    0x10(%ebx),%eax
1000a0af:	13 f2                	adc    %edx,%esi
1000a0b1:	f7 6f 10             	imull  0x10(%edi)
1000a0b4:	0f a4 ce 01          	shld   $0x1,%ecx,%esi
1000a0b8:	03 c9                	add    %ecx,%ecx
1000a0ba:	03 c8                	add    %eax,%ecx
1000a0bc:	8b 43 20             	mov    0x20(%ebx),%eax
1000a0bf:	13 f2                	adc    %edx,%esi
1000a0c1:	f7 2f                	imull  (%edi)
1000a0c3:	03 c8                	add    %eax,%ecx
1000a0c5:	8b 03                	mov    (%ebx),%eax
1000a0c7:	13 f2                	adc    %edx,%esi
1000a0c9:	f7 6f 20             	imull  0x20(%edi)
1000a0cc:	03 c8                	add    %eax,%ecx
1000a0ce:	8b 45 08             	mov    0x8(%ebp),%eax
1000a0d1:	13 f2                	adc    %edx,%esi
1000a0d3:	89 48 20             	mov    %ecx,0x20(%eax)
1000a0d6:	89 70 24             	mov    %esi,0x24(%eax)
1000a0d9:	8b 03                	mov    (%ebx),%eax
1000a0db:	f7 6f 28             	imull  0x28(%edi)
1000a0de:	8b c8                	mov    %eax,%ecx
1000a0e0:	8b f2                	mov    %edx,%esi
1000a0e2:	8b 43 08             	mov    0x8(%ebx),%eax
1000a0e5:	f7 6f 20             	imull  0x20(%edi)
1000a0e8:	03 c8                	add    %eax,%ecx
1000a0ea:	8b 43 18             	mov    0x18(%ebx),%eax
1000a0ed:	13 f2                	adc    %edx,%esi
1000a0ef:	f7 6f 10             	imull  0x10(%edi)
1000a0f2:	03 c8                	add    %eax,%ecx
1000a0f4:	8b 43 20             	mov    0x20(%ebx),%eax
1000a0f7:	13 f2                	adc    %edx,%esi
1000a0f9:	f7 6f 08             	imull  0x8(%edi)
1000a0fc:	03 c8                	add    %eax,%ecx
1000a0fe:	8b 43 28             	mov    0x28(%ebx),%eax
1000a101:	13 f2                	adc    %edx,%esi
1000a103:	f7 2f                	imull  (%edi)
1000a105:	03 c8                	add    %eax,%ecx
1000a107:	8b 43 10             	mov    0x10(%ebx),%eax
1000a10a:	13 f2                	adc    %edx,%esi
1000a10c:	f7 6f 18             	imull  0x18(%edi)
1000a10f:	03 c8                	add    %eax,%ecx
1000a111:	8b 45 08             	mov    0x8(%ebp),%eax
1000a114:	13 f2                	adc    %edx,%esi
1000a116:	89 48 28             	mov    %ecx,0x28(%eax)
1000a119:	89 70 2c             	mov    %esi,0x2c(%eax)
1000a11c:	8b 43 18             	mov    0x18(%ebx),%eax
1000a11f:	f7 6f 18             	imull  0x18(%edi)
1000a122:	8b c8                	mov    %eax,%ecx
1000a124:	8b f2                	mov    %edx,%esi
1000a126:	8b 43 28             	mov    0x28(%ebx),%eax
1000a129:	f7 6f 08             	imull  0x8(%edi)
1000a12c:	03 c8                	add    %eax,%ecx
1000a12e:	8b 43 08             	mov    0x8(%ebx),%eax
1000a131:	13 f2                	adc    %edx,%esi
1000a133:	f7 6f 28             	imull  0x28(%edi)
1000a136:	03 c8                	add    %eax,%ecx
1000a138:	8b 43 20             	mov    0x20(%ebx),%eax
1000a13b:	13 f2                	adc    %edx,%esi
1000a13d:	f7 6f 10             	imull  0x10(%edi)
1000a140:	0f a4 ce 01          	shld   $0x1,%ecx,%esi
1000a144:	03 c9                	add    %ecx,%ecx
1000a146:	03 c8                	add    %eax,%ecx
1000a148:	8b 03                	mov    (%ebx),%eax
1000a14a:	13 f2                	adc    %edx,%esi
1000a14c:	f7 6f 30             	imull  0x30(%edi)
1000a14f:	03 c8                	add    %eax,%ecx
1000a151:	8b 43 30             	mov    0x30(%ebx),%eax
1000a154:	13 f2                	adc    %edx,%esi
1000a156:	f7 2f                	imull  (%edi)
1000a158:	03 c8                	add    %eax,%ecx
1000a15a:	8b 43 10             	mov    0x10(%ebx),%eax
1000a15d:	13 f2                	adc    %edx,%esi
1000a15f:	f7 6f 20             	imull  0x20(%edi)
1000a162:	03 c8                	add    %eax,%ecx
1000a164:	8b 45 08             	mov    0x8(%ebp),%eax
1000a167:	13 f2                	adc    %edx,%esi
1000a169:	89 48 30             	mov    %ecx,0x30(%eax)
1000a16c:	89 70 34             	mov    %esi,0x34(%eax)
1000a16f:	8b 43 18             	mov    0x18(%ebx),%eax
1000a172:	f7 6f 20             	imull  0x20(%edi)
1000a175:	8b c8                	mov    %eax,%ecx
1000a177:	8b f2                	mov    %edx,%esi
1000a179:	8b 43 10             	mov    0x10(%ebx),%eax
1000a17c:	f7 6f 28             	imull  0x28(%edi)
1000a17f:	03 c8                	add    %eax,%ecx
1000a181:	8b 43 28             	mov    0x28(%ebx),%eax
1000a184:	13 f2                	adc    %edx,%esi
1000a186:	f7 6f 10             	imull  0x10(%edi)
1000a189:	03 c8                	add    %eax,%ecx
1000a18b:	8b 43 30             	mov    0x30(%ebx),%eax
1000a18e:	13 f2                	adc    %edx,%esi
1000a190:	f7 6f 08             	imull  0x8(%edi)
1000a193:	03 c8                	add    %eax,%ecx
1000a195:	8b 43 20             	mov    0x20(%ebx),%eax
1000a198:	13 f2                	adc    %edx,%esi
1000a19a:	f7 6f 18             	imull  0x18(%edi)
1000a19d:	03 c8                	add    %eax,%ecx
1000a19f:	13 f2                	adc    %edx,%esi
1000a1a1:	8b 03                	mov    (%ebx),%eax
1000a1a3:	f7 6f 38             	imull  0x38(%edi)
1000a1a6:	03 c8                	add    %eax,%ecx
1000a1a8:	8b 43 08             	mov    0x8(%ebx),%eax
1000a1ab:	13 f2                	adc    %edx,%esi
1000a1ad:	f7 6f 30             	imull  0x30(%edi)
1000a1b0:	03 c8                	add    %eax,%ecx
1000a1b2:	8b 43 38             	mov    0x38(%ebx),%eax
1000a1b5:	13 f2                	adc    %edx,%esi
1000a1b7:	f7 2f                	imull  (%edi)
1000a1b9:	03 c8                	add    %eax,%ecx
1000a1bb:	8b 45 08             	mov    0x8(%ebp),%eax
1000a1be:	13 f2                	adc    %edx,%esi
1000a1c0:	89 48 38             	mov    %ecx,0x38(%eax)
1000a1c3:	89 70 3c             	mov    %esi,0x3c(%eax)
1000a1c6:	8b 43 38             	mov    0x38(%ebx),%eax
1000a1c9:	f7 6f 08             	imull  0x8(%edi)
1000a1cc:	8b c8                	mov    %eax,%ecx
1000a1ce:	8b f2                	mov    %edx,%esi
1000a1d0:	8b 43 08             	mov    0x8(%ebx),%eax
1000a1d3:	f7 6f 38             	imull  0x38(%edi)
1000a1d6:	03 c8                	add    %eax,%ecx
1000a1d8:	8b 43 18             	mov    0x18(%ebx),%eax
1000a1db:	13 f2                	adc    %edx,%esi
1000a1dd:	f7 6f 28             	imull  0x28(%edi)
1000a1e0:	03 c8                	add    %eax,%ecx
1000a1e2:	8b 43 28             	mov    0x28(%ebx),%eax
1000a1e5:	13 f2                	adc    %edx,%esi
1000a1e7:	f7 6f 18             	imull  0x18(%edi)
1000a1ea:	03 c8                	add    %eax,%ecx
1000a1ec:	8b 43 10             	mov    0x10(%ebx),%eax
1000a1ef:	13 f2                	adc    %edx,%esi
1000a1f1:	f7 6f 30             	imull  0x30(%edi)
1000a1f4:	0f a4 ce 01          	shld   $0x1,%ecx,%esi
1000a1f8:	03 c9                	add    %ecx,%ecx
1000a1fa:	03 c8                	add    %eax,%ecx
1000a1fc:	8b 43 20             	mov    0x20(%ebx),%eax
1000a1ff:	13 f2                	adc    %edx,%esi
1000a201:	f7 6f 20             	imull  0x20(%edi)
1000a204:	03 c8                	add    %eax,%ecx
1000a206:	8b 03                	mov    (%ebx),%eax
1000a208:	13 f2                	adc    %edx,%esi
1000a20a:	f7 6f 40             	imull  0x40(%edi)
1000a20d:	03 c8                	add    %eax,%ecx
1000a20f:	8b 43 30             	mov    0x30(%ebx),%eax
1000a212:	13 f2                	adc    %edx,%esi
1000a214:	f7 6f 10             	imull  0x10(%edi)
1000a217:	03 c8                	add    %eax,%ecx
1000a219:	8b 43 40             	mov    0x40(%ebx),%eax
1000a21c:	13 f2                	adc    %edx,%esi
1000a21e:	f7 2f                	imull  (%edi)
1000a220:	03 c8                	add    %eax,%ecx
1000a222:	8b 45 08             	mov    0x8(%ebp),%eax
1000a225:	13 f2                	adc    %edx,%esi
1000a227:	89 48 40             	mov    %ecx,0x40(%eax)
1000a22a:	89 70 44             	mov    %esi,0x44(%eax)
1000a22d:	8b 43 20             	mov    0x20(%ebx),%eax
1000a230:	f7 6f 28             	imull  0x28(%edi)
1000a233:	8b c8                	mov    %eax,%ecx
1000a235:	8b f2                	mov    %edx,%esi
1000a237:	8b 43 40             	mov    0x40(%ebx),%eax
1000a23a:	f7 6f 08             	imull  0x8(%edi)
1000a23d:	03 c8                	add    %eax,%ecx
1000a23f:	8b 03                	mov    (%ebx),%eax
1000a241:	13 f2                	adc    %edx,%esi
1000a243:	f7 6f 48             	imull  0x48(%edi)
1000a246:	03 c8                	add    %eax,%ecx
1000a248:	8b 43 48             	mov    0x48(%ebx),%eax
1000a24b:	13 f2                	adc    %edx,%esi
1000a24d:	f7 2f                	imull  (%edi)
1000a24f:	03 c8                	add    %eax,%ecx
1000a251:	8b 43 08             	mov    0x8(%ebx),%eax
1000a254:	13 f2                	adc    %edx,%esi
1000a256:	f7 6f 40             	imull  0x40(%edi)
1000a259:	03 c8                	add    %eax,%ecx
1000a25b:	8b 43 30             	mov    0x30(%ebx),%eax
1000a25e:	13 f2                	adc    %edx,%esi
1000a260:	f7 6f 18             	imull  0x18(%edi)
1000a263:	03 c8                	add    %eax,%ecx
1000a265:	8b 43 18             	mov    0x18(%ebx),%eax
1000a268:	13 f2                	adc    %edx,%esi
1000a26a:	f7 6f 30             	imull  0x30(%edi)
1000a26d:	03 c8                	add    %eax,%ecx
1000a26f:	8b 43 38             	mov    0x38(%ebx),%eax
1000a272:	13 f2                	adc    %edx,%esi
1000a274:	f7 6f 10             	imull  0x10(%edi)
1000a277:	03 c8                	add    %eax,%ecx
1000a279:	8b 43 10             	mov    0x10(%ebx),%eax
1000a27c:	13 f2                	adc    %edx,%esi
1000a27e:	f7 6f 38             	imull  0x38(%edi)
1000a281:	03 c8                	add    %eax,%ecx
1000a283:	8b 43 28             	mov    0x28(%ebx),%eax
1000a286:	13 f2                	adc    %edx,%esi
1000a288:	f7 6f 20             	imull  0x20(%edi)
1000a28b:	03 c8                	add    %eax,%ecx
1000a28d:	8b 45 08             	mov    0x8(%ebp),%eax
1000a290:	13 f2                	adc    %edx,%esi
1000a292:	89 48 48             	mov    %ecx,0x48(%eax)
1000a295:	89 70 4c             	mov    %esi,0x4c(%eax)
1000a298:	8b 43 18             	mov    0x18(%ebx),%eax
1000a29b:	f7 6f 38             	imull  0x38(%edi)
1000a29e:	8b c8                	mov    %eax,%ecx
1000a2a0:	8b f2                	mov    %edx,%esi
1000a2a2:	8b 43 38             	mov    0x38(%ebx),%eax
1000a2a5:	f7 6f 18             	imull  0x18(%edi)
1000a2a8:	03 c8                	add    %eax,%ecx
1000a2aa:	8b 43 48             	mov    0x48(%ebx),%eax
1000a2ad:	13 f2                	adc    %edx,%esi
1000a2af:	f7 6f 08             	imull  0x8(%edi)
1000a2b2:	03 c8                	add    %eax,%ecx
1000a2b4:	8b 43 28             	mov    0x28(%ebx),%eax
1000a2b7:	13 f2                	adc    %edx,%esi
1000a2b9:	f7 6f 28             	imull  0x28(%edi)
1000a2bc:	03 c8                	add    %eax,%ecx
1000a2be:	8b 43 08             	mov    0x8(%ebx),%eax
1000a2c1:	13 f2                	adc    %edx,%esi
1000a2c3:	f7 6f 48             	imull  0x48(%edi)
1000a2c6:	03 c8                	add    %eax,%ecx
1000a2c8:	8b 43 20             	mov    0x20(%ebx),%eax
1000a2cb:	13 f2                	adc    %edx,%esi
1000a2cd:	f7 6f 30             	imull  0x30(%edi)
1000a2d0:	0f a4 ce 01          	shld   $0x1,%ecx,%esi
1000a2d4:	03 c9                	add    %ecx,%ecx
1000a2d6:	03 c8                	add    %eax,%ecx
1000a2d8:	8b 43 30             	mov    0x30(%ebx),%eax
1000a2db:	13 f2                	adc    %edx,%esi
1000a2dd:	f7 6f 20             	imull  0x20(%edi)
1000a2e0:	03 c8                	add    %eax,%ecx
1000a2e2:	8b 43 40             	mov    0x40(%ebx),%eax
1000a2e5:	13 f2                	adc    %edx,%esi
1000a2e7:	f7 6f 10             	imull  0x10(%edi)
1000a2ea:	03 c8                	add    %eax,%ecx
1000a2ec:	8b 43 10             	mov    0x10(%ebx),%eax
1000a2ef:	13 f2                	adc    %edx,%esi
1000a2f1:	f7 6f 40             	imull  0x40(%edi)
1000a2f4:	03 c8                	add    %eax,%ecx
1000a2f6:	8b 45 08             	mov    0x8(%ebp),%eax
1000a2f9:	13 f2                	adc    %edx,%esi
1000a2fb:	89 48 50             	mov    %ecx,0x50(%eax)
1000a2fe:	89 70 54             	mov    %esi,0x54(%eax)
1000a301:	8b 43 18             	mov    0x18(%ebx),%eax
1000a304:	f7 6f 40             	imull  0x40(%edi)
1000a307:	8b c8                	mov    %eax,%ecx
1000a309:	8b f2                	mov    %edx,%esi
1000a30b:	8b 43 38             	mov    0x38(%ebx),%eax
1000a30e:	f7 6f 20             	imull  0x20(%edi)
1000a311:	03 c8                	add    %eax,%ecx
1000a313:	8b 43 40             	mov    0x40(%ebx),%eax
1000a316:	13 f2                	adc    %edx,%esi
1000a318:	f7 6f 18             	imull  0x18(%edi)
1000a31b:	03 c8                	add    %eax,%ecx
1000a31d:	8b 43 10             	mov    0x10(%ebx),%eax
1000a320:	13 f2                	adc    %edx,%esi
1000a322:	f7 6f 48             	imull  0x48(%edi)
1000a325:	03 c8                	add    %eax,%ecx
1000a327:	8b 43 28             	mov    0x28(%ebx),%eax
1000a32a:	13 f2                	adc    %edx,%esi
1000a32c:	f7 6f 30             	imull  0x30(%edi)
1000a32f:	03 c8                	add    %eax,%ecx
1000a331:	8b 43 20             	mov    0x20(%ebx),%eax
1000a334:	13 f2                	adc    %edx,%esi
1000a336:	f7 6f 38             	imull  0x38(%edi)
1000a339:	03 c8                	add    %eax,%ecx
1000a33b:	8b 43 30             	mov    0x30(%ebx),%eax
1000a33e:	13 f2                	adc    %edx,%esi
1000a340:	f7 6f 28             	imull  0x28(%edi)
1000a343:	03 c8                	add    %eax,%ecx
1000a345:	8b 43 48             	mov    0x48(%ebx),%eax
1000a348:	13 f2                	adc    %edx,%esi
1000a34a:	f7 6f 10             	imull  0x10(%edi)
1000a34d:	03 c8                	add    %eax,%ecx
1000a34f:	8b 45 08             	mov    0x8(%ebp),%eax
1000a352:	13 f2                	adc    %edx,%esi
1000a354:	89 48 58             	mov    %ecx,0x58(%eax)
1000a357:	89 70 5c             	mov    %esi,0x5c(%eax)
1000a35a:	8b 43 48             	mov    0x48(%ebx),%eax
1000a35d:	f7 6f 18             	imull  0x18(%edi)
1000a360:	8b c8                	mov    %eax,%ecx
1000a362:	8b f2                	mov    %edx,%esi
1000a364:	8b 43 38             	mov    0x38(%ebx),%eax
1000a367:	f7 6f 28             	imull  0x28(%edi)
1000a36a:	03 c8                	add    %eax,%ecx
1000a36c:	8b 43 18             	mov    0x18(%ebx),%eax
1000a36f:	13 f2                	adc    %edx,%esi
1000a371:	f7 6f 48             	imull  0x48(%edi)
1000a374:	03 c8                	add    %eax,%ecx
1000a376:	8b 43 28             	mov    0x28(%ebx),%eax
1000a379:	13 f2                	adc    %edx,%esi
1000a37b:	f7 6f 38             	imull  0x38(%edi)
1000a37e:	03 c8                	add    %eax,%ecx
1000a380:	8b 43 40             	mov    0x40(%ebx),%eax
1000a383:	13 f2                	adc    %edx,%esi
1000a385:	f7 6f 20             	imull  0x20(%edi)
1000a388:	0f a4 ce 01          	shld   $0x1,%ecx,%esi
1000a38c:	03 c9                	add    %ecx,%ecx
1000a38e:	03 c8                	add    %eax,%ecx
1000a390:	8b 43 20             	mov    0x20(%ebx),%eax
1000a393:	13 f2                	adc    %edx,%esi
1000a395:	f7 6f 40             	imull  0x40(%edi)
1000a398:	03 c8                	add    %eax,%ecx
1000a39a:	8b 43 30             	mov    0x30(%ebx),%eax
1000a39d:	13 f2                	adc    %edx,%esi
1000a39f:	f7 6f 30             	imull  0x30(%edi)
1000a3a2:	03 c8                	add    %eax,%ecx
1000a3a4:	8b 45 08             	mov    0x8(%ebp),%eax
1000a3a7:	13 f2                	adc    %edx,%esi
1000a3a9:	89 48 60             	mov    %ecx,0x60(%eax)
1000a3ac:	89 70 64             	mov    %esi,0x64(%eax)
1000a3af:	8b 43 20             	mov    0x20(%ebx),%eax
1000a3b2:	f7 6f 48             	imull  0x48(%edi)
1000a3b5:	8b c8                	mov    %eax,%ecx
1000a3b7:	8b f2                	mov    %edx,%esi
1000a3b9:	8b 43 30             	mov    0x30(%ebx),%eax
1000a3bc:	f7 6f 38             	imull  0x38(%edi)
1000a3bf:	03 c8                	add    %eax,%ecx
1000a3c1:	8b 43 48             	mov    0x48(%ebx),%eax
1000a3c4:	13 f2                	adc    %edx,%esi
1000a3c6:	f7 6f 20             	imull  0x20(%edi)
1000a3c9:	03 c8                	add    %eax,%ecx
1000a3cb:	8b 43 38             	mov    0x38(%ebx),%eax
1000a3ce:	13 f2                	adc    %edx,%esi
1000a3d0:	f7 6f 30             	imull  0x30(%edi)
1000a3d3:	03 c8                	add    %eax,%ecx
1000a3d5:	8b 43 40             	mov    0x40(%ebx),%eax
1000a3d8:	13 f2                	adc    %edx,%esi
1000a3da:	f7 6f 28             	imull  0x28(%edi)
1000a3dd:	03 c8                	add    %eax,%ecx
1000a3df:	8b 43 28             	mov    0x28(%ebx),%eax
1000a3e2:	13 f2                	adc    %edx,%esi
1000a3e4:	f7 6f 40             	imull  0x40(%edi)
1000a3e7:	03 c8                	add    %eax,%ecx
1000a3e9:	8b 45 08             	mov    0x8(%ebp),%eax
1000a3ec:	13 f2                	adc    %edx,%esi
1000a3ee:	89 48 68             	mov    %ecx,0x68(%eax)
1000a3f1:	89 70 6c             	mov    %esi,0x6c(%eax)
1000a3f4:	8b 43 38             	mov    0x38(%ebx),%eax
1000a3f7:	f7 6f 38             	imull  0x38(%edi)
1000a3fa:	8b c8                	mov    %eax,%ecx
1000a3fc:	8b f2                	mov    %edx,%esi
1000a3fe:	8b 43 28             	mov    0x28(%ebx),%eax
1000a401:	f7 6f 48             	imull  0x48(%edi)
1000a404:	03 c8                	add    %eax,%ecx
1000a406:	13 f2                	adc    %edx,%esi
1000a408:	8b 43 48             	mov    0x48(%ebx),%eax
1000a40b:	f7 6f 28             	imull  0x28(%edi)
1000a40e:	03 c8                	add    %eax,%ecx
1000a410:	8b 43 30             	mov    0x30(%ebx),%eax
1000a413:	13 f2                	adc    %edx,%esi
1000a415:	f7 6f 40             	imull  0x40(%edi)
1000a418:	0f a4 ce 01          	shld   $0x1,%ecx,%esi
1000a41c:	03 c9                	add    %ecx,%ecx
1000a41e:	03 c8                	add    %eax,%ecx
1000a420:	8b 43 40             	mov    0x40(%ebx),%eax
1000a423:	13 f2                	adc    %edx,%esi
1000a425:	f7 6f 30             	imull  0x30(%edi)
1000a428:	03 c8                	add    %eax,%ecx
1000a42a:	8b 45 08             	mov    0x8(%ebp),%eax
1000a42d:	13 f2                	adc    %edx,%esi
1000a42f:	89 48 70             	mov    %ecx,0x70(%eax)
1000a432:	89 70 74             	mov    %esi,0x74(%eax)
1000a435:	8b 43 38             	mov    0x38(%ebx),%eax
1000a438:	f7 6f 40             	imull  0x40(%edi)
1000a43b:	8b c8                	mov    %eax,%ecx
1000a43d:	8b f2                	mov    %edx,%esi
1000a43f:	8b 43 40             	mov    0x40(%ebx),%eax
1000a442:	f7 6f 38             	imull  0x38(%edi)
1000a445:	03 c8                	add    %eax,%ecx
1000a447:	8b 43 30             	mov    0x30(%ebx),%eax
1000a44a:	13 f2                	adc    %edx,%esi
1000a44c:	f7 6f 48             	imull  0x48(%edi)
1000a44f:	03 c8                	add    %eax,%ecx
1000a451:	8b 43 48             	mov    0x48(%ebx),%eax
1000a454:	13 f2                	adc    %edx,%esi
1000a456:	f7 6f 30             	imull  0x30(%edi)
1000a459:	03 c8                	add    %eax,%ecx
1000a45b:	8b 45 08             	mov    0x8(%ebp),%eax
1000a45e:	13 f2                	adc    %edx,%esi
1000a460:	89 48 78             	mov    %ecx,0x78(%eax)
1000a463:	89 70 7c             	mov    %esi,0x7c(%eax)
1000a466:	8b 43 48             	mov    0x48(%ebx),%eax
1000a469:	f7 6f 38             	imull  0x38(%edi)
1000a46c:	8b c8                	mov    %eax,%ecx
1000a46e:	8b f2                	mov    %edx,%esi
1000a470:	8b 43 38             	mov    0x38(%ebx),%eax
1000a473:	f7 6f 48             	imull  0x48(%edi)
1000a476:	03 c8                	add    %eax,%ecx
1000a478:	8b 43 40             	mov    0x40(%ebx),%eax
1000a47b:	13 f2                	adc    %edx,%esi
1000a47d:	f7 6f 40             	imull  0x40(%edi)
1000a480:	0f a4 ce 01          	shld   $0x1,%ecx,%esi
1000a484:	03 c9                	add    %ecx,%ecx
1000a486:	03 c8                	add    %eax,%ecx
1000a488:	8b 45 08             	mov    0x8(%ebp),%eax
1000a48b:	13 f2                	adc    %edx,%esi
1000a48d:	89 88 80 00 00 00    	mov    %ecx,0x80(%eax)
1000a493:	89 b0 84 00 00 00    	mov    %esi,0x84(%eax)
1000a499:	8b 43 48             	mov    0x48(%ebx),%eax
1000a49c:	f7 6f 40             	imull  0x40(%edi)
1000a49f:	8b c8                	mov    %eax,%ecx
1000a4a1:	8b f2                	mov    %edx,%esi
1000a4a3:	8b 43 40             	mov    0x40(%ebx),%eax
1000a4a6:	f7 6f 48             	imull  0x48(%edi)
1000a4a9:	03 c8                	add    %eax,%ecx
1000a4ab:	8b 45 08             	mov    0x8(%ebp),%eax
1000a4ae:	13 f2                	adc    %edx,%esi
1000a4b0:	89 88 88 00 00 00    	mov    %ecx,0x88(%eax)
1000a4b6:	8b c8                	mov    %eax,%ecx
1000a4b8:	89 b1 8c 00 00 00    	mov    %esi,0x8c(%ecx)
1000a4be:	8b 43 48             	mov    0x48(%ebx),%eax
1000a4c1:	f7 6f 48             	imull  0x48(%edi)
1000a4c4:	5f                   	pop    %edi
1000a4c5:	0f a4 c2 01          	shld   $0x1,%eax,%edx
1000a4c9:	5e                   	pop    %esi
1000a4ca:	03 c0                	add    %eax,%eax
1000a4cc:	89 91 94 00 00 00    	mov    %edx,0x94(%ecx)
1000a4d2:	89 81 90 00 00 00    	mov    %eax,0x90(%ecx)
1000a4d8:	5b                   	pop    %ebx
1000a4d9:	5d                   	pop    %ebp
1000a4da:	c3                   	ret    
1000a4db:	55                   	push   %ebp
1000a4dc:	8b ec                	mov    %esp,%ebp
1000a4de:	83 ec 0c             	sub    $0xc,%esp
1000a4e1:	8b 45 08             	mov    0x8(%ebp),%eax
1000a4e4:	53                   	push   %ebx
1000a4e5:	56                   	push   %esi
1000a4e6:	c7 45 f8 05 00 00 00 	movl   $0x5,-0x8(%ebp)
1000a4ed:	83 60 50 00          	andl   $0x0,0x50(%eax)
1000a4f1:	83 60 54 00          	andl   $0x0,0x54(%eax)
1000a4f5:	83 c0 08             	add    $0x8,%eax
1000a4f8:	89 45 f4             	mov    %eax,-0xc(%ebp)
1000a4fb:	89 45 fc             	mov    %eax,-0x4(%ebp)
1000a4fe:	57                   	push   %edi
1000a4ff:	8b 78 fc             	mov    -0x4(%eax),%edi
1000a502:	33 d2                	xor    %edx,%edx
1000a504:	8b 58 f8             	mov    -0x8(%eax),%ebx
1000a507:	8b f7                	mov    %edi,%esi
1000a509:	c1 fe 1f             	sar    $0x1f,%esi
1000a50c:	c1 ee 06             	shr    $0x6,%esi
1000a50f:	03 f3                	add    %ebx,%esi
1000a511:	13 d7                	adc    %edi,%edx
1000a513:	0f ac d6 1a          	shrd   $0x1a,%edx,%esi
1000a517:	c1 fa 1a             	sar    $0x1a,%edx
1000a51a:	8b c6                	mov    %esi,%eax
1000a51c:	8b ca                	mov    %edx,%ecx
1000a51e:	0f a4 c1 1a          	shld   $0x1a,%eax,%ecx
1000a522:	c1 e0 1a             	shl    $0x1a,%eax
1000a525:	2b d8                	sub    %eax,%ebx
1000a527:	8b 45 fc             	mov    -0x4(%ebp),%eax
1000a52a:	1b f9                	sbb    %ecx,%edi
1000a52c:	01 30                	add    %esi,(%eax)
1000a52e:	89 78 fc             	mov    %edi,-0x4(%eax)
1000a531:	11 50 04             	adc    %edx,0x4(%eax)
1000a534:	33 d2                	xor    %edx,%edx
1000a536:	8b 78 04             	mov    0x4(%eax),%edi
1000a539:	8b f7                	mov    %edi,%esi
1000a53b:	c1 fe 1f             	sar    $0x1f,%esi
1000a53e:	89 58 f8             	mov    %ebx,-0x8(%eax)
1000a541:	8b 18                	mov    (%eax),%ebx
1000a543:	c1 ee 07             	shr    $0x7,%esi
1000a546:	03 f3                	add    %ebx,%esi
1000a548:	13 d7                	adc    %edi,%edx
1000a54a:	0f ac d6 19          	shrd   $0x19,%edx,%esi
1000a54e:	c1 fa 19             	sar    $0x19,%edx
1000a551:	8b c6                	mov    %esi,%eax
1000a553:	8b ca                	mov    %edx,%ecx
1000a555:	0f a4 c1 19          	shld   $0x19,%eax,%ecx
1000a559:	c1 e0 19             	shl    $0x19,%eax
1000a55c:	2b d8                	sub    %eax,%ebx
1000a55e:	8b 45 fc             	mov    -0x4(%ebp),%eax
1000a561:	1b f9                	sbb    %ecx,%edi
1000a563:	01 70 08             	add    %esi,0x8(%eax)
1000a566:	89 18                	mov    %ebx,(%eax)
1000a568:	11 50 0c             	adc    %edx,0xc(%eax)
1000a56b:	89 78 04             	mov    %edi,0x4(%eax)
1000a56e:	83 c0 10             	add    $0x10,%eax
1000a571:	83 6d f8 01          	subl   $0x1,-0x8(%ebp)
1000a575:	89 45 fc             	mov    %eax,-0x4(%ebp)
1000a578:	75 85                	jne    0x1000a4ff
1000a57a:	8b 7d 08             	mov    0x8(%ebp),%edi
1000a57d:	8b 57 50             	mov    0x50(%edi),%edx
1000a580:	8b c2                	mov    %edx,%eax
1000a582:	8b 77 54             	mov    0x54(%edi),%esi
1000a585:	8b ce                	mov    %esi,%ecx
1000a587:	0f a4 c1 04          	shld   $0x4,%eax,%ecx
1000a58b:	c1 e0 04             	shl    $0x4,%eax
1000a58e:	01 07                	add    %eax,(%edi)
1000a590:	8b c2                	mov    %edx,%eax
1000a592:	11 4f 04             	adc    %ecx,0x4(%edi)
1000a595:	8b ce                	mov    %esi,%ecx
1000a597:	0f a4 c1 01          	shld   $0x1,%eax,%ecx
1000a59b:	03 c0                	add    %eax,%eax
1000a59d:	01 07                	add    %eax,(%edi)
1000a59f:	11 4f 04             	adc    %ecx,0x4(%edi)
1000a5a2:	01 17                	add    %edx,(%edi)
1000a5a4:	8b 1f                	mov    (%edi),%ebx
1000a5a6:	11 77 04             	adc    %esi,0x4(%edi)
1000a5a9:	33 d2                	xor    %edx,%edx
1000a5ab:	83 67 50 00          	andl   $0x0,0x50(%edi)
1000a5af:	83 67 54 00          	andl   $0x0,0x54(%edi)
1000a5b3:	8b 7f 04             	mov    0x4(%edi),%edi
1000a5b6:	8b f7                	mov    %edi,%esi
1000a5b8:	c1 fe 1f             	sar    $0x1f,%esi
1000a5bb:	c1 ee 06             	shr    $0x6,%esi
1000a5be:	03 f3                	add    %ebx,%esi
1000a5c0:	13 d7                	adc    %edi,%edx
1000a5c2:	0f ac d6 1a          	shrd   $0x1a,%edx,%esi
1000a5c6:	c1 fa 1a             	sar    $0x1a,%edx
1000a5c9:	8b c6                	mov    %esi,%eax
1000a5cb:	8b ca                	mov    %edx,%ecx
1000a5cd:	0f a4 c1 1a          	shld   $0x1a,%eax,%ecx
1000a5d1:	c1 e0 1a             	shl    $0x1a,%eax
1000a5d4:	2b d8                	sub    %eax,%ebx
1000a5d6:	8b 45 08             	mov    0x8(%ebp),%eax
1000a5d9:	1b f9                	sbb    %ecx,%edi
1000a5db:	89 18                	mov    %ebx,(%eax)
1000a5dd:	89 78 04             	mov    %edi,0x4(%eax)
1000a5e0:	8b 45 f4             	mov    -0xc(%ebp),%eax
1000a5e3:	5f                   	pop    %edi
1000a5e4:	01 30                	add    %esi,(%eax)
1000a5e6:	5e                   	pop    %esi
1000a5e7:	11 50 04             	adc    %edx,0x4(%eax)
1000a5ea:	5b                   	pop    %ebx
1000a5eb:	8b e5                	mov    %ebp,%esp
1000a5ed:	5d                   	pop    %ebp
1000a5ee:	c3                   	ret    
1000a5ef:	55                   	push   %ebp
1000a5f0:	8b ec                	mov    %esp,%ebp
1000a5f2:	56                   	push   %esi
1000a5f3:	57                   	push   %edi
1000a5f4:	8b 7d 08             	mov    0x8(%ebp),%edi
1000a5f7:	8b 97 90 00 00 00    	mov    0x90(%edi),%edx
1000a5fd:	8b c2                	mov    %edx,%eax
1000a5ff:	8b b7 94 00 00 00    	mov    0x94(%edi),%esi
1000a605:	8b ce                	mov    %esi,%ecx
1000a607:	0f a4 c1 04          	shld   $0x4,%eax,%ecx
1000a60b:	c1 e0 04             	shl    $0x4,%eax
1000a60e:	01 47 40             	add    %eax,0x40(%edi)
1000a611:	8b c2                	mov    %edx,%eax
1000a613:	11 4f 44             	adc    %ecx,0x44(%edi)
1000a616:	8b ce                	mov    %esi,%ecx
1000a618:	0f a4 c1 01          	shld   $0x1,%eax,%ecx
1000a61c:	03 c0                	add    %eax,%eax
1000a61e:	01 47 40             	add    %eax,0x40(%edi)
1000a621:	11 4f 44             	adc    %ecx,0x44(%edi)
1000a624:	01 57 40             	add    %edx,0x40(%edi)
1000a627:	8b 97 88 00 00 00    	mov    0x88(%edi),%edx
1000a62d:	8b c2                	mov    %edx,%eax
1000a62f:	11 77 44             	adc    %esi,0x44(%edi)
1000a632:	8b b7 8c 00 00 00    	mov    0x8c(%edi),%esi
1000a638:	8b ce                	mov    %esi,%ecx
1000a63a:	0f a4 c1 04          	shld   $0x4,%eax,%ecx
1000a63e:	c1 e0 04             	shl    $0x4,%eax
1000a641:	01 47 38             	add    %eax,0x38(%edi)
1000a644:	8b c2                	mov    %edx,%eax
1000a646:	11 4f 3c             	adc    %ecx,0x3c(%edi)
1000a649:	8b ce                	mov    %esi,%ecx
1000a64b:	0f a4 c1 01          	shld   $0x1,%eax,%ecx
1000a64f:	03 c0                	add    %eax,%eax
1000a651:	01 47 38             	add    %eax,0x38(%edi)
1000a654:	11 4f 3c             	adc    %ecx,0x3c(%edi)
1000a657:	01 57 38             	add    %edx,0x38(%edi)
1000a65a:	8b 97 80 00 00 00    	mov    0x80(%edi),%edx
1000a660:	8b c2                	mov    %edx,%eax
1000a662:	11 77 3c             	adc    %esi,0x3c(%edi)
1000a665:	8b b7 84 00 00 00    	mov    0x84(%edi),%esi
1000a66b:	8b ce                	mov    %esi,%ecx
1000a66d:	0f a4 c1 04          	shld   $0x4,%eax,%ecx
1000a671:	c1 e0 04             	shl    $0x4,%eax
1000a674:	01 47 30             	add    %eax,0x30(%edi)
1000a677:	8b c2                	mov    %edx,%eax
1000a679:	11 4f 34             	adc    %ecx,0x34(%edi)
1000a67c:	8b ce                	mov    %esi,%ecx
1000a67e:	0f a4 c1 01          	shld   $0x1,%eax,%ecx
1000a682:	03 c0                	add    %eax,%eax
1000a684:	01 47 30             	add    %eax,0x30(%edi)
1000a687:	11 4f 34             	adc    %ecx,0x34(%edi)
1000a68a:	01 57 30             	add    %edx,0x30(%edi)
1000a68d:	8b 57 78             	mov    0x78(%edi),%edx
1000a690:	8b c2                	mov    %edx,%eax
1000a692:	11 77 34             	adc    %esi,0x34(%edi)
1000a695:	8b 77 7c             	mov    0x7c(%edi),%esi
1000a698:	8b ce                	mov    %esi,%ecx
1000a69a:	0f a4 c1 04          	shld   $0x4,%eax,%ecx
1000a69e:	c1 e0 04             	shl    $0x4,%eax
1000a6a1:	01 47 28             	add    %eax,0x28(%edi)
1000a6a4:	8b c2                	mov    %edx,%eax
1000a6a6:	11 4f 2c             	adc    %ecx,0x2c(%edi)
1000a6a9:	8b ce                	mov    %esi,%ecx
1000a6ab:	0f a4 c1 01          	shld   $0x1,%eax,%ecx
1000a6af:	03 c0                	add    %eax,%eax
1000a6b1:	01 47 28             	add    %eax,0x28(%edi)
1000a6b4:	11 4f 2c             	adc    %ecx,0x2c(%edi)
1000a6b7:	01 57 28             	add    %edx,0x28(%edi)
1000a6ba:	8b 57 70             	mov    0x70(%edi),%edx
1000a6bd:	8b c2                	mov    %edx,%eax
1000a6bf:	11 77 2c             	adc    %esi,0x2c(%edi)
1000a6c2:	8b 77 74             	mov    0x74(%edi),%esi
1000a6c5:	8b ce                	mov    %esi,%ecx
1000a6c7:	0f a4 c1 04          	shld   $0x4,%eax,%ecx
1000a6cb:	c1 e0 04             	shl    $0x4,%eax
1000a6ce:	01 47 20             	add    %eax,0x20(%edi)
1000a6d1:	8b c2                	mov    %edx,%eax
1000a6d3:	11 4f 24             	adc    %ecx,0x24(%edi)
1000a6d6:	8b ce                	mov    %esi,%ecx
1000a6d8:	0f a4 c1 01          	shld   $0x1,%eax,%ecx
1000a6dc:	03 c0                	add    %eax,%eax
1000a6de:	01 47 20             	add    %eax,0x20(%edi)
1000a6e1:	11 4f 24             	adc    %ecx,0x24(%edi)
1000a6e4:	01 57 20             	add    %edx,0x20(%edi)
1000a6e7:	8b 57 68             	mov    0x68(%edi),%edx
1000a6ea:	8b c2                	mov    %edx,%eax
1000a6ec:	11 77 24             	adc    %esi,0x24(%edi)
1000a6ef:	8b 77 6c             	mov    0x6c(%edi),%esi
1000a6f2:	8b ce                	mov    %esi,%ecx
1000a6f4:	0f a4 c1 04          	shld   $0x4,%eax,%ecx
1000a6f8:	c1 e0 04             	shl    $0x4,%eax
1000a6fb:	01 47 18             	add    %eax,0x18(%edi)
1000a6fe:	8b c2                	mov    %edx,%eax
1000a700:	11 4f 1c             	adc    %ecx,0x1c(%edi)
1000a703:	8b ce                	mov    %esi,%ecx
1000a705:	0f a4 c1 01          	shld   $0x1,%eax,%ecx
1000a709:	03 c0                	add    %eax,%eax
1000a70b:	01 47 18             	add    %eax,0x18(%edi)
1000a70e:	11 4f 1c             	adc    %ecx,0x1c(%edi)
1000a711:	01 57 18             	add    %edx,0x18(%edi)
1000a714:	8b 57 60             	mov    0x60(%edi),%edx
1000a717:	8b c2                	mov    %edx,%eax
1000a719:	11 77 1c             	adc    %esi,0x1c(%edi)
1000a71c:	8b 77 64             	mov    0x64(%edi),%esi
1000a71f:	8b ce                	mov    %esi,%ecx
1000a721:	0f a4 c1 04          	shld   $0x4,%eax,%ecx
1000a725:	c1 e0 04             	shl    $0x4,%eax
1000a728:	01 47 10             	add    %eax,0x10(%edi)
1000a72b:	8b c2                	mov    %edx,%eax
1000a72d:	11 4f 14             	adc    %ecx,0x14(%edi)
1000a730:	8b ce                	mov    %esi,%ecx
1000a732:	0f a4 c1 01          	shld   $0x1,%eax,%ecx
1000a736:	03 c0                	add    %eax,%eax
1000a738:	01 47 10             	add    %eax,0x10(%edi)
1000a73b:	11 4f 14             	adc    %ecx,0x14(%edi)
1000a73e:	01 57 10             	add    %edx,0x10(%edi)
1000a741:	8b 57 58             	mov    0x58(%edi),%edx
1000a744:	8b c2                	mov    %edx,%eax
1000a746:	11 77 14             	adc    %esi,0x14(%edi)
1000a749:	8b 77 5c             	mov    0x5c(%edi),%esi
1000a74c:	8b ce                	mov    %esi,%ecx
1000a74e:	0f a4 c1 04          	shld   $0x4,%eax,%ecx
1000a752:	c1 e0 04             	shl    $0x4,%eax
1000a755:	01 47 08             	add    %eax,0x8(%edi)
1000a758:	8b c2                	mov    %edx,%eax
1000a75a:	11 4f 0c             	adc    %ecx,0xc(%edi)
1000a75d:	8b ce                	mov    %esi,%ecx
1000a75f:	0f a4 c1 01          	shld   $0x1,%eax,%ecx
1000a763:	03 c0                	add    %eax,%eax
1000a765:	01 47 08             	add    %eax,0x8(%edi)
1000a768:	11 4f 0c             	adc    %ecx,0xc(%edi)
1000a76b:	01 57 08             	add    %edx,0x8(%edi)
1000a76e:	8b 57 50             	mov    0x50(%edi),%edx
1000a771:	8b c2                	mov    %edx,%eax
1000a773:	11 77 0c             	adc    %esi,0xc(%edi)
1000a776:	8b 77 54             	mov    0x54(%edi),%esi
1000a779:	8b ce                	mov    %esi,%ecx
1000a77b:	0f a4 c1 04          	shld   $0x4,%eax,%ecx
1000a77f:	c1 e0 04             	shl    $0x4,%eax
1000a782:	01 07                	add    %eax,(%edi)
1000a784:	8b c2                	mov    %edx,%eax
1000a786:	11 4f 04             	adc    %ecx,0x4(%edi)
1000a789:	8b ce                	mov    %esi,%ecx
1000a78b:	0f a4 c1 01          	shld   $0x1,%eax,%ecx
1000a78f:	03 c0                	add    %eax,%eax
1000a791:	01 07                	add    %eax,(%edi)
1000a793:	11 4f 04             	adc    %ecx,0x4(%edi)
1000a796:	01 17                	add    %edx,(%edi)
1000a798:	11 77 04             	adc    %esi,0x4(%edi)
1000a79b:	5f                   	pop    %edi
1000a79c:	5e                   	pop    %esi
1000a79d:	5d                   	pop    %ebp
1000a79e:	c3                   	ret    
1000a79f:	55                   	push   %ebp
1000a7a0:	8b ec                	mov    %esp,%ebp
1000a7a2:	81 ec 98 00 00 00    	sub    $0x98,%esp
1000a7a8:	8d 85 68 ff ff ff    	lea    -0x98(%ebp),%eax
1000a7ae:	56                   	push   %esi
1000a7af:	57                   	push   %edi
1000a7b0:	ff 75 0c             	pushl  0xc(%ebp)
1000a7b3:	50                   	push   %eax
1000a7b4:	e8 2f 00 00 00       	call   0x1000a7e8
1000a7b9:	8d 85 68 ff ff ff    	lea    -0x98(%ebp),%eax
1000a7bf:	50                   	push   %eax
1000a7c0:	e8 2a fe ff ff       	call   0x1000a5ef
1000a7c5:	8d 85 68 ff ff ff    	lea    -0x98(%ebp),%eax
1000a7cb:	50                   	push   %eax
1000a7cc:	e8 0a fd ff ff       	call   0x1000a4db
1000a7d1:	8b 7d 08             	mov    0x8(%ebp),%edi
1000a7d4:	8d b5 68 ff ff ff    	lea    -0x98(%ebp),%esi
1000a7da:	83 c4 10             	add    $0x10,%esp
1000a7dd:	6a 14                	push   $0x14
1000a7df:	59                   	pop    %ecx
1000a7e0:	f3 a5                	rep movsl %ds:(%esi),%es:(%edi)
1000a7e2:	5f                   	pop    %edi
1000a7e3:	5e                   	pop    %esi
1000a7e4:	8b e5                	mov    %ebp,%esp
1000a7e6:	5d                   	pop    %ebp
1000a7e7:	c3                   	ret    
1000a7e8:	55                   	push   %ebp
1000a7e9:	8b ec                	mov    %esp,%ebp
1000a7eb:	53                   	push   %ebx
1000a7ec:	8b 5d 08             	mov    0x8(%ebp),%ebx
1000a7ef:	56                   	push   %esi
1000a7f0:	57                   	push   %edi
1000a7f1:	8b 7d 0c             	mov    0xc(%ebp),%edi
1000a7f4:	8b 07                	mov    (%edi),%eax
1000a7f6:	f7 e8                	imul   %eax
1000a7f8:	89 03                	mov    %eax,(%ebx)
1000a7fa:	89 53 04             	mov    %edx,0x4(%ebx)
1000a7fd:	8b 07                	mov    (%edi),%eax
1000a7ff:	f7 6f 08             	imull  0x8(%edi)
1000a802:	0f a4 c2 01          	shld   $0x1,%eax,%edx
1000a806:	03 c0                	add    %eax,%eax
1000a808:	89 53 0c             	mov    %edx,0xc(%ebx)
1000a80b:	89 43 08             	mov    %eax,0x8(%ebx)
1000a80e:	8b 07                	mov    (%edi),%eax
1000a810:	f7 6f 10             	imull  0x10(%edi)
1000a813:	8b c8                	mov    %eax,%ecx
1000a815:	8b f2                	mov    %edx,%esi
1000a817:	8b 47 08             	mov    0x8(%edi),%eax
1000a81a:	f7 e8                	imul   %eax
1000a81c:	03 c8                	add    %eax,%ecx
1000a81e:	13 f2                	adc    %edx,%esi
1000a820:	0f a4 ce 01          	shld   $0x1,%ecx,%esi
1000a824:	89 73 14             	mov    %esi,0x14(%ebx)
1000a827:	03 c9                	add    %ecx,%ecx
1000a829:	89 4b 10             	mov    %ecx,0x10(%ebx)
1000a82c:	8b 07                	mov    (%edi),%eax
1000a82e:	f7 6f 18             	imull  0x18(%edi)
1000a831:	8b c8                	mov    %eax,%ecx
1000a833:	8b f2                	mov    %edx,%esi
1000a835:	8b 47 08             	mov    0x8(%edi),%eax
1000a838:	f7 6f 10             	imull  0x10(%edi)
1000a83b:	03 c8                	add    %eax,%ecx
1000a83d:	13 f2                	adc    %edx,%esi
1000a83f:	0f a4 ce 01          	shld   $0x1,%ecx,%esi
1000a843:	89 73 1c             	mov    %esi,0x1c(%ebx)
1000a846:	03 c9                	add    %ecx,%ecx
1000a848:	89 4b 18             	mov    %ecx,0x18(%ebx)
1000a84b:	8b 47 08             	mov    0x8(%edi),%eax
1000a84e:	f7 6f 18             	imull  0x18(%edi)
1000a851:	8b c8                	mov    %eax,%ecx
1000a853:	8b f2                	mov    %edx,%esi
1000a855:	8b 07                	mov    (%edi),%eax
1000a857:	f7 6f 20             	imull  0x20(%edi)
1000a85a:	0f a4 ce 01          	shld   $0x1,%ecx,%esi
1000a85e:	03 c9                	add    %ecx,%ecx
1000a860:	03 c8                	add    %eax,%ecx
1000a862:	8b 47 10             	mov    0x10(%edi),%eax
1000a865:	13 f2                	adc    %edx,%esi
1000a867:	0f a4 ce 01          	shld   $0x1,%ecx,%esi
1000a86b:	f7 e8                	imul   %eax
1000a86d:	03 c9                	add    %ecx,%ecx
1000a86f:	03 c8                	add    %eax,%ecx
1000a871:	89 4b 20             	mov    %ecx,0x20(%ebx)
1000a874:	13 f2                	adc    %edx,%esi
1000a876:	89 73 24             	mov    %esi,0x24(%ebx)
1000a879:	8b 47 08             	mov    0x8(%edi),%eax
1000a87c:	f7 6f 20             	imull  0x20(%edi)
1000a87f:	8b c8                	mov    %eax,%ecx
1000a881:	8b f2                	mov    %edx,%esi
1000a883:	8b 47 10             	mov    0x10(%edi),%eax
1000a886:	f7 6f 18             	imull  0x18(%edi)
1000a889:	03 c8                	add    %eax,%ecx
1000a88b:	8b 07                	mov    (%edi),%eax
1000a88d:	13 f2                	adc    %edx,%esi
1000a88f:	f7 6f 28             	imull  0x28(%edi)
1000a892:	03 c8                	add    %eax,%ecx
1000a894:	13 f2                	adc    %edx,%esi
1000a896:	0f a4 ce 01          	shld   $0x1,%ecx,%esi
1000a89a:	03 c9                	add    %ecx,%ecx
1000a89c:	89 73 2c             	mov    %esi,0x2c(%ebx)
1000a89f:	89 4b 28             	mov    %ecx,0x28(%ebx)
1000a8a2:	8b 47 08             	mov    0x8(%edi),%eax
1000a8a5:	f7 6f 28             	imull  0x28(%edi)
1000a8a8:	8b c8                	mov    %eax,%ecx
1000a8aa:	8b f2                	mov    %edx,%esi
1000a8ac:	8b 47 10             	mov    0x10(%edi),%eax
1000a8af:	0f a4 ce 01          	shld   $0x1,%ecx,%esi
1000a8b3:	03 c9                	add    %ecx,%ecx
1000a8b5:	f7 6f 20             	imull  0x20(%edi)
1000a8b8:	03 c8                	add    %eax,%ecx
1000a8ba:	8b 47 18             	mov    0x18(%edi),%eax
1000a8bd:	13 f2                	adc    %edx,%esi
1000a8bf:	f7 e8                	imul   %eax
1000a8c1:	03 c8                	add    %eax,%ecx
1000a8c3:	8b 07                	mov    (%edi),%eax
1000a8c5:	13 f2                	adc    %edx,%esi
1000a8c7:	f7 6f 30             	imull  0x30(%edi)
1000a8ca:	03 c8                	add    %eax,%ecx
1000a8cc:	13 f2                	adc    %edx,%esi
1000a8ce:	0f a4 ce 01          	shld   $0x1,%ecx,%esi
1000a8d2:	89 73 34             	mov    %esi,0x34(%ebx)
1000a8d5:	03 c9                	add    %ecx,%ecx
1000a8d7:	89 4b 30             	mov    %ecx,0x30(%ebx)
1000a8da:	8b 47 18             	mov    0x18(%edi),%eax
1000a8dd:	f7 6f 20             	imull  0x20(%edi)
1000a8e0:	8b c8                	mov    %eax,%ecx
1000a8e2:	8b f2                	mov    %edx,%esi
1000a8e4:	8b 07                	mov    (%edi),%eax
1000a8e6:	f7 6f 38             	imull  0x38(%edi)
1000a8e9:	03 c8                	add    %eax,%ecx
1000a8eb:	8b 47 10             	mov    0x10(%edi),%eax
1000a8ee:	13 f2                	adc    %edx,%esi
1000a8f0:	f7 6f 28             	imull  0x28(%edi)
1000a8f3:	03 c8                	add    %eax,%ecx
1000a8f5:	8b 47 08             	mov    0x8(%edi),%eax
1000a8f8:	13 f2                	adc    %edx,%esi
1000a8fa:	f7 6f 30             	imull  0x30(%edi)
1000a8fd:	03 c8                	add    %eax,%ecx
1000a8ff:	13 f2                	adc    %edx,%esi
1000a901:	0f a4 ce 01          	shld   $0x1,%ecx,%esi
1000a905:	89 73 3c             	mov    %esi,0x3c(%ebx)
1000a908:	03 c9                	add    %ecx,%ecx
1000a90a:	89 4b 38             	mov    %ecx,0x38(%ebx)
1000a90d:	8b 47 08             	mov    0x8(%edi),%eax
1000a910:	f7 6f 38             	imull  0x38(%edi)
1000a913:	8b c8                	mov    %eax,%ecx
1000a915:	8b f2                	mov    %edx,%esi
1000a917:	8b 47 18             	mov    0x18(%edi),%eax
1000a91a:	f7 6f 28             	imull  0x28(%edi)
1000a91d:	03 c8                	add    %eax,%ecx
1000a91f:	8b 07                	mov    (%edi),%eax
1000a921:	13 f2                	adc    %edx,%esi
1000a923:	f7 6f 40             	imull  0x40(%edi)
1000a926:	0f a4 ce 01          	shld   $0x1,%ecx,%esi
1000a92a:	03 c9                	add    %ecx,%ecx
1000a92c:	03 c8                	add    %eax,%ecx
1000a92e:	8b 47 10             	mov    0x10(%edi),%eax
1000a931:	13 f2                	adc    %edx,%esi
1000a933:	f7 6f 30             	imull  0x30(%edi)
1000a936:	03 c8                	add    %eax,%ecx
1000a938:	8b 47 20             	mov    0x20(%edi),%eax
1000a93b:	13 f2                	adc    %edx,%esi
1000a93d:	f7 e8                	imul   %eax
1000a93f:	0f a4 ce 01          	shld   $0x1,%ecx,%esi
1000a943:	03 c9                	add    %ecx,%ecx
1000a945:	03 c8                	add    %eax,%ecx
1000a947:	89 4b 40             	mov    %ecx,0x40(%ebx)
1000a94a:	13 f2                	adc    %edx,%esi
1000a94c:	89 73 44             	mov    %esi,0x44(%ebx)
1000a94f:	8b 47 20             	mov    0x20(%edi),%eax
1000a952:	f7 6f 28             	imull  0x28(%edi)
1000a955:	8b c8                	mov    %eax,%ecx
1000a957:	8b f2                	mov    %edx,%esi
1000a959:	8b 47 10             	mov    0x10(%edi),%eax
1000a95c:	f7 6f 38             	imull  0x38(%edi)
1000a95f:	03 c8                	add    %eax,%ecx
1000a961:	8b 47 08             	mov    0x8(%edi),%eax
1000a964:	13 f2                	adc    %edx,%esi
1000a966:	f7 6f 40             	imull  0x40(%edi)
1000a969:	03 c8                	add    %eax,%ecx
1000a96b:	8b 47 18             	mov    0x18(%edi),%eax
1000a96e:	13 f2                	adc    %edx,%esi
1000a970:	f7 6f 30             	imull  0x30(%edi)
1000a973:	03 c8                	add    %eax,%ecx
1000a975:	8b 07                	mov    (%edi),%eax
1000a977:	13 f2                	adc    %edx,%esi
1000a979:	f7 6f 48             	imull  0x48(%edi)
1000a97c:	03 c8                	add    %eax,%ecx
1000a97e:	13 f2                	adc    %edx,%esi
1000a980:	0f a4 ce 01          	shld   $0x1,%ecx,%esi
1000a984:	89 73 4c             	mov    %esi,0x4c(%ebx)
1000a987:	03 c9                	add    %ecx,%ecx
1000a989:	89 4b 48             	mov    %ecx,0x48(%ebx)
1000a98c:	8b 47 18             	mov    0x18(%edi),%eax
1000a98f:	f7 6f 38             	imull  0x38(%edi)
1000a992:	8b c8                	mov    %eax,%ecx
1000a994:	8b f2                	mov    %edx,%esi
1000a996:	8b 47 08             	mov    0x8(%edi),%eax
1000a999:	f7 6f 48             	imull  0x48(%edi)
1000a99c:	03 c8                	add    %eax,%ecx
1000a99e:	8b 47 20             	mov    0x20(%edi),%eax
1000a9a1:	13 f2                	adc    %edx,%esi
1000a9a3:	f7 6f 30             	imull  0x30(%edi)
1000a9a6:	0f a4 ce 01          	shld   $0x1,%ecx,%esi
1000a9aa:	03 c9                	add    %ecx,%ecx
1000a9ac:	03 c8                	add    %eax,%ecx
1000a9ae:	8b 47 10             	mov    0x10(%edi),%eax
1000a9b1:	13 f2                	adc    %edx,%esi
1000a9b3:	f7 6f 40             	imull  0x40(%edi)
1000a9b6:	03 c8                	add    %eax,%ecx
1000a9b8:	8b 47 28             	mov    0x28(%edi),%eax
1000a9bb:	13 f2                	adc    %edx,%esi
1000a9bd:	f7 e8                	imul   %eax
1000a9bf:	03 c8                	add    %eax,%ecx
1000a9c1:	13 f2                	adc    %edx,%esi
1000a9c3:	0f a4 ce 01          	shld   $0x1,%ecx,%esi
1000a9c7:	89 73 54             	mov    %esi,0x54(%ebx)
1000a9ca:	03 c9                	add    %ecx,%ecx
1000a9cc:	89 4b 50             	mov    %ecx,0x50(%ebx)
1000a9cf:	8b 47 18             	mov    0x18(%edi),%eax
1000a9d2:	f7 6f 40             	imull  0x40(%edi)
1000a9d5:	8b c8                	mov    %eax,%ecx
1000a9d7:	8b f2                	mov    %edx,%esi
1000a9d9:	8b 47 20             	mov    0x20(%edi),%eax
1000a9dc:	f7 6f 38             	imull  0x38(%edi)
1000a9df:	03 c8                	add    %eax,%ecx
1000a9e1:	8b 47 28             	mov    0x28(%edi),%eax
1000a9e4:	13 f2                	adc    %edx,%esi
1000a9e6:	f7 6f 30             	imull  0x30(%edi)
1000a9e9:	03 c8                	add    %eax,%ecx
1000a9eb:	8b 47 10             	mov    0x10(%edi),%eax
1000a9ee:	13 f2                	adc    %edx,%esi
1000a9f0:	f7 6f 48             	imull  0x48(%edi)
1000a9f3:	03 c8                	add    %eax,%ecx
1000a9f5:	13 f2                	adc    %edx,%esi
1000a9f7:	0f a4 ce 01          	shld   $0x1,%ecx,%esi
1000a9fb:	89 73 5c             	mov    %esi,0x5c(%ebx)
1000a9fe:	03 c9                	add    %ecx,%ecx
1000aa00:	89 4b 58             	mov    %ecx,0x58(%ebx)
1000aa03:	8b 47 28             	mov    0x28(%edi),%eax
1000aa06:	f7 6f 38             	imull  0x38(%edi)
1000aa09:	8b c8                	mov    %eax,%ecx
1000aa0b:	8b f2                	mov    %edx,%esi
1000aa0d:	8b 47 18             	mov    0x18(%edi),%eax
1000aa10:	f7 6f 48             	imull  0x48(%edi)
1000aa13:	03 c8                	add    %eax,%ecx
1000aa15:	8b 47 20             	mov    0x20(%edi),%eax
1000aa18:	13 f2                	adc    %edx,%esi
1000aa1a:	f7 6f 40             	imull  0x40(%edi)
1000aa1d:	0f a4 ce 01          	shld   $0x1,%ecx,%esi
1000aa21:	03 c9                	add    %ecx,%ecx
1000aa23:	03 c8                	add    %eax,%ecx
1000aa25:	8b 47 30             	mov    0x30(%edi),%eax
1000aa28:	13 f2                	adc    %edx,%esi
1000aa2a:	f7 e8                	imul   %eax
1000aa2c:	0f a4 ce 01          	shld   $0x1,%ecx,%esi
1000aa30:	03 c9                	add    %ecx,%ecx
1000aa32:	03 c8                	add    %eax,%ecx
1000aa34:	89 4b 60             	mov    %ecx,0x60(%ebx)
1000aa37:	13 f2                	adc    %edx,%esi
1000aa39:	89 73 64             	mov    %esi,0x64(%ebx)
1000aa3c:	8b 47 20             	mov    0x20(%edi),%eax
1000aa3f:	f7 6f 48             	imull  0x48(%edi)
1000aa42:	8b c8                	mov    %eax,%ecx
1000aa44:	8b f2                	mov    %edx,%esi
1000aa46:	8b 47 28             	mov    0x28(%edi),%eax
1000aa49:	f7 6f 40             	imull  0x40(%edi)
1000aa4c:	03 c8                	add    %eax,%ecx
1000aa4e:	8b 47 30             	mov    0x30(%edi),%eax
1000aa51:	13 f2                	adc    %edx,%esi
1000aa53:	f7 6f 38             	imull  0x38(%edi)
1000aa56:	03 c8                	add    %eax,%ecx
1000aa58:	13 f2                	adc    %edx,%esi
1000aa5a:	0f a4 ce 01          	shld   $0x1,%ecx,%esi
1000aa5e:	89 73 6c             	mov    %esi,0x6c(%ebx)
1000aa61:	03 c9                	add    %ecx,%ecx
1000aa63:	89 4b 68             	mov    %ecx,0x68(%ebx)
1000aa66:	8b 47 28             	mov    0x28(%edi),%eax
1000aa69:	f7 6f 48             	imull  0x48(%edi)
1000aa6c:	8b c8                	mov    %eax,%ecx
1000aa6e:	8b f2                	mov    %edx,%esi
1000aa70:	8b 47 38             	mov    0x38(%edi),%eax
1000aa73:	f7 e8                	imul   %eax
1000aa75:	0f a4 ce 01          	shld   $0x1,%ecx,%esi
1000aa79:	03 c9                	add    %ecx,%ecx
1000aa7b:	03 c8                	add    %eax,%ecx
1000aa7d:	8b 47 30             	mov    0x30(%edi),%eax
1000aa80:	13 f2                	adc    %edx,%esi
1000aa82:	f7 6f 40             	imull  0x40(%edi)
1000aa85:	03 c8                	add    %eax,%ecx
1000aa87:	13 f2                	adc    %edx,%esi
1000aa89:	0f a4 ce 01          	shld   $0x1,%ecx,%esi
1000aa8d:	89 73 74             	mov    %esi,0x74(%ebx)
1000aa90:	03 c9                	add    %ecx,%ecx
1000aa92:	89 4b 70             	mov    %ecx,0x70(%ebx)
1000aa95:	8b 47 30             	mov    0x30(%edi),%eax
1000aa98:	f7 6f 48             	imull  0x48(%edi)
1000aa9b:	8b c8                	mov    %eax,%ecx
1000aa9d:	8b f2                	mov    %edx,%esi
1000aa9f:	8b 47 38             	mov    0x38(%edi),%eax
1000aaa2:	f7 6f 40             	imull  0x40(%edi)
1000aaa5:	03 c8                	add    %eax,%ecx
1000aaa7:	13 f2                	adc    %edx,%esi
1000aaa9:	0f a4 ce 01          	shld   $0x1,%ecx,%esi
1000aaad:	89 73 7c             	mov    %esi,0x7c(%ebx)
1000aab0:	03 c9                	add    %ecx,%ecx
1000aab2:	89 4b 78             	mov    %ecx,0x78(%ebx)
1000aab5:	8b 47 38             	mov    0x38(%edi),%eax
1000aab8:	f7 6f 48             	imull  0x48(%edi)
1000aabb:	8b c8                	mov    %eax,%ecx
1000aabd:	8b f2                	mov    %edx,%esi
1000aabf:	8b 47 40             	mov    0x40(%edi),%eax
1000aac2:	f7 e8                	imul   %eax
1000aac4:	0f a4 ce 02          	shld   $0x2,%ecx,%esi
1000aac8:	c1 e1 02             	shl    $0x2,%ecx
1000aacb:	03 c8                	add    %eax,%ecx
1000aacd:	89 8b 80 00 00 00    	mov    %ecx,0x80(%ebx)
1000aad3:	13 f2                	adc    %edx,%esi
1000aad5:	89 b3 84 00 00 00    	mov    %esi,0x84(%ebx)
1000aadb:	8b 47 40             	mov    0x40(%edi),%eax
1000aade:	f7 6f 48             	imull  0x48(%edi)
1000aae1:	0f a4 c2 01          	shld   $0x1,%eax,%edx
1000aae5:	03 c0                	add    %eax,%eax
1000aae7:	89 93 8c 00 00 00    	mov    %edx,0x8c(%ebx)
1000aaed:	89 83 88 00 00 00    	mov    %eax,0x88(%ebx)
1000aaf3:	8b 47 48             	mov    0x48(%edi),%eax
1000aaf6:	f7 e8                	imul   %eax
1000aaf8:	5f                   	pop    %edi
1000aaf9:	0f a4 c2 01          	shld   $0x1,%eax,%edx
1000aafd:	5e                   	pop    %esi
1000aafe:	03 c0                	add    %eax,%eax
1000ab00:	89 93 94 00 00 00    	mov    %edx,0x94(%ebx)
1000ab06:	89 83 90 00 00 00    	mov    %eax,0x90(%ebx)
1000ab0c:	5b                   	pop    %ebx
1000ab0d:	5d                   	pop    %ebp
1000ab0e:	c3                   	ret    
1000ab0f:	55                   	push   %ebp
1000ab10:	8b ec                	mov    %esp,%ebp
1000ab12:	8b 45 08             	mov    0x8(%ebp),%eax
1000ab15:	56                   	push   %esi
1000ab16:	57                   	push   %edi
1000ab17:	8b 7d 0c             	mov    0xc(%ebp),%edi
1000ab1a:	33 f6                	xor    %esi,%esi
1000ab1c:	8b d7                	mov    %edi,%edx
1000ab1e:	8d 48 08             	lea    0x8(%eax),%ecx
1000ab21:	2b d0                	sub    %eax,%edx
1000ab23:	8b 04 f7             	mov    (%edi,%esi,8),%eax
1000ab26:	01 41 f8             	add    %eax,-0x8(%ecx)
1000ab29:	8b 44 f7 04          	mov    0x4(%edi,%esi,8),%eax
1000ab2d:	11 41 fc             	adc    %eax,-0x4(%ecx)
1000ab30:	8b 04 0a             	mov    (%edx,%ecx,1),%eax
1000ab33:	01 01                	add    %eax,(%ecx)
1000ab35:	8b 44 0a 04          	mov    0x4(%edx,%ecx,1),%eax
1000ab39:	11 41 04             	adc    %eax,0x4(%ecx)
1000ab3c:	83 c6 02             	add    $0x2,%esi
1000ab3f:	8d 49 10             	lea    0x10(%ecx),%ecx
1000ab42:	83 fe 0a             	cmp    $0xa,%esi
1000ab45:	72 dc                	jb     0x1000ab23
1000ab47:	5f                   	pop    %edi
1000ab48:	5e                   	pop    %esi
1000ab49:	5d                   	pop    %ebp
1000ab4a:	c3                   	ret    
1000ab4b:	55                   	push   %ebp
1000ab4c:	8b ec                	mov    %esp,%ebp
1000ab4e:	8b 4d 08             	mov    0x8(%ebp),%ecx
1000ab51:	33 4d 0c             	xor    0xc(%ebp),%ecx
1000ab54:	f7 d1                	not    %ecx
1000ab56:	8b c1                	mov    %ecx,%eax
1000ab58:	c1 e0 10             	shl    $0x10,%eax
1000ab5b:	23 c8                	and    %eax,%ecx
1000ab5d:	8b c1                	mov    %ecx,%eax
1000ab5f:	c1 e0 08             	shl    $0x8,%eax
1000ab62:	23 c8                	and    %eax,%ecx
1000ab64:	8b c1                	mov    %ecx,%eax
1000ab66:	c1 e0 04             	shl    $0x4,%eax
1000ab69:	23 c8                	and    %eax,%ecx
1000ab6b:	8b c1                	mov    %ecx,%eax
1000ab6d:	c1 e0 02             	shl    $0x2,%eax
1000ab70:	23 c8                	and    %eax,%ecx
1000ab72:	8d 04 09             	lea    (%ecx,%ecx,1),%eax
1000ab75:	c1 f9 1f             	sar    $0x1f,%ecx
1000ab78:	c1 f8 1f             	sar    $0x1f,%eax
1000ab7b:	23 c1                	and    %ecx,%eax
1000ab7d:	5d                   	pop    %ebp
1000ab7e:	c3                   	ret    
1000ab7f:	55                   	push   %ebp
1000ab80:	8b ec                	mov    %esp,%ebp
1000ab82:	53                   	push   %ebx
1000ab83:	8b 5d 10             	mov    0x10(%ebp),%ebx
1000ab86:	56                   	push   %esi
1000ab87:	8b 75 0c             	mov    0xc(%ebp),%esi
1000ab8a:	f7 db                	neg    %ebx
1000ab8c:	57                   	push   %edi
1000ab8d:	8b 7d 08             	mov    0x8(%ebp),%edi
1000ab90:	2b fe                	sub    %esi,%edi
1000ab92:	c7 45 14 0a 00 00 00 	movl   $0xa,0x14(%ebp)
1000ab99:	8b 04 37             	mov    (%edi,%esi,1),%eax
1000ab9c:	8b 0e                	mov    (%esi),%ecx
1000ab9e:	33 c8                	xor    %eax,%ecx
1000aba0:	23 cb                	and    %ebx,%ecx
1000aba2:	33 c1                	xor    %ecx,%eax
1000aba4:	99                   	cltd   
1000aba5:	89 04 37             	mov    %eax,(%edi,%esi,1)
1000aba8:	89 54 37 04          	mov    %edx,0x4(%edi,%esi,1)
1000abac:	8b 06                	mov    (%esi),%eax
1000abae:	33 c1                	xor    %ecx,%eax
1000abb0:	83 6d 14 01          	subl   $0x1,0x14(%ebp)
1000abb4:	99                   	cltd   
1000abb5:	89 06                	mov    %eax,(%esi)
1000abb7:	8d 76 08             	lea    0x8(%esi),%esi
1000abba:	89 56 fc             	mov    %edx,-0x4(%esi)
1000abbd:	75 da                	jne    0x1000ab99
1000abbf:	5f                   	pop    %edi
1000abc0:	5e                   	pop    %esi
1000abc1:	5b                   	pop    %ebx
1000abc2:	5d                   	pop    %ebp
1000abc3:	c3                   	ret    
1000abc4:	55                   	push   %ebp
1000abc5:	8b ec                	mov    %esp,%ebp
1000abc7:	81 ec cc 00 00 00    	sub    $0xcc,%esp
1000abcd:	83 7d 08 00          	cmpl   $0x0,0x8(%ebp)
1000abd1:	53                   	push   %ebx
1000abd2:	56                   	push   %esi
1000abd3:	57                   	push   %edi
1000abd4:	0f 84 1c 01 00 00    	je     0x1000acf6
1000abda:	8b 5d 10             	mov    0x10(%ebp),%ebx
1000abdd:	8b 7d 14             	mov    0x14(%ebp),%edi
1000abe0:	85 db                	test   %ebx,%ebx
1000abe2:	75 08                	jne    0x1000abec
1000abe4:	85 ff                	test   %edi,%edi
1000abe6:	0f 85 0a 01 00 00    	jne    0x1000acf6
1000abec:	8b 75 18             	mov    0x18(%ebp),%esi
1000abef:	b8 c8 00 00 00       	mov    $0xc8,%eax
1000abf4:	3b f0                	cmp    %eax,%esi
1000abf6:	0f 83 fa 00 00 00    	jae    0x1000acf6
1000abfc:	50                   	push   %eax
1000abfd:	8d 85 34 ff ff ff    	lea    -0xcc(%ebp),%eax
1000ac03:	6a 00                	push   $0x0
1000ac05:	50                   	push   %eax
1000ac06:	e8 04 9f ff ff       	call   0x10004b0f
1000ac0b:	83 c4 0c             	add    $0xc,%esp
1000ac0e:	3b fe                	cmp    %esi,%edi
1000ac10:	72 46                	jb     0x1000ac58
1000ac12:	8b c3                	mov    %ebx,%eax
1000ac14:	8d 8d 34 ff ff ff    	lea    -0xcc(%ebp),%ecx
1000ac1a:	2b c1                	sub    %ecx,%eax
1000ac1c:	89 45 fc             	mov    %eax,-0x4(%ebp)
1000ac1f:	33 d2                	xor    %edx,%edx
1000ac21:	85 f6                	test   %esi,%esi
1000ac23:	74 18                	je     0x1000ac3d
1000ac25:	8b 7d fc             	mov    -0x4(%ebp),%edi
1000ac28:	8d 8d 34 ff ff ff    	lea    -0xcc(%ebp),%ecx
1000ac2e:	03 ca                	add    %edx,%ecx
1000ac30:	8a 04 0f             	mov    (%edi,%ecx,1),%al
1000ac33:	30 01                	xor    %al,(%ecx)
1000ac35:	42                   	inc    %edx
1000ac36:	3b d6                	cmp    %esi,%edx
1000ac38:	72 ee                	jb     0x1000ac28
1000ac3a:	8b 7d 14             	mov    0x14(%ebp),%edi
1000ac3d:	8d 85 34 ff ff ff    	lea    -0xcc(%ebp),%eax
1000ac43:	50                   	push   %eax
1000ac44:	e8 b7 00 00 00       	call   0x1000ad00
1000ac49:	01 75 fc             	add    %esi,-0x4(%ebp)
1000ac4c:	2b fe                	sub    %esi,%edi
1000ac4e:	03 de                	add    %esi,%ebx
1000ac50:	89 7d 14             	mov    %edi,0x14(%ebp)
1000ac53:	59                   	pop    %ecx
1000ac54:	3b fe                	cmp    %esi,%edi
1000ac56:	73 c7                	jae    0x1000ac1f
1000ac58:	8a 45 1c             	mov    0x1c(%ebp),%al
1000ac5b:	30 84 3d 34 ff ff ff 	xor    %al,-0xcc(%ebp,%edi,1)
1000ac62:	80 b4 35 33 ff ff ff 	xorb   $0x80,-0xcd(%ebp,%esi,1)
1000ac69:	80 
1000ac6a:	85 ff                	test   %edi,%edi
1000ac6c:	74 1c                	je     0x1000ac8a
1000ac6e:	8d 85 34 ff ff ff    	lea    -0xcc(%ebp),%eax
1000ac74:	2b d8                	sub    %eax,%ebx
1000ac76:	33 d2                	xor    %edx,%edx
1000ac78:	8d 8d 34 ff ff ff    	lea    -0xcc(%ebp),%ecx
1000ac7e:	03 ca                	add    %edx,%ecx
1000ac80:	8a 04 0b             	mov    (%ebx,%ecx,1),%al
1000ac83:	30 01                	xor    %al,(%ecx)
1000ac85:	42                   	inc    %edx
1000ac86:	3b d7                	cmp    %edi,%edx
1000ac88:	72 ee                	jb     0x1000ac78
1000ac8a:	8d 85 34 ff ff ff    	lea    -0xcc(%ebp),%eax
1000ac90:	50                   	push   %eax
1000ac91:	e8 6a 00 00 00       	call   0x1000ad00
1000ac96:	8b 7d 0c             	mov    0xc(%ebp),%edi
1000ac99:	8b 45 08             	mov    0x8(%ebp),%eax
1000ac9c:	59                   	pop    %ecx
1000ac9d:	3b fe                	cmp    %esi,%edi
1000ac9f:	72 2d                	jb     0x1000acce
1000aca1:	85 f6                	test   %esi,%esi
1000aca3:	74 11                	je     0x1000acb6
1000aca5:	56                   	push   %esi
1000aca6:	8d 8d 34 ff ff ff    	lea    -0xcc(%ebp),%ecx
1000acac:	51                   	push   %ecx
1000acad:	50                   	push   %eax
1000acae:	e8 37 9e ff ff       	call   0x10004aea
1000acb3:	83 c4 0c             	add    $0xc,%esp
1000acb6:	8d 85 34 ff ff ff    	lea    -0xcc(%ebp),%eax
1000acbc:	50                   	push   %eax
1000acbd:	e8 3e 00 00 00       	call   0x1000ad00
1000acc2:	8b 45 08             	mov    0x8(%ebp),%eax
1000acc5:	03 c6                	add    %esi,%eax
1000acc7:	2b fe                	sub    %esi,%edi
1000acc9:	89 45 08             	mov    %eax,0x8(%ebp)
1000accc:	eb ce                	jmp    0x1000ac9c
1000acce:	85 ff                	test   %edi,%edi
1000acd0:	74 11                	je     0x1000ace3
1000acd2:	57                   	push   %edi
1000acd3:	8d 95 34 ff ff ff    	lea    -0xcc(%ebp),%edx
1000acd9:	52                   	push   %edx
1000acda:	50                   	push   %eax
1000acdb:	e8 0a 9e ff ff       	call   0x10004aea
1000ace0:	83 c4 0c             	add    $0xc,%esp
1000ace3:	32 c0                	xor    %al,%al
1000ace5:	8d bd 34 ff ff ff    	lea    -0xcc(%ebp),%edi
1000aceb:	b9 c8 00 00 00       	mov    $0xc8,%ecx
1000acf0:	f3 aa                	rep stos %al,%es:(%edi)
1000acf2:	33 c0                	xor    %eax,%eax
1000acf4:	eb 03                	jmp    0x1000acf9
1000acf6:	83 c8 ff             	or     $0xffffffff,%eax
1000acf9:	5f                   	pop    %edi
1000acfa:	5e                   	pop    %esi
1000acfb:	5b                   	pop    %ebx
1000acfc:	8b e5                	mov    %ebp,%esp
1000acfe:	5d                   	pop    %ebp
1000acff:	c3                   	ret    
1000ad00:	55                   	push   %ebp
1000ad01:	8b ec                	mov    %esp,%ebp
1000ad03:	83 ec 28             	sub    $0x28,%esp
1000ad06:	53                   	push   %ebx
1000ad07:	56                   	push   %esi
1000ad08:	8b 75 08             	mov    0x8(%ebp),%esi
1000ad0b:	57                   	push   %edi
1000ad0c:	c7 45 d8 18 fd 00 10 	movl   $0x1000fd18,-0x28(%ebp)
1000ad13:	8b 5e 10             	mov    0x10(%esi),%ebx
1000ad16:	33 5e 38             	xor    0x38(%esi),%ebx
1000ad19:	33 5e 60             	xor    0x60(%esi),%ebx
1000ad1c:	33 9e 88 00 00 00    	xor    0x88(%esi),%ebx
1000ad22:	33 9e b0 00 00 00    	xor    0xb0(%esi),%ebx
1000ad28:	8b 06                	mov    (%esi),%eax
1000ad2a:	33 46 28             	xor    0x28(%esi),%eax
1000ad2d:	33 46 50             	xor    0x50(%esi),%eax
1000ad30:	33 46 78             	xor    0x78(%esi),%eax
1000ad33:	33 86 a0 00 00 00    	xor    0xa0(%esi),%eax
1000ad39:	8b 4e 04             	mov    0x4(%esi),%ecx
1000ad3c:	33 4e 2c             	xor    0x2c(%esi),%ecx
1000ad3f:	33 4e 54             	xor    0x54(%esi),%ecx
1000ad42:	33 4e 7c             	xor    0x7c(%esi),%ecx
1000ad45:	33 8e a4 00 00 00    	xor    0xa4(%esi),%ecx
1000ad4b:	8b 56 14             	mov    0x14(%esi),%edx
1000ad4e:	33 56 3c             	xor    0x3c(%esi),%edx
1000ad51:	33 56 64             	xor    0x64(%esi),%edx
1000ad54:	33 96 8c 00 00 00    	xor    0x8c(%esi),%edx
1000ad5a:	33 96 b4 00 00 00    	xor    0xb4(%esi),%edx
1000ad60:	8b 7e 20             	mov    0x20(%esi),%edi
1000ad63:	33 7e 48             	xor    0x48(%esi),%edi
1000ad66:	33 7e 70             	xor    0x70(%esi),%edi
1000ad69:	33 be 98 00 00 00    	xor    0x98(%esi),%edi
1000ad6f:	33 be c0 00 00 00    	xor    0xc0(%esi),%edi
1000ad75:	89 5d f8             	mov    %ebx,-0x8(%ebp)
1000ad78:	8b 5e 18             	mov    0x18(%esi),%ebx
1000ad7b:	33 5e 40             	xor    0x40(%esi),%ebx
1000ad7e:	33 5e 68             	xor    0x68(%esi),%ebx
1000ad81:	33 9e 90 00 00 00    	xor    0x90(%esi),%ebx
1000ad87:	33 9e b8 00 00 00    	xor    0xb8(%esi),%ebx
1000ad8d:	89 45 f0             	mov    %eax,-0x10(%ebp)
1000ad90:	8b 46 08             	mov    0x8(%esi),%eax
1000ad93:	33 46 30             	xor    0x30(%esi),%eax
1000ad96:	33 46 58             	xor    0x58(%esi),%eax
1000ad99:	33 86 80 00 00 00    	xor    0x80(%esi),%eax
1000ad9f:	33 86 a8 00 00 00    	xor    0xa8(%esi),%eax
1000ada5:	89 4d f4             	mov    %ecx,-0xc(%ebp)
1000ada8:	8b 4e 0c             	mov    0xc(%esi),%ecx
1000adab:	33 4e 34             	xor    0x34(%esi),%ecx
1000adae:	33 4e 5c             	xor    0x5c(%esi),%ecx
1000adb1:	33 8e 84 00 00 00    	xor    0x84(%esi),%ecx
1000adb7:	33 8e ac 00 00 00    	xor    0xac(%esi),%ecx
1000adbd:	89 55 dc             	mov    %edx,-0x24(%ebp)
1000adc0:	8b 56 1c             	mov    0x1c(%esi),%edx
1000adc3:	33 56 44             	xor    0x44(%esi),%edx
1000adc6:	33 56 6c             	xor    0x6c(%esi),%edx
1000adc9:	33 96 94 00 00 00    	xor    0x94(%esi),%edx
1000adcf:	33 96 bc 00 00 00    	xor    0xbc(%esi),%edx
1000add5:	89 5d e4             	mov    %ebx,-0x1c(%ebp)
1000add8:	8b 5e 24             	mov    0x24(%esi),%ebx
1000addb:	33 5e 4c             	xor    0x4c(%esi),%ebx
1000adde:	33 5e 74             	xor    0x74(%esi),%ebx
1000ade1:	33 9e 9c 00 00 00    	xor    0x9c(%esi),%ebx
1000ade7:	33 9e c4 00 00 00    	xor    0xc4(%esi),%ebx
1000aded:	8b f1                	mov    %ecx,%esi
1000adef:	89 45 ec             	mov    %eax,-0x14(%ebp)
1000adf2:	89 4d e8             	mov    %ecx,-0x18(%ebp)
1000adf5:	0f a4 c1 01          	shld   $0x1,%eax,%ecx
1000adf9:	c1 ee 1f             	shr    $0x1f,%esi
1000adfc:	03 c0                	add    %eax,%eax
1000adfe:	89 55 e0             	mov    %edx,-0x20(%ebp)
1000ae01:	0b f0                	or     %eax,%esi
1000ae03:	89 5d fc             	mov    %ebx,-0x4(%ebp)
1000ae06:	8b 45 08             	mov    0x8(%ebp),%eax
1000ae09:	33 d2                	xor    %edx,%edx
1000ae0b:	8b 5d 08             	mov    0x8(%ebp),%ebx
1000ae0e:	0b d1                	or     %ecx,%edx
1000ae10:	8b ce                	mov    %esi,%ecx
1000ae12:	33 08                	xor    (%eax),%ecx
1000ae14:	8b c2                	mov    %edx,%eax
1000ae16:	33 43 04             	xor    0x4(%ebx),%eax
1000ae19:	33 cf                	xor    %edi,%ecx
1000ae1b:	33 45 fc             	xor    -0x4(%ebp),%eax
1000ae1e:	89 0b                	mov    %ecx,(%ebx)
1000ae20:	8b cb                	mov    %ebx,%ecx
1000ae22:	89 41 04             	mov    %eax,0x4(%ecx)
1000ae25:	8b ce                	mov    %esi,%ecx
1000ae27:	8b c2                	mov    %edx,%eax
1000ae29:	33 cf                	xor    %edi,%ecx
1000ae2b:	33 45 fc             	xor    -0x4(%ebp),%eax
1000ae2e:	31 4b 28             	xor    %ecx,0x28(%ebx)
1000ae31:	8b cb                	mov    %ebx,%ecx
1000ae33:	31 41 2c             	xor    %eax,0x2c(%ecx)
1000ae36:	8b ce                	mov    %esi,%ecx
1000ae38:	8b c3                	mov    %ebx,%eax
1000ae3a:	33 48 50             	xor    0x50(%eax),%ecx
1000ae3d:	8b c2                	mov    %edx,%eax
1000ae3f:	33 43 54             	xor    0x54(%ebx),%eax
1000ae42:	33 cf                	xor    %edi,%ecx
1000ae44:	33 45 fc             	xor    -0x4(%ebp),%eax
1000ae47:	89 4b 50             	mov    %ecx,0x50(%ebx)
1000ae4a:	8b cb                	mov    %ebx,%ecx
1000ae4c:	89 41 54             	mov    %eax,0x54(%ecx)
1000ae4f:	8b ce                	mov    %esi,%ecx
1000ae51:	8b c3                	mov    %ebx,%eax
1000ae53:	33 48 78             	xor    0x78(%eax),%ecx
1000ae56:	8b c2                	mov    %edx,%eax
1000ae58:	33 43 7c             	xor    0x7c(%ebx),%eax
1000ae5b:	33 cf                	xor    %edi,%ecx
1000ae5d:	33 45 fc             	xor    -0x4(%ebp),%eax
1000ae60:	89 4b 78             	mov    %ecx,0x78(%ebx)
1000ae63:	8b cb                	mov    %ebx,%ecx
1000ae65:	89 41 7c             	mov    %eax,0x7c(%ecx)
1000ae68:	33 b1 a0 00 00 00    	xor    0xa0(%ecx),%esi
1000ae6e:	33 91 a4 00 00 00    	xor    0xa4(%ecx),%edx
1000ae74:	33 f7                	xor    %edi,%esi
1000ae76:	33 55 fc             	xor    -0x4(%ebp),%edx
1000ae79:	89 b1 a0 00 00 00    	mov    %esi,0xa0(%ecx)
1000ae7f:	89 91 a4 00 00 00    	mov    %edx,0xa4(%ecx)
1000ae85:	33 d2                	xor    %edx,%edx
1000ae87:	8b 4d dc             	mov    -0x24(%ebp),%ecx
1000ae8a:	8b f1                	mov    %ecx,%esi
1000ae8c:	8b 45 f8             	mov    -0x8(%ebp),%eax
1000ae8f:	0f a4 c1 01          	shld   $0x1,%eax,%ecx
1000ae93:	c1 ee 1f             	shr    $0x1f,%esi
1000ae96:	0b d1                	or     %ecx,%edx
1000ae98:	03 c0                	add    %eax,%eax
1000ae9a:	0b f0                	or     %eax,%esi
1000ae9c:	8b c3                	mov    %ebx,%eax
1000ae9e:	8b ce                	mov    %esi,%ecx
1000aea0:	33 48 08             	xor    0x8(%eax),%ecx
1000aea3:	8b c2                	mov    %edx,%eax
1000aea5:	33 43 0c             	xor    0xc(%ebx),%eax
1000aea8:	33 4d f0             	xor    -0x10(%ebp),%ecx
1000aeab:	33 45 f4             	xor    -0xc(%ebp),%eax
1000aeae:	89 4b 08             	mov    %ecx,0x8(%ebx)
1000aeb1:	8b cb                	mov    %ebx,%ecx
1000aeb3:	89 41 0c             	mov    %eax,0xc(%ecx)
1000aeb6:	8b c3                	mov    %ebx,%eax
1000aeb8:	8b ce                	mov    %esi,%ecx
1000aeba:	33 48 30             	xor    0x30(%eax),%ecx
1000aebd:	8b c2                	mov    %edx,%eax
1000aebf:	33 43 34             	xor    0x34(%ebx),%eax
1000aec2:	33 4d f0             	xor    -0x10(%ebp),%ecx
1000aec5:	33 45 f4             	xor    -0xc(%ebp),%eax
1000aec8:	89 4b 30             	mov    %ecx,0x30(%ebx)
1000aecb:	8b cb                	mov    %ebx,%ecx
1000aecd:	89 41 34             	mov    %eax,0x34(%ecx)
1000aed0:	8b ce                	mov    %esi,%ecx
1000aed2:	33 4d f0             	xor    -0x10(%ebp),%ecx
1000aed5:	8b c2                	mov    %edx,%eax
1000aed7:	31 4b 58             	xor    %ecx,0x58(%ebx)
1000aeda:	8b cb                	mov    %ebx,%ecx
1000aedc:	33 45 f4             	xor    -0xc(%ebp),%eax
1000aedf:	31 41 5c             	xor    %eax,0x5c(%ecx)
1000aee2:	8b ce                	mov    %esi,%ecx
1000aee4:	33 4d f0             	xor    -0x10(%ebp),%ecx
1000aee7:	8b c2                	mov    %edx,%eax
1000aee9:	31 8b 80 00 00 00    	xor    %ecx,0x80(%ebx)
1000aeef:	8b cb                	mov    %ebx,%ecx
1000aef1:	33 45 f4             	xor    -0xc(%ebp),%eax
1000aef4:	33 75 f0             	xor    -0x10(%ebp),%esi
1000aef7:	33 55 f4             	xor    -0xc(%ebp),%edx
1000aefa:	31 81 84 00 00 00    	xor    %eax,0x84(%ecx)
1000af00:	31 b1 a8 00 00 00    	xor    %esi,0xa8(%ecx)
1000af06:	31 91 ac 00 00 00    	xor    %edx,0xac(%ecx)
1000af0c:	8b 4d e0             	mov    -0x20(%ebp),%ecx
1000af0f:	8b f1                	mov    %ecx,%esi
1000af11:	8b 45 e4             	mov    -0x1c(%ebp),%eax
1000af14:	c1 ee 1f             	shr    $0x1f,%esi
1000af17:	0f a4 c1 01          	shld   $0x1,%eax,%ecx
1000af1b:	03 c0                	add    %eax,%eax
1000af1d:	33 d2                	xor    %edx,%edx
1000af1f:	0b f0                	or     %eax,%esi
1000af21:	0b d1                	or     %ecx,%edx
1000af23:	8b c3                	mov    %ebx,%eax
1000af25:	8b ce                	mov    %esi,%ecx
1000af27:	33 48 10             	xor    0x10(%eax),%ecx
1000af2a:	8b c2                	mov    %edx,%eax
1000af2c:	33 43 14             	xor    0x14(%ebx),%eax
1000af2f:	33 4d ec             	xor    -0x14(%ebp),%ecx
1000af32:	33 45 e8             	xor    -0x18(%ebp),%eax
1000af35:	89 4b 10             	mov    %ecx,0x10(%ebx)
1000af38:	8b cb                	mov    %ebx,%ecx
1000af3a:	89 41 14             	mov    %eax,0x14(%ecx)
1000af3d:	8b c3                	mov    %ebx,%eax
1000af3f:	8b ce                	mov    %esi,%ecx
1000af41:	33 48 38             	xor    0x38(%eax),%ecx
1000af44:	8b c2                	mov    %edx,%eax
1000af46:	33 43 3c             	xor    0x3c(%ebx),%eax
1000af49:	33 4d ec             	xor    -0x14(%ebp),%ecx
1000af4c:	33 45 e8             	xor    -0x18(%ebp),%eax
1000af4f:	89 4b 38             	mov    %ecx,0x38(%ebx)
1000af52:	8b cb                	mov    %ebx,%ecx
1000af54:	89 41 3c             	mov    %eax,0x3c(%ecx)
1000af57:	8b c3                	mov    %ebx,%eax
1000af59:	8b ce                	mov    %esi,%ecx
1000af5b:	33 48 60             	xor    0x60(%eax),%ecx
1000af5e:	8b c2                	mov    %edx,%eax
1000af60:	33 43 64             	xor    0x64(%ebx),%eax
1000af63:	33 4d ec             	xor    -0x14(%ebp),%ecx
1000af66:	33 45 e8             	xor    -0x18(%ebp),%eax
1000af69:	89 4b 60             	mov    %ecx,0x60(%ebx)
1000af6c:	8b cb                	mov    %ebx,%ecx
1000af6e:	89 41 64             	mov    %eax,0x64(%ecx)
1000af71:	8b c3                	mov    %ebx,%eax
1000af73:	8b ce                	mov    %esi,%ecx
1000af75:	33 88 88 00 00 00    	xor    0x88(%eax),%ecx
1000af7b:	8b c2                	mov    %edx,%eax
1000af7d:	33 83 8c 00 00 00    	xor    0x8c(%ebx),%eax
1000af83:	33 4d ec             	xor    -0x14(%ebp),%ecx
1000af86:	33 45 e8             	xor    -0x18(%ebp),%eax
1000af89:	89 8b 88 00 00 00    	mov    %ecx,0x88(%ebx)
1000af8f:	8b cb                	mov    %ebx,%ecx
1000af91:	8b 5d fc             	mov    -0x4(%ebp),%ebx
1000af94:	89 81 8c 00 00 00    	mov    %eax,0x8c(%ecx)
1000af9a:	33 b1 b0 00 00 00    	xor    0xb0(%ecx),%esi
1000afa0:	33 91 b4 00 00 00    	xor    0xb4(%ecx),%edx
1000afa6:	33 75 ec             	xor    -0x14(%ebp),%esi
1000afa9:	33 55 e8             	xor    -0x18(%ebp),%edx
1000afac:	89 b1 b0 00 00 00    	mov    %esi,0xb0(%ecx)
1000afb2:	8b f3                	mov    %ebx,%esi
1000afb4:	89 91 b4 00 00 00    	mov    %edx,0xb4(%ecx)
1000afba:	33 d2                	xor    %edx,%edx
1000afbc:	0f a4 fb 01          	shld   $0x1,%edi,%ebx
1000afc0:	c1 ee 1f             	shr    $0x1f,%esi
1000afc3:	03 ff                	add    %edi,%edi
1000afc5:	0b d3                	or     %ebx,%edx
1000afc7:	8b 5d dc             	mov    -0x24(%ebp),%ebx
1000afca:	0b f7                	or     %edi,%esi
1000afcc:	8b 7d 08             	mov    0x8(%ebp),%edi
1000afcf:	8b ce                	mov    %esi,%ecx
1000afd1:	33 4d f8             	xor    -0x8(%ebp),%ecx
1000afd4:	8b c2                	mov    %edx,%eax
1000afd6:	33 c3                	xor    %ebx,%eax
1000afd8:	31 4f 18             	xor    %ecx,0x18(%edi)
1000afdb:	8b cf                	mov    %edi,%ecx
1000afdd:	31 41 1c             	xor    %eax,0x1c(%ecx)
1000afe0:	8b c7                	mov    %edi,%eax
1000afe2:	8b ce                	mov    %esi,%ecx
1000afe4:	33 48 40             	xor    0x40(%eax),%ecx
1000afe7:	8b c2                	mov    %edx,%eax
1000afe9:	33 4d f8             	xor    -0x8(%ebp),%ecx
1000afec:	33 47 44             	xor    0x44(%edi),%eax
1000afef:	89 4f 40             	mov    %ecx,0x40(%edi)
1000aff2:	33 c3                	xor    %ebx,%eax
1000aff4:	8b cf                	mov    %edi,%ecx
1000aff6:	89 41 44             	mov    %eax,0x44(%ecx)
1000aff9:	8b c7                	mov    %edi,%eax
1000affb:	8b ce                	mov    %esi,%ecx
1000affd:	33 48 68             	xor    0x68(%eax),%ecx
1000b000:	8b c2                	mov    %edx,%eax
1000b002:	33 47 6c             	xor    0x6c(%edi),%eax
1000b005:	33 4d f8             	xor    -0x8(%ebp),%ecx
1000b008:	33 c3                	xor    %ebx,%eax
1000b00a:	89 4f 68             	mov    %ecx,0x68(%edi)
1000b00d:	8b cf                	mov    %edi,%ecx
1000b00f:	89 41 6c             	mov    %eax,0x6c(%ecx)
1000b012:	8b ce                	mov    %esi,%ecx
1000b014:	8b c7                	mov    %edi,%eax
1000b016:	33 88 90 00 00 00    	xor    0x90(%eax),%ecx
1000b01c:	8b c2                	mov    %edx,%eax
1000b01e:	33 87 94 00 00 00    	xor    0x94(%edi),%eax
1000b024:	33 4d f8             	xor    -0x8(%ebp),%ecx
1000b027:	33 c3                	xor    %ebx,%eax
1000b029:	89 8f 90 00 00 00    	mov    %ecx,0x90(%edi)
1000b02f:	8b cf                	mov    %edi,%ecx
1000b031:	89 81 94 00 00 00    	mov    %eax,0x94(%ecx)
1000b037:	33 b1 b8 00 00 00    	xor    0xb8(%ecx),%esi
1000b03d:	33 91 bc 00 00 00    	xor    0xbc(%ecx),%edx
1000b043:	33 75 f8             	xor    -0x8(%ebp),%esi
1000b046:	33 d3                	xor    %ebx,%edx
1000b048:	89 b1 b8 00 00 00    	mov    %esi,0xb8(%ecx)
1000b04e:	8b df                	mov    %edi,%ebx
1000b050:	89 91 bc 00 00 00    	mov    %edx,0xbc(%ecx)
1000b056:	33 d2                	xor    %edx,%edx
1000b058:	8b 4d f4             	mov    -0xc(%ebp),%ecx
1000b05b:	8b f1                	mov    %ecx,%esi
1000b05d:	8b 45 f0             	mov    -0x10(%ebp),%eax
1000b060:	0f a4 c1 01          	shld   $0x1,%eax,%ecx
1000b064:	c1 ee 1f             	shr    $0x1f,%esi
1000b067:	0b d1                	or     %ecx,%edx
1000b069:	03 c0                	add    %eax,%eax
1000b06b:	0b f0                	or     %eax,%esi
1000b06d:	8b c2                	mov    %edx,%eax
1000b06f:	33 43 24             	xor    0x24(%ebx),%eax
1000b072:	8b ce                	mov    %esi,%ecx
1000b074:	33 4b 20             	xor    0x20(%ebx),%ecx
1000b077:	33 4d e4             	xor    -0x1c(%ebp),%ecx
1000b07a:	33 45 e0             	xor    -0x20(%ebp),%eax
1000b07d:	89 4b 20             	mov    %ecx,0x20(%ebx)
1000b080:	8b cb                	mov    %ebx,%ecx
1000b082:	8b 5d e0             	mov    -0x20(%ebp),%ebx
1000b085:	89 41 24             	mov    %eax,0x24(%ecx)
1000b088:	8b ce                	mov    %esi,%ecx
1000b08a:	33 4d e4             	xor    -0x1c(%ebp),%ecx
1000b08d:	8b c2                	mov    %edx,%eax
1000b08f:	31 4f 48             	xor    %ecx,0x48(%edi)
1000b092:	33 c3                	xor    %ebx,%eax
1000b094:	8b cf                	mov    %edi,%ecx
1000b096:	31 41 4c             	xor    %eax,0x4c(%ecx)
1000b099:	8b c7                	mov    %edi,%eax
1000b09b:	8b ce                	mov    %esi,%ecx
1000b09d:	33 48 70             	xor    0x70(%eax),%ecx
1000b0a0:	8b c2                	mov    %edx,%eax
1000b0a2:	33 47 74             	xor    0x74(%edi),%eax
1000b0a5:	33 4d e4             	xor    -0x1c(%ebp),%ecx
1000b0a8:	33 c3                	xor    %ebx,%eax
1000b0aa:	89 4f 70             	mov    %ecx,0x70(%edi)
1000b0ad:	8b cf                	mov    %edi,%ecx
1000b0af:	89 41 74             	mov    %eax,0x74(%ecx)
1000b0b2:	8b c7                	mov    %edi,%eax
1000b0b4:	8b ce                	mov    %esi,%ecx
1000b0b6:	33 88 98 00 00 00    	xor    0x98(%eax),%ecx
1000b0bc:	8b c2                	mov    %edx,%eax
1000b0be:	33 4d e4             	xor    -0x1c(%ebp),%ecx
1000b0c1:	33 87 9c 00 00 00    	xor    0x9c(%edi),%eax
1000b0c7:	89 8f 98 00 00 00    	mov    %ecx,0x98(%edi)
1000b0cd:	33 c3                	xor    %ebx,%eax
1000b0cf:	8b cf                	mov    %edi,%ecx
1000b0d1:	89 81 9c 00 00 00    	mov    %eax,0x9c(%ecx)
1000b0d7:	33 b1 c0 00 00 00    	xor    0xc0(%ecx),%esi
1000b0dd:	33 91 c4 00 00 00    	xor    0xc4(%ecx),%edx
1000b0e3:	33 75 e4             	xor    -0x1c(%ebp),%esi
1000b0e6:	33 d3                	xor    %ebx,%edx
1000b0e8:	89 b1 c0 00 00 00    	mov    %esi,0xc0(%ecx)
1000b0ee:	89 91 c4 00 00 00    	mov    %edx,0xc4(%ecx)
1000b0f4:	8b 71 08             	mov    0x8(%ecx),%esi
1000b0f7:	8b 51 0c             	mov    0xc(%ecx),%edx
1000b0fa:	8b 59 50             	mov    0x50(%ecx),%ebx
1000b0fd:	8b 79 54             	mov    0x54(%ecx),%edi
1000b100:	8b ca                	mov    %edx,%ecx
1000b102:	c1 e9 1f             	shr    $0x1f,%ecx
1000b105:	0f a4 f2 01          	shld   $0x1,%esi,%edx
1000b109:	33 c0                	xor    %eax,%eax
1000b10b:	0b c2                	or     %edx,%eax
1000b10d:	03 f6                	add    %esi,%esi
1000b10f:	0b ce                	or     %esi,%ecx
1000b111:	8b 75 08             	mov    0x8(%ebp),%esi
1000b114:	89 4e 50             	mov    %ecx,0x50(%esi)
1000b117:	8b cf                	mov    %edi,%ecx
1000b119:	89 46 54             	mov    %eax,0x54(%esi)
1000b11c:	8b 46 38             	mov    0x38(%esi),%eax
1000b11f:	8b 56 3c             	mov    0x3c(%esi),%edx
1000b122:	0f a4 df 03          	shld   $0x3,%ebx,%edi
1000b126:	c1 e9 1d             	shr    $0x1d,%ecx
1000b129:	89 45 dc             	mov    %eax,-0x24(%ebp)
1000b12c:	33 c0                	xor    %eax,%eax
1000b12e:	0b c7                	or     %edi,%eax
1000b130:	c1 e3 03             	shl    $0x3,%ebx
1000b133:	89 46 3c             	mov    %eax,0x3c(%esi)
1000b136:	0b cb                	or     %ebx,%ecx
1000b138:	89 4e 38             	mov    %ecx,0x38(%esi)
1000b13b:	33 c0                	xor    %eax,%eax
1000b13d:	8b 7e 58             	mov    0x58(%esi),%edi
1000b140:	8b ca                	mov    %edx,%ecx
1000b142:	8b 76 5c             	mov    0x5c(%esi),%esi
1000b145:	8b 5d dc             	mov    -0x24(%ebp),%ebx
1000b148:	0f a4 da 06          	shld   $0x6,%ebx,%edx
1000b14c:	c1 e9 1a             	shr    $0x1a,%ecx
1000b14f:	0b c2                	or     %edx,%eax
1000b151:	c1 e3 06             	shl    $0x6,%ebx
1000b154:	8b 55 08             	mov    0x8(%ebp),%edx
1000b157:	0b cb                	or     %ebx,%ecx
1000b159:	89 4a 58             	mov    %ecx,0x58(%edx)
1000b15c:	8b ce                	mov    %esi,%ecx
1000b15e:	89 42 5c             	mov    %eax,0x5c(%edx)
1000b161:	33 c0                	xor    %eax,%eax
1000b163:	8b 9a 88 00 00 00    	mov    0x88(%edx),%ebx
1000b169:	8b 92 8c 00 00 00    	mov    0x8c(%edx),%edx
1000b16f:	0f a4 fe 0a          	shld   $0xa,%edi,%esi
1000b173:	c1 e9 16             	shr    $0x16,%ecx
1000b176:	0b c6                	or     %esi,%eax
1000b178:	c1 e7 0a             	shl    $0xa,%edi
1000b17b:	8b 75 08             	mov    0x8(%ebp),%esi
1000b17e:	0b cf                	or     %edi,%ecx
1000b180:	89 8e 88 00 00 00    	mov    %ecx,0x88(%esi)
1000b186:	8b ca                	mov    %edx,%ecx
1000b188:	89 86 8c 00 00 00    	mov    %eax,0x8c(%esi)
1000b18e:	33 c0                	xor    %eax,%eax
1000b190:	8b be 90 00 00 00    	mov    0x90(%esi),%edi
1000b196:	8b b6 94 00 00 00    	mov    0x94(%esi),%esi
1000b19c:	0f a4 da 0f          	shld   $0xf,%ebx,%edx
1000b1a0:	c1 e9 11             	shr    $0x11,%ecx
1000b1a3:	0b c2                	or     %edx,%eax
1000b1a5:	c1 e3 0f             	shl    $0xf,%ebx
1000b1a8:	8b 55 08             	mov    0x8(%ebp),%edx
1000b1ab:	0b cb                	or     %ebx,%ecx
1000b1ad:	89 8a 90 00 00 00    	mov    %ecx,0x90(%edx)
1000b1b3:	8b ce                	mov    %esi,%ecx
1000b1b5:	89 82 94 00 00 00    	mov    %eax,0x94(%edx)
1000b1bb:	33 c0                	xor    %eax,%eax
1000b1bd:	8b 5a 18             	mov    0x18(%edx),%ebx
1000b1c0:	8b 52 1c             	mov    0x1c(%edx),%edx
1000b1c3:	0f a4 fe 15          	shld   $0x15,%edi,%esi
1000b1c7:	c1 e9 0b             	shr    $0xb,%ecx
1000b1ca:	0b c6                	or     %esi,%eax
1000b1cc:	c1 e7 15             	shl    $0x15,%edi
1000b1cf:	8b 75 08             	mov    0x8(%ebp),%esi
1000b1d2:	0b cf                	or     %edi,%ecx
1000b1d4:	89 4e 18             	mov    %ecx,0x18(%esi)
1000b1d7:	8b ca                	mov    %edx,%ecx
1000b1d9:	89 46 1c             	mov    %eax,0x1c(%esi)
1000b1dc:	33 c0                	xor    %eax,%eax
1000b1de:	8b 7e 28             	mov    0x28(%esi),%edi
1000b1e1:	8b 76 2c             	mov    0x2c(%esi),%esi
1000b1e4:	0f a4 da 1c          	shld   $0x1c,%ebx,%edx
1000b1e8:	c1 e9 04             	shr    $0x4,%ecx
1000b1eb:	c1 e3 1c             	shl    $0x1c,%ebx
1000b1ee:	0b cb                	or     %ebx,%ecx
1000b1f0:	0b c2                	or     %edx,%eax
1000b1f2:	8b 55 08             	mov    0x8(%ebp),%edx
1000b1f5:	89 4a 28             	mov    %ecx,0x28(%edx)
1000b1f8:	89 42 2c             	mov    %eax,0x2c(%edx)
1000b1fb:	8b 9a 80 00 00 00    	mov    0x80(%edx),%ebx
1000b201:	8b cf                	mov    %edi,%ecx
1000b203:	8b 92 84 00 00 00    	mov    0x84(%edx),%edx
1000b209:	33 c0                	xor    %eax,%eax
1000b20b:	0f ac f7 1c          	shrd   $0x1c,%esi,%edi
1000b20f:	c1 e1 04             	shl    $0x4,%ecx
1000b212:	c1 ee 1c             	shr    $0x1c,%esi
1000b215:	0b c7                	or     %edi,%eax
1000b217:	0b ce                	or     %esi,%ecx
1000b219:	8b 75 08             	mov    0x8(%ebp),%esi
1000b21c:	89 8e 84 00 00 00    	mov    %ecx,0x84(%esi)
1000b222:	8b cb                	mov    %ebx,%ecx
1000b224:	89 86 80 00 00 00    	mov    %eax,0x80(%esi)
1000b22a:	33 c0                	xor    %eax,%eax
1000b22c:	8b 7e 40             	mov    0x40(%esi),%edi
1000b22f:	8b 76 44             	mov    0x44(%esi),%esi
1000b232:	0f ac d3 13          	shrd   $0x13,%edx,%ebx
1000b236:	c1 e1 0d             	shl    $0xd,%ecx
1000b239:	c1 ea 13             	shr    $0x13,%edx
1000b23c:	0b c3                	or     %ebx,%eax
1000b23e:	0b ca                	or     %edx,%ecx
1000b240:	8b 55 08             	mov    0x8(%ebp),%edx
1000b243:	89 4a 44             	mov    %ecx,0x44(%edx)
1000b246:	8b cf                	mov    %edi,%ecx
1000b248:	89 42 40             	mov    %eax,0x40(%edx)
1000b24b:	33 c0                	xor    %eax,%eax
1000b24d:	8b 9a a8 00 00 00    	mov    0xa8(%edx),%ebx
1000b253:	8b 92 ac 00 00 00    	mov    0xac(%edx),%edx
1000b259:	0f ac f7 09          	shrd   $0x9,%esi,%edi
1000b25d:	c1 e1 17             	shl    $0x17,%ecx
1000b260:	c1 ee 09             	shr    $0x9,%esi
1000b263:	0b c7                	or     %edi,%eax
1000b265:	0b ce                	or     %esi,%ecx
1000b267:	8b 75 08             	mov    0x8(%ebp),%esi
1000b26a:	89 8e ac 00 00 00    	mov    %ecx,0xac(%esi)
1000b270:	8b ca                	mov    %edx,%ecx
1000b272:	89 86 a8 00 00 00    	mov    %eax,0xa8(%esi)
1000b278:	33 c0                	xor    %eax,%eax
1000b27a:	8b be c0 00 00 00    	mov    0xc0(%esi),%edi
1000b280:	8b b6 c4 00 00 00    	mov    0xc4(%esi),%esi
1000b286:	0f a4 da 02          	shld   $0x2,%ebx,%edx
1000b28a:	c1 e9 1e             	shr    $0x1e,%ecx
1000b28d:	0b c2                	or     %edx,%eax
1000b28f:	c1 e3 02             	shl    $0x2,%ebx
1000b292:	8b 55 08             	mov    0x8(%ebp),%edx
1000b295:	0b cb                	or     %ebx,%ecx
1000b297:	89 8a c0 00 00 00    	mov    %ecx,0xc0(%edx)
1000b29d:	8b ce                	mov    %esi,%ecx
1000b29f:	89 82 c4 00 00 00    	mov    %eax,0xc4(%edx)
1000b2a5:	33 c0                	xor    %eax,%eax
1000b2a7:	8b 5a 20             	mov    0x20(%edx),%ebx
1000b2aa:	8b 52 24             	mov    0x24(%edx),%edx
1000b2ad:	0f a4 fe 0e          	shld   $0xe,%edi,%esi
1000b2b1:	c1 e9 12             	shr    $0x12,%ecx
1000b2b4:	0b c6                	or     %esi,%eax
1000b2b6:	c1 e7 0e             	shl    $0xe,%edi
1000b2b9:	8b 75 08             	mov    0x8(%ebp),%esi
1000b2bc:	0b cf                	or     %edi,%ecx
1000b2be:	89 4e 20             	mov    %ecx,0x20(%esi)
1000b2c1:	8b ca                	mov    %edx,%ecx
1000b2c3:	89 46 24             	mov    %eax,0x24(%esi)
1000b2c6:	33 c0                	xor    %eax,%eax
1000b2c8:	8b 7e 78             	mov    0x78(%esi),%edi
1000b2cb:	8b 76 7c             	mov    0x7c(%esi),%esi
1000b2ce:	0f a4 da 1b          	shld   $0x1b,%ebx,%edx
1000b2d2:	c1 e9 05             	shr    $0x5,%ecx
1000b2d5:	0b c2                	or     %edx,%eax
1000b2d7:	c1 e3 1b             	shl    $0x1b,%ebx
1000b2da:	8b 55 08             	mov    0x8(%ebp),%edx
1000b2dd:	0b cb                	or     %ebx,%ecx
1000b2df:	89 4a 78             	mov    %ecx,0x78(%edx)
1000b2e2:	8b cf                	mov    %edi,%ecx
1000b2e4:	89 42 7c             	mov    %eax,0x7c(%edx)
1000b2e7:	33 c0                	xor    %eax,%eax
1000b2e9:	8b 9a b8 00 00 00    	mov    0xb8(%edx),%ebx
1000b2ef:	8b 92 bc 00 00 00    	mov    0xbc(%edx),%edx
1000b2f5:	0f ac f7 17          	shrd   $0x17,%esi,%edi
1000b2f9:	c1 e1 09             	shl    $0x9,%ecx
1000b2fc:	c1 ee 17             	shr    $0x17,%esi
1000b2ff:	0b c7                	or     %edi,%eax
1000b301:	0b ce                	or     %esi,%ecx
1000b303:	8b 75 08             	mov    0x8(%ebp),%esi
1000b306:	89 8e bc 00 00 00    	mov    %ecx,0xbc(%esi)
1000b30c:	8b cb                	mov    %ebx,%ecx
1000b30e:	89 86 b8 00 00 00    	mov    %eax,0xb8(%esi)
1000b314:	33 c0                	xor    %eax,%eax
1000b316:	8b be 98 00 00 00    	mov    0x98(%esi),%edi
1000b31c:	8b b6 9c 00 00 00    	mov    0x9c(%esi),%esi
1000b322:	0f ac d3 08          	shrd   $0x8,%edx,%ebx
1000b326:	c1 e1 18             	shl    $0x18,%ecx
1000b329:	0b c3                	or     %ebx,%eax
1000b32b:	c1 ea 08             	shr    $0x8,%edx
1000b32e:	0b ca                	or     %edx,%ecx
1000b330:	8b 55 08             	mov    0x8(%ebp),%edx
1000b333:	89 8a 9c 00 00 00    	mov    %ecx,0x9c(%edx)
1000b339:	8b ce                	mov    %esi,%ecx
1000b33b:	89 82 98 00 00 00    	mov    %eax,0x98(%edx)
1000b341:	33 c0                	xor    %eax,%eax
1000b343:	8b 5a 68             	mov    0x68(%edx),%ebx
1000b346:	8b 52 6c             	mov    0x6c(%edx),%edx
1000b349:	0f a4 fe 08          	shld   $0x8,%edi,%esi
1000b34d:	c1 e9 18             	shr    $0x18,%ecx
1000b350:	0b c6                	or     %esi,%eax
1000b352:	c1 e7 08             	shl    $0x8,%edi
1000b355:	8b 75 08             	mov    0x8(%ebp),%esi
1000b358:	0b cf                	or     %edi,%ecx
1000b35a:	89 4e 68             	mov    %ecx,0x68(%esi)
1000b35d:	8b ca                	mov    %edx,%ecx
1000b35f:	89 46 6c             	mov    %eax,0x6c(%esi)
1000b362:	33 c0                	xor    %eax,%eax
1000b364:	8b 7e 60             	mov    0x60(%esi),%edi
1000b367:	8b 76 64             	mov    0x64(%esi),%esi
1000b36a:	0f a4 da 19          	shld   $0x19,%ebx,%edx
1000b36e:	c1 e9 07             	shr    $0x7,%ecx
1000b371:	0b c2                	or     %edx,%eax
1000b373:	c1 e3 19             	shl    $0x19,%ebx
1000b376:	8b 55 08             	mov    0x8(%ebp),%edx
1000b379:	0b cb                	or     %ebx,%ecx
1000b37b:	89 4a 60             	mov    %ecx,0x60(%edx)
1000b37e:	8b cf                	mov    %edi,%ecx
1000b380:	89 42 64             	mov    %eax,0x64(%edx)
1000b383:	33 c0                	xor    %eax,%eax
1000b385:	8b 5a 10             	mov    0x10(%edx),%ebx
1000b388:	8b 52 14             	mov    0x14(%edx),%edx
1000b38b:	0f ac f7 15          	shrd   $0x15,%esi,%edi
1000b38f:	c1 e1 0b             	shl    $0xb,%ecx
1000b392:	c1 ee 15             	shr    $0x15,%esi
1000b395:	0b c7                	or     %edi,%eax
1000b397:	0b ce                	or     %esi,%ecx
1000b399:	8b 75 08             	mov    0x8(%ebp),%esi
1000b39c:	89 4e 14             	mov    %ecx,0x14(%esi)
1000b39f:	8b cb                	mov    %ebx,%ecx
1000b3a1:	89 46 10             	mov    %eax,0x10(%esi)
1000b3a4:	33 c0                	xor    %eax,%eax
1000b3a6:	8b be a0 00 00 00    	mov    0xa0(%esi),%edi
1000b3ac:	8b b6 a4 00 00 00    	mov    0xa4(%esi),%esi
1000b3b2:	0f ac d3 02          	shrd   $0x2,%edx,%ebx
1000b3b6:	c1 e1 1e             	shl    $0x1e,%ecx
1000b3b9:	c1 ea 02             	shr    $0x2,%edx
1000b3bc:	0b c3                	or     %ebx,%eax
1000b3be:	0b ca                	or     %edx,%ecx
1000b3c0:	8b 55 08             	mov    0x8(%ebp),%edx
1000b3c3:	89 82 a0 00 00 00    	mov    %eax,0xa0(%edx)
1000b3c9:	33 c0                	xor    %eax,%eax
1000b3cb:	89 8a a4 00 00 00    	mov    %ecx,0xa4(%edx)
1000b3d1:	8b ce                	mov    %esi,%ecx
1000b3d3:	8b 5a 70             	mov    0x70(%edx),%ebx
1000b3d6:	8b 52 74             	mov    0x74(%edx),%edx
1000b3d9:	0f a4 fe 12          	shld   $0x12,%edi,%esi
1000b3dd:	c1 e9 0e             	shr    $0xe,%ecx
1000b3e0:	c1 e7 12             	shl    $0x12,%edi
1000b3e3:	0b c6                	or     %esi,%eax
1000b3e5:	0b cf                	or     %edi,%ecx
1000b3e7:	8b 7d 08             	mov    0x8(%ebp),%edi
1000b3ea:	89 4f 70             	mov    %ecx,0x70(%edi)
1000b3ed:	8b cb                	mov    %ebx,%ecx
1000b3ef:	89 47 74             	mov    %eax,0x74(%edi)
1000b3f2:	8b 87 b0 00 00 00    	mov    0xb0(%edi),%eax
1000b3f8:	8b b7 b4 00 00 00    	mov    0xb4(%edi),%esi
1000b3fe:	89 45 dc             	mov    %eax,-0x24(%ebp)
1000b401:	33 c0                	xor    %eax,%eax
1000b403:	c1 e1 07             	shl    $0x7,%ecx
1000b406:	0f ac d3 19          	shrd   $0x19,%edx,%ebx
1000b40a:	0b c3                	or     %ebx,%eax
1000b40c:	c1 ea 19             	shr    $0x19,%edx
1000b40f:	89 87 b0 00 00 00    	mov    %eax,0xb0(%edi)
1000b415:	0b ca                	or     %edx,%ecx
1000b417:	89 8f b4 00 00 00    	mov    %ecx,0xb4(%edi)
1000b41d:	33 c0                	xor    %eax,%eax
1000b41f:	8b 5f 48             	mov    0x48(%edi),%ebx
1000b422:	8b 7f 4c             	mov    0x4c(%edi),%edi
1000b425:	8b 55 dc             	mov    -0x24(%ebp),%edx
1000b428:	8b ca                	mov    %edx,%ecx
1000b42a:	c1 e1 1d             	shl    $0x1d,%ecx
1000b42d:	0f ac f2 03          	shrd   $0x3,%esi,%edx
1000b431:	0b c2                	or     %edx,%eax
1000b433:	c1 ee 03             	shr    $0x3,%esi
1000b436:	8b 55 08             	mov    0x8(%ebp),%edx
1000b439:	0b ce                	or     %esi,%ecx
1000b43b:	89 4a 4c             	mov    %ecx,0x4c(%edx)
1000b43e:	8b cf                	mov    %edi,%ecx
1000b440:	89 42 48             	mov    %eax,0x48(%edx)
1000b443:	33 c0                	xor    %eax,%eax
1000b445:	8b 72 30             	mov    0x30(%edx),%esi
1000b448:	8b 52 34             	mov    0x34(%edx),%edx
1000b44b:	c1 e9 0c             	shr    $0xc,%ecx
1000b44e:	0f a4 df 14          	shld   $0x14,%ebx,%edi
1000b452:	0b c7                	or     %edi,%eax
1000b454:	c1 e3 14             	shl    $0x14,%ebx
1000b457:	8b 7d 08             	mov    0x8(%ebp),%edi
1000b45a:	0b cb                	or     %ebx,%ecx
1000b45c:	89 4f 30             	mov    %ecx,0x30(%edi)
1000b45f:	8b ce                	mov    %esi,%ecx
1000b461:	89 47 34             	mov    %eax,0x34(%edi)
1000b464:	33 c0                	xor    %eax,%eax
1000b466:	c1 e1 0c             	shl    $0xc,%ecx
1000b469:	0f ac d6 14          	shrd   $0x14,%edx,%esi
1000b46d:	0b c6                	or     %esi,%eax
1000b46f:	c1 ea 14             	shr    $0x14,%edx
1000b472:	89 47 08             	mov    %eax,0x8(%edi)
1000b475:	0b ca                	or     %edx,%ecx
1000b477:	89 4f 0c             	mov    %ecx,0xc(%edi)
1000b47a:	8b 07                	mov    (%edi),%eax
1000b47c:	8b 4f 08             	mov    0x8(%edi),%ecx
1000b47f:	8b 5f 18             	mov    0x18(%edi),%ebx
1000b482:	8b 77 10             	mov    0x10(%edi),%esi
1000b485:	8b 57 14             	mov    0x14(%edi),%edx
1000b488:	89 45 e0             	mov    %eax,-0x20(%ebp)
1000b48b:	8b 47 04             	mov    0x4(%edi),%eax
1000b48e:	89 45 e4             	mov    %eax,-0x1c(%ebp)
1000b491:	8b 47 0c             	mov    0xc(%edi),%eax
1000b494:	8b 7f 1c             	mov    0x1c(%edi),%edi
1000b497:	89 45 e8             	mov    %eax,-0x18(%ebp)
1000b49a:	8b 45 08             	mov    0x8(%ebp),%eax
1000b49d:	89 4d f4             	mov    %ecx,-0xc(%ebp)
1000b4a0:	f7 d1                	not    %ecx
1000b4a2:	23 ce                	and    %esi,%ecx
1000b4a4:	89 5d dc             	mov    %ebx,-0x24(%ebp)
1000b4a7:	33 4d e0             	xor    -0x20(%ebp),%ecx
1000b4aa:	8b 40 20             	mov    0x20(%eax),%eax
1000b4ad:	8b 5d 08             	mov    0x8(%ebp),%ebx
1000b4b0:	89 45 ec             	mov    %eax,-0x14(%ebp)
1000b4b3:	8b 45 08             	mov    0x8(%ebp),%eax
1000b4b6:	8b 40 24             	mov    0x24(%eax),%eax
1000b4b9:	89 45 f0             	mov    %eax,-0x10(%ebp)
1000b4bc:	8b 45 e8             	mov    -0x18(%ebp),%eax
1000b4bf:	89 0b                	mov    %ecx,(%ebx)
1000b4c1:	f7 d0                	not    %eax
1000b4c3:	23 c2                	and    %edx,%eax
1000b4c5:	8b cb                	mov    %ebx,%ecx
1000b4c7:	33 45 e4             	xor    -0x1c(%ebp),%eax
1000b4ca:	89 41 04             	mov    %eax,0x4(%ecx)
1000b4cd:	8b ce                	mov    %esi,%ecx
1000b4cf:	f7 d1                	not    %ecx
1000b4d1:	8b c2                	mov    %edx,%eax
1000b4d3:	23 4d dc             	and    -0x24(%ebp),%ecx
1000b4d6:	f7 d0                	not    %eax
1000b4d8:	33 4d f4             	xor    -0xc(%ebp),%ecx
1000b4db:	23 c7                	and    %edi,%eax
1000b4dd:	33 45 e8             	xor    -0x18(%ebp),%eax
1000b4e0:	89 4b 08             	mov    %ecx,0x8(%ebx)
1000b4e3:	8b cb                	mov    %ebx,%ecx
1000b4e5:	89 41 0c             	mov    %eax,0xc(%ecx)
1000b4e8:	8b 4d dc             	mov    -0x24(%ebp),%ecx
1000b4eb:	8b c7                	mov    %edi,%eax
1000b4ed:	f7 d0                	not    %eax
1000b4ef:	f7 d1                	not    %ecx
1000b4f1:	23 45 f0             	and    -0x10(%ebp),%eax
1000b4f4:	23 4d ec             	and    -0x14(%ebp),%ecx
1000b4f7:	33 c2                	xor    %edx,%eax
1000b4f9:	33 ce                	xor    %esi,%ecx
1000b4fb:	8b d3                	mov    %ebx,%edx
1000b4fd:	89 42 14             	mov    %eax,0x14(%edx)
1000b500:	89 4a 10             	mov    %ecx,0x10(%edx)
1000b503:	8b 45 f0             	mov    -0x10(%ebp),%eax
1000b506:	8b 4d ec             	mov    -0x14(%ebp),%ecx
1000b509:	f7 d0                	not    %eax
1000b50b:	23 45 e4             	and    -0x1c(%ebp),%eax
1000b50e:	f7 d1                	not    %ecx
1000b510:	23 4d e0             	and    -0x20(%ebp),%ecx
1000b513:	33 c7                	xor    %edi,%eax
1000b515:	33 4d dc             	xor    -0x24(%ebp),%ecx
1000b518:	8b fa                	mov    %edx,%edi
1000b51a:	89 47 1c             	mov    %eax,0x1c(%edi)
1000b51d:	89 4f 18             	mov    %ecx,0x18(%edi)
1000b520:	8b 4d e0             	mov    -0x20(%ebp),%ecx
1000b523:	8b 45 e4             	mov    -0x1c(%ebp),%eax
1000b526:	f7 d1                	not    %ecx
1000b528:	23 4d f4             	and    -0xc(%ebp),%ecx
1000b52b:	f7 d0                	not    %eax
1000b52d:	23 45 e8             	and    -0x18(%ebp),%eax
1000b530:	33 45 f0             	xor    -0x10(%ebp),%eax
1000b533:	33 4d ec             	xor    -0x14(%ebp),%ecx
1000b536:	89 47 24             	mov    %eax,0x24(%edi)
1000b539:	89 4f 20             	mov    %ecx,0x20(%edi)
1000b53c:	8b 47 28             	mov    0x28(%edi),%eax
1000b53f:	8b 4f 30             	mov    0x30(%edi),%ecx
1000b542:	8b 5f 40             	mov    0x40(%edi),%ebx
1000b545:	8b 77 38             	mov    0x38(%edi),%esi
1000b548:	8b 57 3c             	mov    0x3c(%edi),%edx
1000b54b:	89 45 e0             	mov    %eax,-0x20(%ebp)
1000b54e:	8b 47 2c             	mov    0x2c(%edi),%eax
1000b551:	89 45 e4             	mov    %eax,-0x1c(%ebp)
1000b554:	8b 47 34             	mov    0x34(%edi),%eax
1000b557:	8b 7f 44             	mov    0x44(%edi),%edi
1000b55a:	89 45 e8             	mov    %eax,-0x18(%ebp)
1000b55d:	8b 45 08             	mov    0x8(%ebp),%eax
1000b560:	89 4d f4             	mov    %ecx,-0xc(%ebp)
1000b563:	f7 d1                	not    %ecx
1000b565:	23 ce                	and    %esi,%ecx
1000b567:	89 5d dc             	mov    %ebx,-0x24(%ebp)
1000b56a:	33 4d e0             	xor    -0x20(%ebp),%ecx
1000b56d:	8b 40 48             	mov    0x48(%eax),%eax
1000b570:	8b 5d 08             	mov    0x8(%ebp),%ebx
1000b573:	89 45 ec             	mov    %eax,-0x14(%ebp)
1000b576:	8b 45 08             	mov    0x8(%ebp),%eax
1000b579:	8b 40 4c             	mov    0x4c(%eax),%eax
1000b57c:	89 45 f0             	mov    %eax,-0x10(%ebp)
1000b57f:	8b 45 e8             	mov    -0x18(%ebp),%eax
1000b582:	89 4b 28             	mov    %ecx,0x28(%ebx)
1000b585:	f7 d0                	not    %eax
1000b587:	23 c2                	and    %edx,%eax
1000b589:	8b cb                	mov    %ebx,%ecx
1000b58b:	33 45 e4             	xor    -0x1c(%ebp),%eax
1000b58e:	89 41 2c             	mov    %eax,0x2c(%ecx)
1000b591:	8b ce                	mov    %esi,%ecx
1000b593:	f7 d1                	not    %ecx
1000b595:	8b c2                	mov    %edx,%eax
1000b597:	23 4d dc             	and    -0x24(%ebp),%ecx
1000b59a:	f7 d0                	not    %eax
1000b59c:	33 4d f4             	xor    -0xc(%ebp),%ecx
1000b59f:	23 c7                	and    %edi,%eax
1000b5a1:	33 45 e8             	xor    -0x18(%ebp),%eax
1000b5a4:	89 4b 30             	mov    %ecx,0x30(%ebx)
1000b5a7:	8b cb                	mov    %ebx,%ecx
1000b5a9:	89 41 34             	mov    %eax,0x34(%ecx)
1000b5ac:	8b c7                	mov    %edi,%eax
1000b5ae:	8b 4d dc             	mov    -0x24(%ebp),%ecx
1000b5b1:	f7 d0                	not    %eax
1000b5b3:	23 45 f0             	and    -0x10(%ebp),%eax
1000b5b6:	f7 d1                	not    %ecx
1000b5b8:	23 4d ec             	and    -0x14(%ebp),%ecx
1000b5bb:	33 ce                	xor    %esi,%ecx
1000b5bd:	33 c2                	xor    %edx,%eax
1000b5bf:	8b d3                	mov    %ebx,%edx
1000b5c1:	89 42 3c             	mov    %eax,0x3c(%edx)
1000b5c4:	89 4a 38             	mov    %ecx,0x38(%edx)
1000b5c7:	8b 45 f0             	mov    -0x10(%ebp),%eax
1000b5ca:	8b 4d ec             	mov    -0x14(%ebp),%ecx
1000b5cd:	f7 d0                	not    %eax
1000b5cf:	23 45 e4             	and    -0x1c(%ebp),%eax
1000b5d2:	f7 d1                	not    %ecx
1000b5d4:	23 4d e0             	and    -0x20(%ebp),%ecx
1000b5d7:	33 c7                	xor    %edi,%eax
1000b5d9:	33 4d dc             	xor    -0x24(%ebp),%ecx
1000b5dc:	8b fa                	mov    %edx,%edi
1000b5de:	89 4f 40             	mov    %ecx,0x40(%edi)
1000b5e1:	89 47 44             	mov    %eax,0x44(%edi)
1000b5e4:	8b 4d e0             	mov    -0x20(%ebp),%ecx
1000b5e7:	8b 45 e4             	mov    -0x1c(%ebp),%eax
1000b5ea:	f7 d1                	not    %ecx
1000b5ec:	23 4d f4             	and    -0xc(%ebp),%ecx
1000b5ef:	f7 d0                	not    %eax
1000b5f1:	23 45 e8             	and    -0x18(%ebp),%eax
1000b5f4:	33 45 f0             	xor    -0x10(%ebp),%eax
1000b5f7:	33 4d ec             	xor    -0x14(%ebp),%ecx
1000b5fa:	89 4f 48             	mov    %ecx,0x48(%edi)
1000b5fd:	89 47 4c             	mov    %eax,0x4c(%edi)
1000b600:	8b 47 50             	mov    0x50(%edi),%eax
1000b603:	8b 4f 58             	mov    0x58(%edi),%ecx
1000b606:	8b 5f 68             	mov    0x68(%edi),%ebx
1000b609:	8b 77 60             	mov    0x60(%edi),%esi
1000b60c:	8b 57 64             	mov    0x64(%edi),%edx
1000b60f:	89 45 e0             	mov    %eax,-0x20(%ebp)
1000b612:	8b 47 54             	mov    0x54(%edi),%eax
1000b615:	89 45 e4             	mov    %eax,-0x1c(%ebp)
1000b618:	8b 47 5c             	mov    0x5c(%edi),%eax
1000b61b:	8b 7f 6c             	mov    0x6c(%edi),%edi
1000b61e:	89 45 e8             	mov    %eax,-0x18(%ebp)
1000b621:	8b 45 08             	mov    0x8(%ebp),%eax
1000b624:	89 4d f4             	mov    %ecx,-0xc(%ebp)
1000b627:	f7 d1                	not    %ecx
1000b629:	23 ce                	and    %esi,%ecx
1000b62b:	89 5d dc             	mov    %ebx,-0x24(%ebp)
1000b62e:	33 4d e0             	xor    -0x20(%ebp),%ecx
1000b631:	8b 40 70             	mov    0x70(%eax),%eax
1000b634:	8b 5d 08             	mov    0x8(%ebp),%ebx
1000b637:	89 45 ec             	mov    %eax,-0x14(%ebp)
1000b63a:	8b 45 08             	mov    0x8(%ebp),%eax
1000b63d:	8b 40 74             	mov    0x74(%eax),%eax
1000b640:	89 4b 50             	mov    %ecx,0x50(%ebx)
1000b643:	8b cb                	mov    %ebx,%ecx
1000b645:	89 45 f0             	mov    %eax,-0x10(%ebp)
1000b648:	8b 45 e8             	mov    -0x18(%ebp),%eax
1000b64b:	f7 d0                	not    %eax
1000b64d:	23 c2                	and    %edx,%eax
1000b64f:	33 45 e4             	xor    -0x1c(%ebp),%eax
1000b652:	89 41 54             	mov    %eax,0x54(%ecx)
1000b655:	8b ce                	mov    %esi,%ecx
1000b657:	f7 d1                	not    %ecx
1000b659:	8b c2                	mov    %edx,%eax
1000b65b:	23 4d dc             	and    -0x24(%ebp),%ecx
1000b65e:	f7 d0                	not    %eax
1000b660:	33 4d f4             	xor    -0xc(%ebp),%ecx
1000b663:	23 c7                	and    %edi,%eax
1000b665:	33 45 e8             	xor    -0x18(%ebp),%eax
1000b668:	89 4b 58             	mov    %ecx,0x58(%ebx)
1000b66b:	8b cb                	mov    %ebx,%ecx
1000b66d:	89 41 5c             	mov    %eax,0x5c(%ecx)
1000b670:	8b c7                	mov    %edi,%eax
1000b672:	8b 4d dc             	mov    -0x24(%ebp),%ecx
1000b675:	f7 d0                	not    %eax
1000b677:	23 45 f0             	and    -0x10(%ebp),%eax
1000b67a:	f7 d1                	not    %ecx
1000b67c:	23 4d ec             	and    -0x14(%ebp),%ecx
1000b67f:	33 c2                	xor    %edx,%eax
1000b681:	8b d3                	mov    %ebx,%edx
1000b683:	33 ce                	xor    %esi,%ecx
1000b685:	89 4a 60             	mov    %ecx,0x60(%edx)
1000b688:	8b 4d ec             	mov    -0x14(%ebp),%ecx
1000b68b:	89 42 64             	mov    %eax,0x64(%edx)
1000b68e:	f7 d1                	not    %ecx
1000b690:	8b 45 f0             	mov    -0x10(%ebp),%eax
1000b693:	23 4d e0             	and    -0x20(%ebp),%ecx
1000b696:	f7 d0                	not    %eax
1000b698:	23 45 e4             	and    -0x1c(%ebp),%eax
1000b69b:	33 4d dc             	xor    -0x24(%ebp),%ecx
1000b69e:	33 c7                	xor    %edi,%eax
1000b6a0:	8b fa                	mov    %edx,%edi
1000b6a2:	89 4f 68             	mov    %ecx,0x68(%edi)
1000b6a5:	89 47 6c             	mov    %eax,0x6c(%edi)
1000b6a8:	8b 4d e0             	mov    -0x20(%ebp),%ecx
1000b6ab:	8b 45 e4             	mov    -0x1c(%ebp),%eax
1000b6ae:	f7 d1                	not    %ecx
1000b6b0:	23 4d f4             	and    -0xc(%ebp),%ecx
1000b6b3:	f7 d0                	not    %eax
1000b6b5:	23 45 e8             	and    -0x18(%ebp),%eax
1000b6b8:	33 45 f0             	xor    -0x10(%ebp),%eax
1000b6bb:	33 4d ec             	xor    -0x14(%ebp),%ecx
1000b6be:	89 4f 70             	mov    %ecx,0x70(%edi)
1000b6c1:	89 47 74             	mov    %eax,0x74(%edi)
1000b6c4:	8b 47 78             	mov    0x78(%edi),%eax
1000b6c7:	8b 8f 80 00 00 00    	mov    0x80(%edi),%ecx
1000b6cd:	8b 9f 90 00 00 00    	mov    0x90(%edi),%ebx
1000b6d3:	8b b7 88 00 00 00    	mov    0x88(%edi),%esi
1000b6d9:	8b 97 8c 00 00 00    	mov    0x8c(%edi),%edx
1000b6df:	89 45 e0             	mov    %eax,-0x20(%ebp)
1000b6e2:	8b 47 7c             	mov    0x7c(%edi),%eax
1000b6e5:	89 45 e4             	mov    %eax,-0x1c(%ebp)
1000b6e8:	8b 87 84 00 00 00    	mov    0x84(%edi),%eax
1000b6ee:	8b bf 94 00 00 00    	mov    0x94(%edi),%edi
1000b6f4:	89 45 e8             	mov    %eax,-0x18(%ebp)
1000b6f7:	8b 45 08             	mov    0x8(%ebp),%eax
1000b6fa:	89 4d f4             	mov    %ecx,-0xc(%ebp)
1000b6fd:	f7 d1                	not    %ecx
1000b6ff:	23 ce                	and    %esi,%ecx
1000b701:	89 5d dc             	mov    %ebx,-0x24(%ebp)
1000b704:	33 4d e0             	xor    -0x20(%ebp),%ecx
1000b707:	8b 80 98 00 00 00    	mov    0x98(%eax),%eax
1000b70d:	8b 5d 08             	mov    0x8(%ebp),%ebx
1000b710:	89 45 ec             	mov    %eax,-0x14(%ebp)
1000b713:	8b 45 08             	mov    0x8(%ebp),%eax
1000b716:	8b 80 9c 00 00 00    	mov    0x9c(%eax),%eax
1000b71c:	89 4b 78             	mov    %ecx,0x78(%ebx)
1000b71f:	8b cb                	mov    %ebx,%ecx
1000b721:	89 45 f0             	mov    %eax,-0x10(%ebp)
1000b724:	8b 45 e8             	mov    -0x18(%ebp),%eax
1000b727:	f7 d0                	not    %eax
1000b729:	23 c2                	and    %edx,%eax
1000b72b:	33 45 e4             	xor    -0x1c(%ebp),%eax
1000b72e:	89 41 7c             	mov    %eax,0x7c(%ecx)
1000b731:	8b ce                	mov    %esi,%ecx
1000b733:	f7 d1                	not    %ecx
1000b735:	8b c2                	mov    %edx,%eax
1000b737:	23 4d dc             	and    -0x24(%ebp),%ecx
1000b73a:	f7 d0                	not    %eax
1000b73c:	33 4d f4             	xor    -0xc(%ebp),%ecx
1000b73f:	23 c7                	and    %edi,%eax
1000b741:	33 45 e8             	xor    -0x18(%ebp),%eax
1000b744:	89 8b 80 00 00 00    	mov    %ecx,0x80(%ebx)
1000b74a:	8b cb                	mov    %ebx,%ecx
1000b74c:	89 81 84 00 00 00    	mov    %eax,0x84(%ecx)
1000b752:	8b c7                	mov    %edi,%eax
1000b754:	8b 4d dc             	mov    -0x24(%ebp),%ecx
1000b757:	f7 d0                	not    %eax
1000b759:	23 45 f0             	and    -0x10(%ebp),%eax
1000b75c:	f7 d1                	not    %ecx
1000b75e:	23 4d ec             	and    -0x14(%ebp),%ecx
1000b761:	33 c2                	xor    %edx,%eax
1000b763:	33 ce                	xor    %esi,%ecx
1000b765:	8b d3                	mov    %ebx,%edx
1000b767:	89 8a 88 00 00 00    	mov    %ecx,0x88(%edx)
1000b76d:	8b 4d ec             	mov    -0x14(%ebp),%ecx
1000b770:	89 82 8c 00 00 00    	mov    %eax,0x8c(%edx)
1000b776:	f7 d1                	not    %ecx
1000b778:	8b 45 f0             	mov    -0x10(%ebp),%eax
1000b77b:	23 4d e0             	and    -0x20(%ebp),%ecx
1000b77e:	f7 d0                	not    %eax
1000b780:	33 4d dc             	xor    -0x24(%ebp),%ecx
1000b783:	23 45 e4             	and    -0x1c(%ebp),%eax
1000b786:	33 c7                	xor    %edi,%eax
1000b788:	8b fa                	mov    %edx,%edi
1000b78a:	89 8f 90 00 00 00    	mov    %ecx,0x90(%edi)
1000b790:	8b 4d e0             	mov    -0x20(%ebp),%ecx
1000b793:	89 87 94 00 00 00    	mov    %eax,0x94(%edi)
1000b799:	f7 d1                	not    %ecx
1000b79b:	23 4d f4             	and    -0xc(%ebp),%ecx
1000b79e:	33 4d ec             	xor    -0x14(%ebp),%ecx
1000b7a1:	8b 45 e4             	mov    -0x1c(%ebp),%eax
1000b7a4:	89 8f 98 00 00 00    	mov    %ecx,0x98(%edi)
1000b7aa:	f7 d0                	not    %eax
1000b7ac:	23 45 e8             	and    -0x18(%ebp),%eax
1000b7af:	33 45 f0             	xor    -0x10(%ebp),%eax
1000b7b2:	89 87 9c 00 00 00    	mov    %eax,0x9c(%edi)
1000b7b8:	8b 87 a0 00 00 00    	mov    0xa0(%edi),%eax
1000b7be:	8b 8f a8 00 00 00    	mov    0xa8(%edi),%ecx
1000b7c4:	8b b7 b0 00 00 00    	mov    0xb0(%edi),%esi
1000b7ca:	8b 9f b8 00 00 00    	mov    0xb8(%edi),%ebx
1000b7d0:	89 45 e0             	mov    %eax,-0x20(%ebp)
1000b7d3:	8b 87 a4 00 00 00    	mov    0xa4(%edi),%eax
1000b7d9:	8b 97 b4 00 00 00    	mov    0xb4(%edi),%edx
1000b7df:	89 45 e4             	mov    %eax,-0x1c(%ebp)
1000b7e2:	8b 87 ac 00 00 00    	mov    0xac(%edi),%eax
1000b7e8:	8b bf bc 00 00 00    	mov    0xbc(%edi),%edi
1000b7ee:	89 45 e8             	mov    %eax,-0x18(%ebp)
1000b7f1:	8b 45 08             	mov    0x8(%ebp),%eax
1000b7f4:	89 4d f4             	mov    %ecx,-0xc(%ebp)
1000b7f7:	f7 d1                	not    %ecx
1000b7f9:	23 ce                	and    %esi,%ecx
1000b7fb:	89 5d dc             	mov    %ebx,-0x24(%ebp)
1000b7fe:	33 4d e0             	xor    -0x20(%ebp),%ecx
1000b801:	8b 80 c0 00 00 00    	mov    0xc0(%eax),%eax
1000b807:	8b 5d 08             	mov    0x8(%ebp),%ebx
1000b80a:	89 45 ec             	mov    %eax,-0x14(%ebp)
1000b80d:	8b 45 08             	mov    0x8(%ebp),%eax
1000b810:	8b 80 c4 00 00 00    	mov    0xc4(%eax),%eax
1000b816:	89 8b a0 00 00 00    	mov    %ecx,0xa0(%ebx)
1000b81c:	8b cb                	mov    %ebx,%ecx
1000b81e:	89 45 f0             	mov    %eax,-0x10(%ebp)
1000b821:	8b 45 e8             	mov    -0x18(%ebp),%eax
1000b824:	f7 d0                	not    %eax
1000b826:	23 c2                	and    %edx,%eax
1000b828:	33 45 e4             	xor    -0x1c(%ebp),%eax
1000b82b:	89 81 a4 00 00 00    	mov    %eax,0xa4(%ecx)
1000b831:	8b ce                	mov    %esi,%ecx
1000b833:	f7 d1                	not    %ecx
1000b835:	8b c2                	mov    %edx,%eax
1000b837:	23 4d dc             	and    -0x24(%ebp),%ecx
1000b83a:	f7 d0                	not    %eax
1000b83c:	33 4d f4             	xor    -0xc(%ebp),%ecx
1000b83f:	23 c7                	and    %edi,%eax
1000b841:	33 45 e8             	xor    -0x18(%ebp),%eax
1000b844:	89 8b a8 00 00 00    	mov    %ecx,0xa8(%ebx)
1000b84a:	8b cb                	mov    %ebx,%ecx
1000b84c:	89 81 ac 00 00 00    	mov    %eax,0xac(%ecx)
1000b852:	8b c7                	mov    %edi,%eax
1000b854:	8b 4d dc             	mov    -0x24(%ebp),%ecx
1000b857:	f7 d0                	not    %eax
1000b859:	23 45 f0             	and    -0x10(%ebp),%eax
1000b85c:	f7 d1                	not    %ecx
1000b85e:	23 4d ec             	and    -0x14(%ebp),%ecx
1000b861:	33 c2                	xor    %edx,%eax
1000b863:	33 ce                	xor    %esi,%ecx
1000b865:	8b d3                	mov    %ebx,%edx
1000b867:	8b f2                	mov    %edx,%esi
1000b869:	89 8a b0 00 00 00    	mov    %ecx,0xb0(%edx)
1000b86f:	8b 4d ec             	mov    -0x14(%ebp),%ecx
1000b872:	89 82 b4 00 00 00    	mov    %eax,0xb4(%edx)
1000b878:	f7 d1                	not    %ecx
1000b87a:	23 4d e0             	and    -0x20(%ebp),%ecx
1000b87d:	8b 45 f0             	mov    -0x10(%ebp),%eax
1000b880:	33 4d dc             	xor    -0x24(%ebp),%ecx
1000b883:	f7 d0                	not    %eax
1000b885:	23 45 e4             	and    -0x1c(%ebp),%eax
1000b888:	33 c7                	xor    %edi,%eax
1000b88a:	89 8b b8 00 00 00    	mov    %ecx,0xb8(%ebx)
1000b890:	8b 4d e0             	mov    -0x20(%ebp),%ecx
1000b893:	89 83 bc 00 00 00    	mov    %eax,0xbc(%ebx)
1000b899:	f7 d1                	not    %ecx
1000b89b:	8b 45 e4             	mov    -0x1c(%ebp),%eax
1000b89e:	23 4d f4             	and    -0xc(%ebp),%ecx
1000b8a1:	f7 d0                	not    %eax
1000b8a3:	23 45 e8             	and    -0x18(%ebp),%eax
1000b8a6:	33 4d ec             	xor    -0x14(%ebp),%ecx
1000b8a9:	33 45 f0             	xor    -0x10(%ebp),%eax
1000b8ac:	89 8e c0 00 00 00    	mov    %ecx,0xc0(%esi)
1000b8b2:	89 86 c4 00 00 00    	mov    %eax,0xc4(%esi)
1000b8b8:	8b 4d d8             	mov    -0x28(%ebp),%ecx
1000b8bb:	8b 01                	mov    (%ecx),%eax
1000b8bd:	31 06                	xor    %eax,(%esi)
1000b8bf:	8b 41 04             	mov    0x4(%ecx),%eax
1000b8c2:	83 c1 08             	add    $0x8,%ecx
1000b8c5:	31 46 04             	xor    %eax,0x4(%esi)
1000b8c8:	89 4d d8             	mov    %ecx,-0x28(%ebp)
1000b8cb:	81 f9 d8 fd 00 10    	cmp    $0x1000fdd8,%ecx
1000b8d1:	0f 8c 3c f4 ff ff    	jl     0x1000ad13
1000b8d7:	5f                   	pop    %edi
1000b8d8:	5e                   	pop    %esi
1000b8d9:	5b                   	pop    %ebx
1000b8da:	8b e5                	mov    %ebp,%esp
1000b8dc:	5d                   	pop    %ebp
1000b8dd:	c3                   	ret    
1000b8de:	55                   	push   %ebp
1000b8df:	8b ec                	mov    %esp,%ebp
1000b8e1:	83 7d 0c 20          	cmpl   $0x20,0xc(%ebp)
1000b8e5:	76 05                	jbe    0x1000b8ec
1000b8e7:	83 c8 ff             	or     $0xffffffff,%eax
1000b8ea:	5d                   	pop    %ebp
1000b8eb:	c3                   	ret    
1000b8ec:	6a 06                	push   $0x6
1000b8ee:	68 88 00 00 00       	push   $0x88
1000b8f3:	ff 75 14             	pushl  0x14(%ebp)
1000b8f6:	ff 75 10             	pushl  0x10(%ebp)
1000b8f9:	ff 75 0c             	pushl  0xc(%ebp)
1000b8fc:	ff 75 08             	pushl  0x8(%ebp)
1000b8ff:	e8 c0 f2 ff ff       	call   0x1000abc4
1000b904:	83 c4 18             	add    $0x18,%esp
1000b907:	5d                   	pop    %ebp
1000b908:	c3                   	ret    
1000b909:	55                   	push   %ebp
1000b90a:	8b ec                	mov    %esp,%ebp
1000b90c:	8a 45 08             	mov    0x8(%ebp),%al
1000b90f:	8d 48 d0             	lea    -0x30(%eax),%ecx
1000b912:	80 f9 09             	cmp    $0x9,%cl
1000b915:	77 04                	ja     0x1000b91b
1000b917:	2c 30                	sub    $0x30,%al
1000b919:	5d                   	pop    %ebp
1000b91a:	c3                   	ret    
1000b91b:	0f be c0             	movsbl %al,%eax
1000b91e:	83 f8 61             	cmp    $0x61,%eax
1000b921:	7f 10                	jg     0x1000b933
1000b923:	74 0a                	je     0x1000b92f
1000b925:	83 e8 41             	sub    $0x41,%eax
1000b928:	74 05                	je     0x1000b92f
1000b92a:	83 e8 01             	sub    $0x1,%eax
1000b92d:	eb 07                	jmp    0x1000b936
1000b92f:	b0 0a                	mov    $0xa,%al
1000b931:	5d                   	pop    %ebp
1000b932:	c3                   	ret    
1000b933:	83 e8 62             	sub    $0x62,%eax
1000b936:	74 28                	je     0x1000b960
1000b938:	83 e8 01             	sub    $0x1,%eax
1000b93b:	74 1f                	je     0x1000b95c
1000b93d:	83 e8 01             	sub    $0x1,%eax
1000b940:	74 16                	je     0x1000b958
1000b942:	83 e8 01             	sub    $0x1,%eax
1000b945:	74 0d                	je     0x1000b954
1000b947:	83 e8 01             	sub    $0x1,%eax
1000b94a:	74 04                	je     0x1000b950
1000b94c:	0c ff                	or     $0xff,%al
1000b94e:	5d                   	pop    %ebp
1000b94f:	c3                   	ret    
1000b950:	b0 0f                	mov    $0xf,%al
1000b952:	5d                   	pop    %ebp
1000b953:	c3                   	ret    
1000b954:	b0 0e                	mov    $0xe,%al
1000b956:	5d                   	pop    %ebp
1000b957:	c3                   	ret    
1000b958:	b0 0d                	mov    $0xd,%al
1000b95a:	5d                   	pop    %ebp
1000b95b:	c3                   	ret    
1000b95c:	b0 0c                	mov    $0xc,%al
1000b95e:	5d                   	pop    %ebp
1000b95f:	c3                   	ret    
1000b960:	b0 0b                	mov    $0xb,%al
1000b962:	5d                   	pop    %ebp
1000b963:	c3                   	ret    
1000b964:	55                   	push   %ebp
1000b965:	8b ec                	mov    %esp,%ebp
1000b967:	8b 4d 08             	mov    0x8(%ebp),%ecx
1000b96a:	8b 55 0c             	mov    0xc(%ebp),%edx
1000b96d:	56                   	push   %esi
1000b96e:	8b 41 08             	mov    0x8(%ecx),%eax
1000b971:	8b 31                	mov    (%ecx),%esi
1000b973:	2b c6                	sub    %esi,%eax
1000b975:	3b c2                	cmp    %edx,%eax
1000b977:	73 04                	jae    0x1000b97d
1000b979:	33 c0                	xor    %eax,%eax
1000b97b:	eb 15                	jmp    0x1000b992
1000b97d:	83 79 0c 00          	cmpl   $0x0,0xc(%ecx)
1000b981:	74 0a                	je     0x1000b98d
1000b983:	8d 04 16             	lea    (%esi,%edx,1),%eax
1000b986:	89 01                	mov    %eax,(%ecx)
1000b988:	3b 41 0c             	cmp    0xc(%ecx),%eax
1000b98b:	77 ec                	ja     0x1000b979
1000b98d:	52                   	push   %edx
1000b98e:	ff 51 14             	call   *0x14(%ecx)
1000b991:	59                   	pop    %ecx
1000b992:	5e                   	pop    %esi
1000b993:	5d                   	pop    %ebp
1000b994:	c3                   	ret    
1000b995:	55                   	push   %ebp
1000b996:	8b ec                	mov    %esp,%ebp
1000b998:	83 ec 70             	sub    $0x70,%esp
1000b99b:	53                   	push   %ebx
1000b99c:	56                   	push   %esi
1000b99d:	57                   	push   %edi
1000b99e:	33 db                	xor    %ebx,%ebx
1000b9a0:	8d 45 90             	lea    -0x70(%ebp),%eax
1000b9a3:	6a 34                	push   $0x34
1000b9a5:	53                   	push   %ebx
1000b9a6:	50                   	push   %eax
1000b9a7:	89 5d e0             	mov    %ebx,-0x20(%ebp)
1000b9aa:	e8 60 91 ff ff       	call   0x10004b0f
1000b9af:	8b 45 10             	mov    0x10(%ebp),%eax
1000b9b2:	83 c4 0c             	add    $0xc,%esp
1000b9b5:	89 5d dc             	mov    %ebx,-0x24(%ebp)
1000b9b8:	89 5d d0             	mov    %ebx,-0x30(%ebp)
1000b9bb:	89 5d c4             	mov    %ebx,-0x3c(%ebp)
1000b9be:	89 5d c8             	mov    %ebx,-0x38(%ebp)
1000b9c1:	8b 5d 0c             	mov    0xc(%ebp),%ebx
1000b9c4:	89 5d cc             	mov    %ebx,-0x34(%ebp)
1000b9c7:	83 f8 03             	cmp    $0x3,%eax
1000b9ca:	72 1a                	jb     0x1000b9e6
1000b9cc:	80 3b ef             	cmpb   $0xef,(%ebx)
1000b9cf:	75 15                	jne    0x1000b9e6
1000b9d1:	80 7b 01 bb          	cmpb   $0xbb,0x1(%ebx)
1000b9d5:	75 0f                	jne    0x1000b9e6
1000b9d7:	80 7b 02 bf          	cmpb   $0xbf,0x2(%ebx)
1000b9db:	75 09                	jne    0x1000b9e6
1000b9dd:	83 c3 03             	add    $0x3,%ebx
1000b9e0:	83 e8 03             	sub    $0x3,%eax
1000b9e3:	89 5d cc             	mov    %ebx,-0x34(%ebp)
1000b9e6:	8b 75 08             	mov    0x8(%ebp),%esi
1000b9e9:	8d 7d 9c             	lea    -0x64(%ebp),%edi
1000b9ec:	dd 05 d8 fd 00 10    	fldl   0x1000fdd8
1000b9f2:	03 c3                	add    %ebx,%eax
1000b9f4:	89 45 e4             	mov    %eax,-0x1c(%ebp)
1000b9f7:	83 c8 ff             	or     $0xffffffff,%eax
1000b9fa:	6a 06                	push   $0x6
1000b9fc:	59                   	pop    %ecx
1000b9fd:	f3 a5                	rep movsl %ds:(%esi),%es:(%edi)
1000b9ff:	89 45 94             	mov    %eax,-0x6c(%ebp)
1000ba02:	83 e8 08             	sub    $0x8,%eax
1000ba05:	83 6d 94 08          	subl   $0x8,-0x6c(%ebp)
1000ba09:	89 45 98             	mov    %eax,-0x68(%ebp)
1000ba0c:	33 c0                	xor    %eax,%eax
1000ba0e:	40                   	inc    %eax
1000ba0f:	89 45 b4             	mov    %eax,-0x4c(%ebp)
1000ba12:	83 65 ec 00          	andl   $0x0,-0x14(%ebp)
1000ba16:	33 ff                	xor    %edi,%edi
1000ba18:	21 7d e8             	and    %edi,-0x18(%ebp)
1000ba1b:	33 f6                	xor    %esi,%esi
1000ba1d:	6a 08                	push   $0x8
1000ba1f:	5a                   	pop    %edx
1000ba20:	89 7d 10             	mov    %edi,0x10(%ebp)
1000ba23:	89 75 f4             	mov    %esi,-0xc(%ebp)
1000ba26:	89 75 f0             	mov    %esi,-0x10(%ebp)
1000ba29:	89 55 f8             	mov    %edx,-0x8(%ebp)
1000ba2c:	c7 45 bc 01 00 00 00 	movl   $0x1,-0x44(%ebp)
1000ba33:	89 5d b8             	mov    %ebx,-0x48(%ebp)
1000ba36:	3b 5d e4             	cmp    -0x1c(%ebp),%ebx
1000ba39:	75 04                	jne    0x1000ba3f
1000ba3b:	32 c9                	xor    %cl,%cl
1000ba3d:	eb 02                	jmp    0x1000ba41
1000ba3f:	8a 0b                	mov    (%ebx),%cl
1000ba41:	88 4d 0f             	mov    %cl,0xf(%ebp)
1000ba44:	f6 c2 20             	test   $0x20,%dl
1000ba47:	0f 84 39 03 00 00    	je     0x1000bd86
1000ba4d:	84 c9                	test   %cl,%cl
1000ba4f:	0f 84 4f 0b 00 00    	je     0x1000c5a4
1000ba55:	3b 7d 94             	cmp    -0x6c(%ebp),%edi
1000ba58:	0f 87 46 0b 00 00    	ja     0x1000c5a4
1000ba5e:	f6 c2 10             	test   $0x10,%dl
1000ba61:	0f 84 d6 02 00 00    	je     0x1000bd3d
1000ba67:	83 e2 ef             	and    $0xffffffef,%edx
1000ba6a:	0f be c1             	movsbl %cl,%eax
1000ba6d:	89 55 f8             	mov    %edx,-0x8(%ebp)
1000ba70:	dd d8                	fstp   %st(0)
1000ba72:	83 e8 62             	sub    $0x62,%eax
1000ba75:	0f 84 ab 02 00 00    	je     0x1000bd26
1000ba7b:	83 e8 04             	sub    $0x4,%eax
1000ba7e:	0f 84 92 02 00 00    	je     0x1000bd16
1000ba84:	83 e8 08             	sub    $0x8,%eax
1000ba87:	0f 84 79 02 00 00    	je     0x1000bd06
1000ba8d:	83 e8 04             	sub    $0x4,%eax
1000ba90:	0f 84 60 02 00 00    	je     0x1000bcf6
1000ba96:	48                   	dec    %eax
1000ba97:	83 e8 01             	sub    $0x1,%eax
1000ba9a:	0f 84 46 02 00 00    	je     0x1000bce6
1000baa0:	83 e8 01             	sub    $0x1,%eax
1000baa3:	74 08                	je     0x1000baad
1000baa5:	8b 45 b4             	mov    -0x4c(%ebp),%eax
1000baa8:	e9 58 03 00 00       	jmp    0x1000be05
1000baad:	8b 45 e4             	mov    -0x1c(%ebp),%eax
1000bab0:	2b c3                	sub    %ebx,%eax
1000bab2:	83 f8 04             	cmp    $0x4,%eax
1000bab5:	0f 8e eb 0a 00 00    	jle    0x1000c5a6
1000babb:	43                   	inc    %ebx
1000babc:	89 5d b8             	mov    %ebx,-0x48(%ebp)
1000babf:	0f b6 03             	movzbl (%ebx),%eax
1000bac2:	50                   	push   %eax
1000bac3:	e8 41 fe ff ff       	call   0x1000b909
1000bac8:	88 45 0f             	mov    %al,0xf(%ebp)
1000bacb:	59                   	pop    %ecx
1000bacc:	3c ff                	cmp    $0xff,%al
1000bace:	0f 84 d2 0a 00 00    	je     0x1000c5a6
1000bad4:	43                   	inc    %ebx
1000bad5:	89 5d b8             	mov    %ebx,-0x48(%ebp)
1000bad8:	0f b6 0b             	movzbl (%ebx),%ecx
1000badb:	51                   	push   %ecx
1000badc:	e8 28 fe ff ff       	call   0x1000b909
1000bae1:	88 45 13             	mov    %al,0x13(%ebp)
1000bae4:	59                   	pop    %ecx
1000bae5:	3c ff                	cmp    $0xff,%al
1000bae7:	0f 84 b9 0a 00 00    	je     0x1000c5a6
1000baed:	43                   	inc    %ebx
1000baee:	89 5d b8             	mov    %ebx,-0x48(%ebp)
1000baf1:	0f b6 0b             	movzbl (%ebx),%ecx
1000baf4:	51                   	push   %ecx
1000baf5:	e8 0f fe ff ff       	call   0x1000b909
1000bafa:	88 45 0b             	mov    %al,0xb(%ebp)
1000bafd:	59                   	pop    %ecx
1000bafe:	3c ff                	cmp    $0xff,%al
1000bb00:	0f 84 a0 0a 00 00    	je     0x1000c5a6
1000bb06:	43                   	inc    %ebx
1000bb07:	89 5d b8             	mov    %ebx,-0x48(%ebp)
1000bb0a:	0f b6 0b             	movzbl (%ebx),%ecx
1000bb0d:	51                   	push   %ecx
1000bb0e:	e8 f6 fd ff ff       	call   0x1000b909
1000bb13:	88 45 ff             	mov    %al,-0x1(%ebp)
1000bb16:	59                   	pop    %ecx
1000bb17:	3c ff                	cmp    $0xff,%al
1000bb19:	0f 84 87 0a 00 00    	je     0x1000c5a6
1000bb1f:	8a 45 0f             	mov    0xf(%ebp),%al
1000bb22:	0f b6 4d 13          	movzbl 0x13(%ebp),%ecx
1000bb26:	c0 e0 04             	shl    $0x4,%al
1000bb29:	0f b6 f0             	movzbl %al,%esi
1000bb2c:	8a 45 0b             	mov    0xb(%ebp),%al
1000bb2f:	0b f1                	or     %ecx,%esi
1000bb31:	c0 e0 04             	shl    $0x4,%al
1000bb34:	8b ce                	mov    %esi,%ecx
1000bb36:	0f b6 c0             	movzbl %al,%eax
1000bb39:	c1 e1 08             	shl    $0x8,%ecx
1000bb3c:	0b c8                	or     %eax,%ecx
1000bb3e:	89 75 d8             	mov    %esi,-0x28(%ebp)
1000bb41:	0f b6 45 ff          	movzbl -0x1(%ebp),%eax
1000bb45:	0b c8                	or     %eax,%ecx
1000bb47:	8b c1                	mov    %ecx,%eax
1000bb49:	89 4d d8             	mov    %ecx,-0x28(%ebp)
1000bb4c:	25 00 f8 00 00       	and    $0xf800,%eax
1000bb51:	3d 00 d8 00 00       	cmp    $0xd800,%eax
1000bb56:	0f 85 ba 00 00 00    	jne    0x1000bc16
1000bb5c:	8b 45 e4             	mov    -0x1c(%ebp),%eax
1000bb5f:	2b c3                	sub    %ebx,%eax
1000bb61:	83 f8 06             	cmp    $0x6,%eax
1000bb64:	0f 8e 3c 0a 00 00    	jle    0x1000c5a6
1000bb6a:	43                   	inc    %ebx
1000bb6b:	89 5d b8             	mov    %ebx,-0x48(%ebp)
1000bb6e:	80 3b 5c             	cmpb   $0x5c,(%ebx)
1000bb71:	0f 85 2f 0a 00 00    	jne    0x1000c5a6
1000bb77:	43                   	inc    %ebx
1000bb78:	89 5d b8             	mov    %ebx,-0x48(%ebp)
1000bb7b:	80 3b 75             	cmpb   $0x75,(%ebx)
1000bb7e:	0f 85 22 0a 00 00    	jne    0x1000c5a6
1000bb84:	43                   	inc    %ebx
1000bb85:	89 5d b8             	mov    %ebx,-0x48(%ebp)
1000bb88:	0f b6 03             	movzbl (%ebx),%eax
1000bb8b:	50                   	push   %eax
1000bb8c:	e8 78 fd ff ff       	call   0x1000b909
1000bb91:	59                   	pop    %ecx
1000bb92:	3c ff                	cmp    $0xff,%al
1000bb94:	0f 84 0c 0a 00 00    	je     0x1000c5a6
1000bb9a:	43                   	inc    %ebx
1000bb9b:	89 5d b8             	mov    %ebx,-0x48(%ebp)
1000bb9e:	0f b6 03             	movzbl (%ebx),%eax
1000bba1:	50                   	push   %eax
1000bba2:	e8 62 fd ff ff       	call   0x1000b909
1000bba7:	88 45 0f             	mov    %al,0xf(%ebp)
1000bbaa:	59                   	pop    %ecx
1000bbab:	3c ff                	cmp    $0xff,%al
1000bbad:	0f 84 f3 09 00 00    	je     0x1000c5a6
1000bbb3:	43                   	inc    %ebx
1000bbb4:	89 5d b8             	mov    %ebx,-0x48(%ebp)
1000bbb7:	0f b6 0b             	movzbl (%ebx),%ecx
1000bbba:	51                   	push   %ecx
1000bbbb:	e8 49 fd ff ff       	call   0x1000b909
1000bbc0:	88 45 13             	mov    %al,0x13(%ebp)
1000bbc3:	59                   	pop    %ecx
1000bbc4:	3c ff                	cmp    $0xff,%al
1000bbc6:	0f 84 da 09 00 00    	je     0x1000c5a6
1000bbcc:	43                   	inc    %ebx
1000bbcd:	89 5d b8             	mov    %ebx,-0x48(%ebp)
1000bbd0:	0f b6 0b             	movzbl (%ebx),%ecx
1000bbd3:	51                   	push   %ecx
1000bbd4:	e8 30 fd ff ff       	call   0x1000b909
1000bbd9:	88 45 0b             	mov    %al,0xb(%ebp)
1000bbdc:	59                   	pop    %ecx
1000bbdd:	3c ff                	cmp    $0xff,%al
1000bbdf:	0f 84 c1 09 00 00    	je     0x1000c5a6
1000bbe5:	8b 75 d8             	mov    -0x28(%ebp),%esi
1000bbe8:	0f b6 4d 0f          	movzbl 0xf(%ebp),%ecx
1000bbec:	81 e6 bf 03 00 00    	and    $0x3bf,%esi
1000bbf2:	8a 45 13             	mov    0x13(%ebp),%al
1000bbf5:	83 ce 40             	or     $0x40,%esi
1000bbf8:	83 e1 03             	and    $0x3,%ecx
1000bbfb:	c1 e6 02             	shl    $0x2,%esi
1000bbfe:	0b f1                	or     %ecx,%esi
1000bc00:	c0 e0 04             	shl    $0x4,%al
1000bc03:	8b ce                	mov    %esi,%ecx
1000bc05:	0f b6 c0             	movzbl %al,%eax
1000bc08:	c1 e1 08             	shl    $0x8,%ecx
1000bc0b:	0b c8                	or     %eax,%ecx
1000bc0d:	89 75 d8             	mov    %esi,-0x28(%ebp)
1000bc10:	0f b6 45 0b          	movzbl 0xb(%ebp),%eax
1000bc14:	0b c8                	or     %eax,%ecx
1000bc16:	8b 45 b4             	mov    -0x4c(%ebp),%eax
1000bc19:	83 f9 7f             	cmp    $0x7f,%ecx
1000bc1c:	77 16                	ja     0x1000bc34
1000bc1e:	85 c0                	test   %eax,%eax
1000bc20:	75 06                	jne    0x1000bc28
1000bc22:	8b 75 ec             	mov    -0x14(%ebp),%esi
1000bc25:	88 0c 37             	mov    %cl,(%edi,%esi,1)
1000bc28:	47                   	inc    %edi
1000bc29:	8b 75 f4             	mov    -0xc(%ebp),%esi
1000bc2c:	89 7d 10             	mov    %edi,0x10(%ebp)
1000bc2f:	e9 49 09 00 00       	jmp    0x1000c57d
1000bc34:	81 f9 ff 07 00 00    	cmp    $0x7ff,%ecx
1000bc3a:	77 2b                	ja     0x1000bc67
1000bc3c:	85 c0                	test   %eax,%eax
1000bc3e:	74 05                	je     0x1000bc45
1000bc40:	83 c7 02             	add    $0x2,%edi
1000bc43:	eb e4                	jmp    0x1000bc29
1000bc45:	8b 75 ec             	mov    -0x14(%ebp),%esi
1000bc48:	8b c1                	mov    %ecx,%eax
1000bc4a:	c1 e8 06             	shr    $0x6,%eax
1000bc4d:	80 e1 3f             	and    $0x3f,%cl
1000bc50:	0c c0                	or     $0xc0,%al
1000bc52:	80 c9 80             	or     $0x80,%cl
1000bc55:	88 04 37             	mov    %al,(%edi,%esi,1)
1000bc58:	88 4c 37 01          	mov    %cl,0x1(%edi,%esi,1)
1000bc5c:	83 c7 02             	add    $0x2,%edi
1000bc5f:	89 7d 10             	mov    %edi,0x10(%ebp)
1000bc62:	e9 10 09 00 00       	jmp    0x1000c577
1000bc67:	81 f9 ff ff 00 00    	cmp    $0xffff,%ecx
1000bc6d:	77 32                	ja     0x1000bca1
1000bc6f:	85 c0                	test   %eax,%eax
1000bc71:	74 05                	je     0x1000bc78
1000bc73:	83 c7 03             	add    $0x3,%edi
1000bc76:	eb b1                	jmp    0x1000bc29
1000bc78:	8b 75 ec             	mov    -0x14(%ebp),%esi
1000bc7b:	8b c1                	mov    %ecx,%eax
1000bc7d:	c1 e8 0c             	shr    $0xc,%eax
1000bc80:	0c e0                	or     $0xe0,%al
1000bc82:	88 04 37             	mov    %al,(%edi,%esi,1)
1000bc85:	8b c1                	mov    %ecx,%eax
1000bc87:	c1 e8 06             	shr    $0x6,%eax
1000bc8a:	80 e1 3f             	and    $0x3f,%cl
1000bc8d:	24 3f                	and    $0x3f,%al
1000bc8f:	80 c9 80             	or     $0x80,%cl
1000bc92:	0c 80                	or     $0x80,%al
1000bc94:	88 44 37 01          	mov    %al,0x1(%edi,%esi,1)
1000bc98:	88 4c 37 02          	mov    %cl,0x2(%edi,%esi,1)
1000bc9c:	83 c7 03             	add    $0x3,%edi
1000bc9f:	eb be                	jmp    0x1000bc5f
1000bca1:	85 c0                	test   %eax,%eax
1000bca3:	74 08                	je     0x1000bcad
1000bca5:	83 c7 04             	add    $0x4,%edi
1000bca8:	e9 7c ff ff ff       	jmp    0x1000bc29
1000bcad:	8b 75 ec             	mov    -0x14(%ebp),%esi
1000bcb0:	8b c1                	mov    %ecx,%eax
1000bcb2:	c1 e8 12             	shr    $0x12,%eax
1000bcb5:	0c f0                	or     $0xf0,%al
1000bcb7:	88 04 37             	mov    %al,(%edi,%esi,1)
1000bcba:	8b c1                	mov    %ecx,%eax
1000bcbc:	c1 e8 0c             	shr    $0xc,%eax
1000bcbf:	24 3f                	and    $0x3f,%al
1000bcc1:	0c 80                	or     $0x80,%al
1000bcc3:	88 44 37 01          	mov    %al,0x1(%edi,%esi,1)
1000bcc7:	8b c1                	mov    %ecx,%eax
1000bcc9:	c1 e8 06             	shr    $0x6,%eax
1000bccc:	80 e1 3f             	and    $0x3f,%cl
1000bccf:	24 3f                	and    $0x3f,%al
1000bcd1:	80 c9 80             	or     $0x80,%cl
1000bcd4:	0c 80                	or     $0x80,%al
1000bcd6:	88 44 37 02          	mov    %al,0x2(%edi,%esi,1)
1000bcda:	88 4c 37 03          	mov    %cl,0x3(%edi,%esi,1)
1000bcde:	83 c7 04             	add    $0x4,%edi
1000bce1:	e9 79 ff ff ff       	jmp    0x1000bc5f
1000bce6:	8b 45 b4             	mov    -0x4c(%ebp),%eax
1000bce9:	85 c0                	test   %eax,%eax
1000bceb:	75 47                	jne    0x1000bd34
1000bced:	8b 4d ec             	mov    -0x14(%ebp),%ecx
1000bcf0:	c6 04 0f 09          	movb   $0x9,(%edi,%ecx,1)
1000bcf4:	eb 3e                	jmp    0x1000bd34
1000bcf6:	8b 45 b4             	mov    -0x4c(%ebp),%eax
1000bcf9:	85 c0                	test   %eax,%eax
1000bcfb:	75 37                	jne    0x1000bd34
1000bcfd:	8b 4d ec             	mov    -0x14(%ebp),%ecx
1000bd00:	c6 04 0f 0d          	movb   $0xd,(%edi,%ecx,1)
1000bd04:	eb 2e                	jmp    0x1000bd34
1000bd06:	8b 45 b4             	mov    -0x4c(%ebp),%eax
1000bd09:	85 c0                	test   %eax,%eax
1000bd0b:	75 27                	jne    0x1000bd34
1000bd0d:	8b 4d ec             	mov    -0x14(%ebp),%ecx
1000bd10:	c6 04 0f 0a          	movb   $0xa,(%edi,%ecx,1)
1000bd14:	eb 1e                	jmp    0x1000bd34
1000bd16:	8b 45 b4             	mov    -0x4c(%ebp),%eax
1000bd19:	85 c0                	test   %eax,%eax
1000bd1b:	75 17                	jne    0x1000bd34
1000bd1d:	8b 4d ec             	mov    -0x14(%ebp),%ecx
1000bd20:	c6 04 0f 0c          	movb   $0xc,(%edi,%ecx,1)
1000bd24:	eb 0e                	jmp    0x1000bd34
1000bd26:	8b 45 b4             	mov    -0x4c(%ebp),%eax
1000bd29:	85 c0                	test   %eax,%eax
1000bd2b:	75 07                	jne    0x1000bd34
1000bd2d:	8b 4d ec             	mov    -0x14(%ebp),%ecx
1000bd30:	c6 04 0f 08          	movb   $0x8,(%edi,%ecx,1)
1000bd34:	47                   	inc    %edi
1000bd35:	89 7d 10             	mov    %edi,0x10(%ebp)
1000bd38:	e9 40 08 00 00       	jmp    0x1000c57d
1000bd3d:	80 f9 5c             	cmp    $0x5c,%cl
1000bd40:	75 0d                	jne    0x1000bd4f
1000bd42:	83 ca 10             	or     $0x10,%edx
1000bd45:	dd d8                	fstp   %st(0)
1000bd47:	89 55 f8             	mov    %edx,-0x8(%ebp)
1000bd4a:	e9 2e 08 00 00       	jmp    0x1000c57d
1000bd4f:	80 f9 22             	cmp    $0x22,%cl
1000bd52:	0f 85 ab 00 00 00    	jne    0x1000be03
1000bd58:	85 c0                	test   %eax,%eax
1000bd5a:	75 07                	jne    0x1000bd63
1000bd5c:	8b 45 ec             	mov    -0x14(%ebp),%eax
1000bd5f:	c6 04 07 00          	movb   $0x0,(%edi,%eax,1)
1000bd63:	8b 46 04             	mov    0x4(%esi),%eax
1000bd66:	83 e2 df             	and    $0xffffffdf,%edx
1000bd69:	83 65 ec 00          	andl   $0x0,-0x14(%ebp)
1000bd6d:	89 55 f8             	mov    %edx,-0x8(%ebp)
1000bd70:	83 e8 01             	sub    $0x1,%eax
1000bd73:	74 52                	je     0x1000bdc7
1000bd75:	83 e8 04             	sub    $0x4,%eax
1000bd78:	8b 45 b4             	mov    -0x4c(%ebp),%eax
1000bd7b:	75 09                	jne    0x1000bd86
1000bd7d:	83 ca 01             	or     $0x1,%edx
1000bd80:	89 7e 08             	mov    %edi,0x8(%esi)
1000bd83:	89 55 f8             	mov    %edx,-0x8(%ebp)
1000bd86:	f6 45 a0 01          	testb  $0x1,-0x60(%ebp)
1000bd8a:	0f 84 19 01 00 00    	je     0x1000bea9
1000bd90:	f7 c2 00 60 00 00    	test   $0x6000,%edx
1000bd96:	0f 84 c6 00 00 00    	je     0x1000be62
1000bd9c:	f7 c2 00 20 00 00    	test   $0x2000,%edx
1000bda2:	74 77                	je     0x1000be1b
1000bda4:	dd d8                	fstp   %st(0)
1000bda6:	80 f9 0d             	cmp    $0xd,%cl
1000bda9:	74 0d                	je     0x1000bdb8
1000bdab:	80 f9 0a             	cmp    $0xa,%cl
1000bdae:	74 08                	je     0x1000bdb8
1000bdb0:	84 c9                	test   %cl,%cl
1000bdb2:	0f 85 c5 07 00 00    	jne    0x1000c57d
1000bdb8:	81 e2 ff df ff ff    	and    $0xffffdfff,%edx
1000bdbe:	4b                   	dec    %ebx
1000bdbf:	89 55 f8             	mov    %edx,-0x8(%ebp)
1000bdc2:	e9 b6 07 00 00       	jmp    0x1000c57d
1000bdc7:	83 7d b4 00          	cmpl   $0x0,-0x4c(%ebp)
1000bdcb:	dd d8                	fstp   %st(0)
1000bdcd:	74 08                	je     0x1000bdd7
1000bdcf:	8d 47 01             	lea    0x1(%edi),%eax
1000bdd2:	01 46 0c             	add    %eax,0xc(%esi)
1000bdd5:	eb 21                	jmp    0x1000bdf8
1000bdd7:	6b 56 08 0c          	imul   $0xc,0x8(%esi),%edx
1000bddb:	8b 4e 0c             	mov    0xc(%esi),%ecx
1000bdde:	8b 46 10             	mov    0x10(%esi),%eax
1000bde1:	89 04 0a             	mov    %eax,(%edx,%ecx,1)
1000bde4:	6b 4e 08 0c          	imul   $0xc,0x8(%esi),%ecx
1000bde8:	8b 46 0c             	mov    0xc(%esi),%eax
1000bdeb:	8b 55 f8             	mov    -0x8(%ebp),%edx
1000bdee:	89 7c 01 04          	mov    %edi,0x4(%ecx,%eax,1)
1000bdf2:	8d 47 01             	lea    0x1(%edi),%eax
1000bdf5:	01 46 10             	add    %eax,0x10(%esi)
1000bdf8:	83 ca 48             	or     $0x48,%edx
1000bdfb:	89 55 f8             	mov    %edx,-0x8(%ebp)
1000bdfe:	e9 77 07 00 00       	jmp    0x1000c57a
1000be03:	dd d8                	fstp   %st(0)
1000be05:	85 c0                	test   %eax,%eax
1000be07:	0f 85 27 ff ff ff    	jne    0x1000bd34
1000be0d:	8b 75 ec             	mov    -0x14(%ebp),%esi
1000be10:	88 0c 37             	mov    %cl,(%edi,%esi,1)
1000be13:	8b 75 f4             	mov    -0xc(%ebp),%esi
1000be16:	e9 19 ff ff ff       	jmp    0x1000bd34
1000be1b:	f7 c2 00 40 00 00    	test   $0x4000,%edx
1000be21:	0f 84 82 00 00 00    	je     0x1000bea9
1000be27:	dd d8                	fstp   %st(0)
1000be29:	84 c9                	test   %cl,%cl
1000be2b:	0f 84 75 07 00 00    	je     0x1000c5a6
1000be31:	80 f9 2a             	cmp    $0x2a,%cl
1000be34:	0f 85 43 07 00 00    	jne    0x1000c57d
1000be3a:	8b 45 e4             	mov    -0x1c(%ebp),%eax
1000be3d:	48                   	dec    %eax
1000be3e:	3b d8                	cmp    %eax,%ebx
1000be40:	0f 83 34 07 00 00    	jae    0x1000c57a
1000be46:	80 7b 01 2f          	cmpb   $0x2f,0x1(%ebx)
1000be4a:	8b 45 b4             	mov    -0x4c(%ebp),%eax
1000be4d:	0f 85 2a 07 00 00    	jne    0x1000c57d
1000be53:	81 e2 ff bf ff ff    	and    $0xffffbfff,%edx
1000be59:	43                   	inc    %ebx
1000be5a:	89 55 f8             	mov    %edx,-0x8(%ebp)
1000be5d:	e9 1b 07 00 00       	jmp    0x1000c57d
1000be62:	80 f9 2f             	cmp    $0x2f,%cl
1000be65:	75 42                	jne    0x1000bea9
1000be67:	dd d8                	fstp   %st(0)
1000be69:	f6 c2 88             	test   $0x88,%dl
1000be6c:	75 0a                	jne    0x1000be78
1000be6e:	83 7e 04 01          	cmpl   $0x1,0x4(%esi)
1000be72:	0f 85 2e 07 00 00    	jne    0x1000c5a6
1000be78:	43                   	inc    %ebx
1000be79:	89 5d b8             	mov    %ebx,-0x48(%ebp)
1000be7c:	3b 5d e4             	cmp    -0x1c(%ebp),%ebx
1000be7f:	0f 84 21 07 00 00    	je     0x1000c5a6
1000be85:	8a 03                	mov    (%ebx),%al
1000be87:	3c 2a                	cmp    $0x2a,%al
1000be89:	74 13                	je     0x1000be9e
1000be8b:	3c 2f                	cmp    $0x2f,%al
1000be8d:	0f 85 13 07 00 00    	jne    0x1000c5a6
1000be93:	81 ca 00 20 00 00    	or     $0x2000,%edx
1000be99:	e9 5d ff ff ff       	jmp    0x1000bdfb
1000be9e:	81 ca 00 40 00 00    	or     $0x4000,%edx
1000bea4:	e9 52 ff ff ff       	jmp    0x1000bdfb
1000bea9:	84 d2                	test   %dl,%dl
1000beab:	79 3e                	jns    0x1000beeb
1000bead:	84 c9                	test   %cl,%cl
1000beaf:	0f 84 d4 06 00 00    	je     0x1000c589
1000beb5:	0f be c1             	movsbl %cl,%eax
1000beb8:	dd d8                	fstp   %st(0)
1000beba:	83 e8 09             	sub    $0x9,%eax
1000bebd:	0f 84 b7 06 00 00    	je     0x1000c57a
1000bec3:	83 e8 01             	sub    $0x1,%eax
1000bec6:	74 17                	je     0x1000bedf
1000bec8:	83 e8 03             	sub    $0x3,%eax
1000becb:	0f 84 a9 06 00 00    	je     0x1000c57a
1000bed1:	83 e8 13             	sub    $0x13,%eax
1000bed4:	0f 85 cc 06 00 00    	jne    0x1000c5a6
1000beda:	e9 9b 06 00 00       	jmp    0x1000c57a
1000bedf:	ff 45 bc             	incl   -0x44(%ebp)
1000bee2:	83 65 c0 00          	andl   $0x0,-0x40(%ebp)
1000bee6:	e9 8f 06 00 00       	jmp    0x1000c57a
1000beeb:	f6 c2 08             	test   $0x8,%dl
1000beee:	0f 84 45 03 00 00    	je     0x1000c239
1000bef4:	0f be c1             	movsbl %cl,%eax
1000bef7:	dd d8                	fstp   %st(0)
1000bef9:	83 e8 09             	sub    $0x9,%eax
1000befc:	0f 84 78 06 00 00    	je     0x1000c57a
1000bf02:	83 e8 01             	sub    $0x1,%eax
1000bf05:	74 d8                	je     0x1000bedf
1000bf07:	83 e8 03             	sub    $0x3,%eax
1000bf0a:	0f 84 6a 06 00 00    	je     0x1000c57a
1000bf10:	83 e8 13             	sub    $0x13,%eax
1000bf13:	0f 84 61 06 00 00    	je     0x1000c57a
1000bf19:	83 e8 3d             	sub    $0x3d,%eax
1000bf1c:	0f 84 fa 02 00 00    	je     0x1000c21c
1000bf22:	f6 c2 04             	test   $0x4,%dl
1000bf25:	74 11                	je     0x1000bf38
1000bf27:	80 f9 2c             	cmp    $0x2c,%cl
1000bf2a:	0f 85 76 06 00 00    	jne    0x1000c5a6
1000bf30:	83 e2 fb             	and    $0xfffffffb,%edx
1000bf33:	e9 c3 fe ff ff       	jmp    0x1000bdfb
1000bf38:	f6 c2 40             	test   $0x40,%dl
1000bf3b:	74 11                	je     0x1000bf4e
1000bf3d:	80 f9 3a             	cmp    $0x3a,%cl
1000bf40:	0f 85 60 06 00 00    	jne    0x1000c5a6
1000bf46:	83 e2 bf             	and    $0xffffffbf,%edx
1000bf49:	e9 ad fe ff ff       	jmp    0x1000bdfb
1000bf4e:	83 e2 f7             	and    $0xfffffff7,%edx
1000bf51:	89 55 f8             	mov    %edx,-0x8(%ebp)
1000bf54:	80 f9 22             	cmp    $0x22,%cl
1000bf57:	0f 84 7b 02 00 00    	je     0x1000c1d8
1000bf5d:	80 f9 5b             	cmp    $0x5b,%cl
1000bf60:	0f 84 39 02 00 00    	je     0x1000c19f
1000bf66:	80 f9 66             	cmp    $0x66,%cl
1000bf69:	0f 84 b5 01 00 00    	je     0x1000c124
1000bf6f:	80 f9 6e             	cmp    $0x6e,%cl
1000bf72:	0f 84 73 01 00 00    	je     0x1000c0eb
1000bf78:	80 f9 74             	cmp    $0x74,%cl
1000bf7b:	0f 84 f7 00 00 00    	je     0x1000c078
1000bf81:	80 f9 7b             	cmp    $0x7b,%cl
1000bf84:	0f 84 bb 00 00 00    	je     0x1000c045
1000bf8a:	80 f9 30             	cmp    $0x30,%cl
1000bf8d:	7c 05                	jl     0x1000bf94
1000bf8f:	80 f9 39             	cmp    $0x39,%cl
1000bf92:	7e 09                	jle    0x1000bf9d
1000bf94:	80 f9 2d             	cmp    $0x2d,%cl
1000bf97:	0f 85 09 06 00 00    	jne    0x1000c5a6
1000bf9d:	6a 03                	push   $0x3
1000bf9f:	8d 45 e0             	lea    -0x20(%ebp),%eax
1000bfa2:	50                   	push   %eax
1000bfa3:	8d 45 e8             	lea    -0x18(%ebp),%eax
1000bfa6:	50                   	push   %eax
1000bfa7:	8d 45 f0             	lea    -0x10(%ebp),%eax
1000bfaa:	50                   	push   %eax
1000bfab:	8d 45 90             	lea    -0x70(%ebp),%eax
1000bfae:	50                   	push   %eax
1000bfaf:	e8 d6 06 00 00       	call   0x1000c68a
1000bfb4:	83 c4 14             	add    $0x14,%esp
1000bfb7:	85 c0                	test   %eax,%eax
1000bfb9:	0f 84 e7 05 00 00    	je     0x1000c5a6
1000bfbf:	83 7d b4 00          	cmpl   $0x0,-0x4c(%ebp)
1000bfc3:	8b 5d b8             	mov    -0x48(%ebp),%ebx
1000bfc6:	75 45                	jne    0x1000c00d
1000bfc8:	8a 45 0f             	mov    0xf(%ebp),%al
1000bfcb:	8b 7d e4             	mov    -0x1c(%ebp),%edi
1000bfce:	3c 30                	cmp    $0x30,%al
1000bfd0:	7c 04                	jl     0x1000bfd6
1000bfd2:	3c 39                	cmp    $0x39,%al
1000bfd4:	7e 14                	jle    0x1000bfea
1000bfd6:	3c 2b                	cmp    $0x2b,%al
1000bfd8:	74 10                	je     0x1000bfea
1000bfda:	3c 2d                	cmp    $0x2d,%al
1000bfdc:	74 0c                	je     0x1000bfea
1000bfde:	3c 65                	cmp    $0x65,%al
1000bfe0:	74 08                	je     0x1000bfea
1000bfe2:	3c 45                	cmp    $0x45,%al
1000bfe4:	74 04                	je     0x1000bfea
1000bfe6:	3c 2e                	cmp    $0x2e,%al
1000bfe8:	75 0c                	jne    0x1000bff6
1000bfea:	43                   	inc    %ebx
1000bfeb:	89 5d b8             	mov    %ebx,-0x48(%ebp)
1000bfee:	3b df                	cmp    %edi,%ebx
1000bff0:	74 04                	je     0x1000bff6
1000bff2:	8a 03                	mov    (%ebx),%al
1000bff4:	eb d8                	jmp    0x1000bfce
1000bff6:	8b 55 f8             	mov    -0x8(%ebp),%edx
1000bff9:	8b 75 f0             	mov    -0x10(%ebp),%esi
1000bffc:	83 ca 03             	or     $0x3,%edx
1000bfff:	8b 7d 10             	mov    0x10(%ebp),%edi
1000c002:	89 55 f8             	mov    %edx,-0x8(%ebp)
1000c005:	89 75 f4             	mov    %esi,-0xc(%ebp)
1000c008:	e9 e9 04 00 00       	jmp    0x1000c4f6
1000c00d:	8b 55 f8             	mov    -0x8(%ebp),%edx
1000c010:	83 65 dc 00          	andl   $0x0,-0x24(%ebp)
1000c014:	81 e2 ff e0 ff ff    	and    $0xffffe0ff,%edx
1000c01a:	83 65 c4 00          	andl   $0x0,-0x3c(%ebp)
1000c01e:	83 65 c8 00          	andl   $0x0,-0x38(%ebp)
1000c022:	83 65 d0 00          	andl   $0x0,-0x30(%ebp)
1000c026:	80 7d 0f 2d          	cmpb   $0x2d,0xf(%ebp)
1000c02a:	8b 75 f0             	mov    -0x10(%ebp),%esi
1000c02d:	89 75 f4             	mov    %esi,-0xc(%ebp)
1000c030:	74 08                	je     0x1000c03a
1000c032:	83 ca 02             	or     $0x2,%edx
1000c035:	e9 3d 04 00 00       	jmp    0x1000c477
1000c03a:	81 ca 00 01 00 00    	or     $0x100,%edx
1000c040:	e9 b6 fd ff ff       	jmp    0x1000bdfb
1000c045:	6a 01                	push   $0x1
1000c047:	8d 45 e0             	lea    -0x20(%ebp),%eax
1000c04a:	50                   	push   %eax
1000c04b:	8d 45 e8             	lea    -0x18(%ebp),%eax
1000c04e:	50                   	push   %eax
1000c04f:	8d 45 f0             	lea    -0x10(%ebp),%eax
1000c052:	50                   	push   %eax
1000c053:	8d 45 90             	lea    -0x70(%ebp),%eax
1000c056:	50                   	push   %eax
1000c057:	e8 2e 06 00 00       	call   0x1000c68a
1000c05c:	83 c4 14             	add    $0x14,%esp
1000c05f:	85 c0                	test   %eax,%eax
1000c061:	0f 84 3f 05 00 00    	je     0x1000c5a6
1000c067:	8b 75 f0             	mov    -0x10(%ebp),%esi
1000c06a:	8b 5d b8             	mov    -0x48(%ebp),%ebx
1000c06d:	8b 55 f8             	mov    -0x8(%ebp),%edx
1000c070:	89 75 f4             	mov    %esi,-0xc(%ebp)
1000c073:	e9 02 05 00 00       	jmp    0x1000c57a
1000c078:	8b 45 e4             	mov    -0x1c(%ebp),%eax
1000c07b:	2b c3                	sub    %ebx,%eax
1000c07d:	83 f8 03             	cmp    $0x3,%eax
1000c080:	0f 8c 20 05 00 00    	jl     0x1000c5a6
1000c086:	43                   	inc    %ebx
1000c087:	89 5d b8             	mov    %ebx,-0x48(%ebp)
1000c08a:	80 3b 72             	cmpb   $0x72,(%ebx)
1000c08d:	0f 85 13 05 00 00    	jne    0x1000c5a6
1000c093:	43                   	inc    %ebx
1000c094:	89 5d b8             	mov    %ebx,-0x48(%ebp)
1000c097:	80 3b 75             	cmpb   $0x75,(%ebx)
1000c09a:	0f 85 06 05 00 00    	jne    0x1000c5a6
1000c0a0:	43                   	inc    %ebx
1000c0a1:	89 5d b8             	mov    %ebx,-0x48(%ebp)
1000c0a4:	80 3b 65             	cmpb   $0x65,(%ebx)
1000c0a7:	0f 85 f9 04 00 00    	jne    0x1000c5a6
1000c0ad:	6a 06                	push   $0x6
1000c0af:	8d 45 e0             	lea    -0x20(%ebp),%eax
1000c0b2:	50                   	push   %eax
1000c0b3:	8d 45 e8             	lea    -0x18(%ebp),%eax
1000c0b6:	50                   	push   %eax
1000c0b7:	8d 45 f0             	lea    -0x10(%ebp),%eax
1000c0ba:	50                   	push   %eax
1000c0bb:	8d 45 90             	lea    -0x70(%ebp),%eax
1000c0be:	50                   	push   %eax
1000c0bf:	e8 c6 05 00 00       	call   0x1000c68a
1000c0c4:	83 c4 14             	add    $0x14,%esp
1000c0c7:	85 c0                	test   %eax,%eax
1000c0c9:	0f 84 d7 04 00 00    	je     0x1000c5a6
1000c0cf:	8b 75 f0             	mov    -0x10(%ebp),%esi
1000c0d2:	33 c0                	xor    %eax,%eax
1000c0d4:	8b 55 f8             	mov    -0x8(%ebp),%edx
1000c0d7:	40                   	inc    %eax
1000c0d8:	8b 5d b8             	mov    -0x48(%ebp),%ebx
1000c0db:	0b d0                	or     %eax,%edx
1000c0dd:	89 75 f4             	mov    %esi,-0xc(%ebp)
1000c0e0:	89 46 08             	mov    %eax,0x8(%esi)
1000c0e3:	89 55 f8             	mov    %edx,-0x8(%ebp)
1000c0e6:	e9 0b 04 00 00       	jmp    0x1000c4f6
1000c0eb:	8b 45 e4             	mov    -0x1c(%ebp),%eax
1000c0ee:	2b c3                	sub    %ebx,%eax
1000c0f0:	83 f8 03             	cmp    $0x3,%eax
1000c0f3:	0f 8c ad 04 00 00    	jl     0x1000c5a6
1000c0f9:	43                   	inc    %ebx
1000c0fa:	89 5d b8             	mov    %ebx,-0x48(%ebp)
1000c0fd:	80 3b 75             	cmpb   $0x75,(%ebx)
1000c100:	0f 85 a0 04 00 00    	jne    0x1000c5a6
1000c106:	43                   	inc    %ebx
1000c107:	89 5d b8             	mov    %ebx,-0x48(%ebp)
1000c10a:	80 3b 6c             	cmpb   $0x6c,(%ebx)
1000c10d:	0f 85 93 04 00 00    	jne    0x1000c5a6
1000c113:	43                   	inc    %ebx
1000c114:	89 5d b8             	mov    %ebx,-0x48(%ebp)
1000c117:	80 3b 6c             	cmpb   $0x6c,(%ebx)
1000c11a:	0f 85 86 04 00 00    	jne    0x1000c5a6
1000c120:	6a 07                	push   $0x7
1000c122:	eb 44                	jmp    0x1000c168
1000c124:	8b 45 e4             	mov    -0x1c(%ebp),%eax
1000c127:	2b c3                	sub    %ebx,%eax
1000c129:	83 f8 04             	cmp    $0x4,%eax
1000c12c:	0f 8c 74 04 00 00    	jl     0x1000c5a6
1000c132:	43                   	inc    %ebx
1000c133:	89 5d b8             	mov    %ebx,-0x48(%ebp)
1000c136:	80 3b 61             	cmpb   $0x61,(%ebx)
1000c139:	0f 85 67 04 00 00    	jne    0x1000c5a6
1000c13f:	43                   	inc    %ebx
1000c140:	89 5d b8             	mov    %ebx,-0x48(%ebp)
1000c143:	80 3b 6c             	cmpb   $0x6c,(%ebx)
1000c146:	0f 85 5a 04 00 00    	jne    0x1000c5a6
1000c14c:	43                   	inc    %ebx
1000c14d:	89 5d b8             	mov    %ebx,-0x48(%ebp)
1000c150:	80 3b 73             	cmpb   $0x73,(%ebx)
1000c153:	0f 85 4d 04 00 00    	jne    0x1000c5a6
1000c159:	43                   	inc    %ebx
1000c15a:	89 5d b8             	mov    %ebx,-0x48(%ebp)
1000c15d:	80 3b 65             	cmpb   $0x65,(%ebx)
1000c160:	0f 85 40 04 00 00    	jne    0x1000c5a6
1000c166:	6a 06                	push   $0x6
1000c168:	8d 45 e0             	lea    -0x20(%ebp),%eax
1000c16b:	50                   	push   %eax
1000c16c:	8d 45 e8             	lea    -0x18(%ebp),%eax
1000c16f:	50                   	push   %eax
1000c170:	8d 45 f0             	lea    -0x10(%ebp),%eax
1000c173:	50                   	push   %eax
1000c174:	8d 45 90             	lea    -0x70(%ebp),%eax
1000c177:	50                   	push   %eax
1000c178:	e8 0d 05 00 00       	call   0x1000c68a
1000c17d:	83 c4 14             	add    $0x14,%esp
1000c180:	85 c0                	test   %eax,%eax
1000c182:	0f 84 1e 04 00 00    	je     0x1000c5a6
1000c188:	8b 55 f8             	mov    -0x8(%ebp),%edx
1000c18b:	8b 75 f0             	mov    -0x10(%ebp),%esi
1000c18e:	83 ca 01             	or     $0x1,%edx
1000c191:	8b 5d b8             	mov    -0x48(%ebp),%ebx
1000c194:	89 55 f8             	mov    %edx,-0x8(%ebp)
1000c197:	89 75 f4             	mov    %esi,-0xc(%ebp)
1000c19a:	e9 57 03 00 00       	jmp    0x1000c4f6
1000c19f:	6a 02                	push   $0x2
1000c1a1:	8d 45 e0             	lea    -0x20(%ebp),%eax
1000c1a4:	50                   	push   %eax
1000c1a5:	8d 45 e8             	lea    -0x18(%ebp),%eax
1000c1a8:	50                   	push   %eax
1000c1a9:	8d 45 f0             	lea    -0x10(%ebp),%eax
1000c1ac:	50                   	push   %eax
1000c1ad:	8d 45 90             	lea    -0x70(%ebp),%eax
1000c1b0:	50                   	push   %eax
1000c1b1:	e8 d4 04 00 00       	call   0x1000c68a
1000c1b6:	83 c4 14             	add    $0x14,%esp
1000c1b9:	85 c0                	test   %eax,%eax
1000c1bb:	0f 84 e5 03 00 00    	je     0x1000c5a6
1000c1c1:	8b 55 f8             	mov    -0x8(%ebp),%edx
1000c1c4:	8b 75 f0             	mov    -0x10(%ebp),%esi
1000c1c7:	83 ca 08             	or     $0x8,%edx
1000c1ca:	8b 5d b8             	mov    -0x48(%ebp),%ebx
1000c1cd:	89 55 f8             	mov    %edx,-0x8(%ebp)
1000c1d0:	89 75 f4             	mov    %esi,-0xc(%ebp)
1000c1d3:	e9 a2 03 00 00       	jmp    0x1000c57a
1000c1d8:	6a 05                	push   $0x5
1000c1da:	8d 45 e0             	lea    -0x20(%ebp),%eax
1000c1dd:	50                   	push   %eax
1000c1de:	8d 45 e8             	lea    -0x18(%ebp),%eax
1000c1e1:	50                   	push   %eax
1000c1e2:	8d 45 f0             	lea    -0x10(%ebp),%eax
1000c1e5:	50                   	push   %eax
1000c1e6:	8d 45 90             	lea    -0x70(%ebp),%eax
1000c1e9:	50                   	push   %eax
1000c1ea:	e8 9b 04 00 00       	call   0x1000c68a
1000c1ef:	83 c4 14             	add    $0x14,%esp
1000c1f2:	85 c0                	test   %eax,%eax
1000c1f4:	0f 84 ac 03 00 00    	je     0x1000c5a6
1000c1fa:	8b 75 f0             	mov    -0x10(%ebp),%esi
1000c1fd:	8b 55 f8             	mov    -0x8(%ebp),%edx
1000c200:	8b 5d b8             	mov    -0x48(%ebp),%ebx
1000c203:	83 ca 20             	or     $0x20,%edx
1000c206:	33 ff                	xor    %edi,%edi
1000c208:	89 55 f8             	mov    %edx,-0x8(%ebp)
1000c20b:	8b 4e 0c             	mov    0xc(%esi),%ecx
1000c20e:	89 75 f4             	mov    %esi,-0xc(%ebp)
1000c211:	89 4d ec             	mov    %ecx,-0x14(%ebp)
1000c214:	89 7d 10             	mov    %edi,0x10(%ebp)
1000c217:	e9 5e 03 00 00       	jmp    0x1000c57a
1000c21c:	85 f6                	test   %esi,%esi
1000c21e:	0f 84 82 03 00 00    	je     0x1000c5a6
1000c224:	83 7e 04 02          	cmpl   $0x2,0x4(%esi)
1000c228:	0f 85 78 03 00 00    	jne    0x1000c5a6
1000c22e:	83 e2 f3             	and    $0xfffffff3,%edx
1000c231:	83 ca 01             	or     $0x1,%edx
1000c234:	e9 3e 02 00 00       	jmp    0x1000c477
1000c239:	8d 46 04             	lea    0x4(%esi),%eax
1000c23c:	8b 30                	mov    (%eax),%esi
1000c23e:	89 45 08             	mov    %eax,0x8(%ebp)
1000c241:	83 fe 01             	cmp    $0x1,%esi
1000c244:	0f 84 32 02 00 00    	je     0x1000c47c
1000c24a:	8d 46 fd             	lea    -0x3(%esi),%eax
1000c24d:	83 f8 01             	cmp    $0x1,%eax
1000c250:	0f 87 9b 02 00 00    	ja     0x1000c4f1
1000c256:	8a c1                	mov    %cl,%al
1000c258:	2c 30                	sub    $0x30,%al
1000c25a:	3c 09                	cmp    $0x9,%al
1000c25c:	0f 87 c2 00 00 00    	ja     0x1000c324
1000c262:	8b 45 dc             	mov    -0x24(%ebp),%eax
1000c265:	dd d8                	fstp   %st(0)
1000c267:	40                   	inc    %eax
1000c268:	89 45 dc             	mov    %eax,-0x24(%ebp)
1000c26b:	83 fe 03             	cmp    $0x3,%esi
1000c26e:	74 3b                	je     0x1000c2ab
1000c270:	f7 c2 00 04 00 00    	test   $0x400,%edx
1000c276:	0f 85 8a 00 00 00    	jne    0x1000c306
1000c27c:	6a 00                	push   $0x0
1000c27e:	6a 0a                	push   $0xa
1000c280:	ff 75 c8             	pushl  -0x38(%ebp)
1000c283:	0f be c1             	movsbl %cl,%eax
1000c286:	ff 75 c4             	pushl  -0x3c(%ebp)
1000c289:	83 e8 30             	sub    $0x30,%eax
1000c28c:	99                   	cltd   
1000c28d:	8b f0                	mov    %eax,%esi
1000c28f:	8b fa                	mov    %edx,%edi
1000c291:	e8 ca 05 00 00       	call   0x1000c860
1000c296:	03 f0                	add    %eax,%esi
1000c298:	89 75 c4             	mov    %esi,-0x3c(%ebp)
1000c29b:	13 fa                	adc    %edx,%edi
1000c29d:	8b 55 f8             	mov    -0x8(%ebp),%edx
1000c2a0:	89 7d c8             	mov    %edi,-0x38(%ebp)
1000c2a3:	8b 7d 10             	mov    0x10(%ebp),%edi
1000c2a6:	e9 cc 02 00 00       	jmp    0x1000c577
1000c2ab:	f7 c2 00 04 00 00    	test   $0x400,%edx
1000c2b1:	75 53                	jne    0x1000c306
1000c2b3:	be 00 02 00 00       	mov    $0x200,%esi
1000c2b8:	85 d6                	test   %edx,%esi
1000c2ba:	0f 85 e6 02 00 00    	jne    0x1000c5a6
1000c2c0:	83 f8 01             	cmp    $0x1,%eax
1000c2c3:	75 0a                	jne    0x1000c2cf
1000c2c5:	80 f9 30             	cmp    $0x30,%cl
1000c2c8:	75 05                	jne    0x1000c2cf
1000c2ca:	0b d6                	or     %esi,%edx
1000c2cc:	89 55 f8             	mov    %edx,-0x8(%ebp)
1000c2cf:	0f be c1             	movsbl %cl,%eax
1000c2d2:	83 e8 30             	sub    $0x30,%eax
1000c2d5:	99                   	cltd   
1000c2d6:	8b f0                	mov    %eax,%esi
1000c2d8:	8b fa                	mov    %edx,%edi
1000c2da:	8b 45 f4             	mov    -0xc(%ebp),%eax
1000c2dd:	6a 00                	push   $0x0
1000c2df:	6a 0a                	push   $0xa
1000c2e1:	ff 70 0c             	pushl  0xc(%eax)
1000c2e4:	ff 70 08             	pushl  0x8(%eax)
1000c2e7:	e8 74 05 00 00       	call   0x1000c860
1000c2ec:	03 f0                	add    %eax,%esi
1000c2ee:	8b 45 f4             	mov    -0xc(%ebp),%eax
1000c2f1:	13 fa                	adc    %edx,%edi
1000c2f3:	8b 55 f8             	mov    -0x8(%ebp),%edx
1000c2f6:	89 70 08             	mov    %esi,0x8(%eax)
1000c2f9:	8b f0                	mov    %eax,%esi
1000c2fb:	89 7e 0c             	mov    %edi,0xc(%esi)
1000c2fe:	8b 7d 10             	mov    0x10(%ebp),%edi
1000c301:	e9 74 02 00 00       	jmp    0x1000c57a
1000c306:	6b 4d d0 0a          	imul   $0xa,-0x30(%ebp),%ecx
1000c30a:	81 ca 00 08 00 00    	or     $0x800,%edx
1000c310:	0f be 45 0f          	movsbl 0xf(%ebp),%eax
1000c314:	83 c0 d0             	add    $0xffffffd0,%eax
1000c317:	89 55 f8             	mov    %edx,-0x8(%ebp)
1000c31a:	03 c1                	add    %ecx,%eax
1000c31c:	89 45 d0             	mov    %eax,-0x30(%ebp)
1000c31f:	e9 53 02 00 00       	jmp    0x1000c577
1000c324:	80 f9 2b             	cmp    $0x2b,%cl
1000c327:	74 36                	je     0x1000c35f
1000c329:	80 f9 2d             	cmp    $0x2d,%cl
1000c32c:	74 31                	je     0x1000c35f
1000c32e:	80 f9 2e             	cmp    $0x2e,%cl
1000c331:	75 59                	jne    0x1000c38c
1000c333:	83 fe 03             	cmp    $0x3,%esi
1000c336:	75 54                	jne    0x1000c38c
1000c338:	83 7d dc 00          	cmpl   $0x0,-0x24(%ebp)
1000c33c:	dd d8                	fstp   %st(0)
1000c33e:	0f 84 62 02 00 00    	je     0x1000c5a6
1000c344:	8b 45 08             	mov    0x8(%ebp),%eax
1000c347:	8b 75 f4             	mov    -0xc(%ebp),%esi
1000c34a:	83 65 dc 00          	andl   $0x0,-0x24(%ebp)
1000c34e:	c7 00 04 00 00 00    	movl   $0x4,(%eax)
1000c354:	df 6e 08             	fildll 0x8(%esi)
1000c357:	dd 5e 08             	fstpl  0x8(%esi)
1000c35a:	e9 1b 02 00 00       	jmp    0x1000c57a
1000c35f:	8b c2                	mov    %edx,%eax
1000c361:	25 00 0c 00 00       	and    $0xc00,%eax
1000c366:	3d 00 04 00 00       	cmp    $0x400,%eax
1000c36b:	75 1f                	jne    0x1000c38c
1000c36d:	8b c2                	mov    %edx,%eax
1000c36f:	dd d8                	fstp   %st(0)
1000c371:	0d 00 08 00 00       	or     $0x800,%eax
1000c376:	8b d0                	mov    %eax,%edx
1000c378:	81 ca 00 10 00 00    	or     $0x1000,%edx
1000c37e:	80 f9 2d             	cmp    $0x2d,%cl
1000c381:	0f 45 d0             	cmovne %eax,%edx
1000c384:	89 55 f8             	mov    %edx,-0x8(%ebp)
1000c387:	e9 eb 01 00 00       	jmp    0x1000c577
1000c38c:	f7 c2 00 04 00 00    	test   $0x400,%edx
1000c392:	75 7f                	jne    0x1000c413
1000c394:	83 fe 04             	cmp    $0x4,%esi
1000c397:	75 42                	jne    0x1000c3db
1000c399:	8b 45 dc             	mov    -0x24(%ebp),%eax
1000c39c:	85 c0                	test   %eax,%eax
1000c39e:	0f 84 00 02 00 00    	je     0x1000c5a4
1000c3a4:	df 6d c4             	fildll -0x3c(%ebp)
1000c3a7:	50                   	push   %eax
1000c3a8:	51                   	push   %ecx
1000c3a9:	51                   	push   %ecx
1000c3aa:	dd 5d d4             	fstpl  -0x2c(%ebp)
1000c3ad:	dd 45 d4             	fldl   -0x2c(%ebp)
1000c3b0:	dd 5d d4             	fstpl  -0x2c(%ebp)
1000c3b3:	dd 1c 24             	fstpl  (%esp)
1000c3b6:	e8 8a 02 00 00       	call   0x1000c645
1000c3bb:	dc 7d d4             	fdivrl -0x2c(%ebp)
1000c3be:	83 c4 0c             	add    $0xc,%esp
1000c3c1:	8b 45 f4             	mov    -0xc(%ebp),%eax
1000c3c4:	8b 75 f0             	mov    -0x10(%ebp),%esi
1000c3c7:	8b 5d b8             	mov    -0x48(%ebp),%ebx
1000c3ca:	8b 55 f8             	mov    -0x8(%ebp),%edx
1000c3cd:	8a 4d 0f             	mov    0xf(%ebp),%cl
1000c3d0:	89 75 f4             	mov    %esi,-0xc(%ebp)
1000c3d3:	dc 40 08             	faddl  0x8(%eax)
1000c3d6:	dd 58 08             	fstpl  0x8(%eax)
1000c3d9:	eb 05                	jmp    0x1000c3e0
1000c3db:	8b 75 f4             	mov    -0xc(%ebp),%esi
1000c3de:	dd d8                	fstp   %st(0)
1000c3e0:	80 f9 65             	cmp    $0x65,%cl
1000c3e3:	74 05                	je     0x1000c3ea
1000c3e5:	80 f9 45             	cmp    $0x45,%cl
1000c3e8:	75 5d                	jne    0x1000c447
1000c3ea:	8b 45 08             	mov    0x8(%ebp),%eax
1000c3ed:	81 ca 00 04 00 00    	or     $0x400,%edx
1000c3f3:	83 38 03             	cmpl   $0x3,(%eax)
1000c3f6:	75 0c                	jne    0x1000c404
1000c3f8:	c7 00 04 00 00 00    	movl   $0x4,(%eax)
1000c3fe:	df 6e 08             	fildll 0x8(%esi)
1000c401:	dd 5e 08             	fstpl  0x8(%esi)
1000c404:	83 65 dc 00          	andl   $0x0,-0x24(%ebp)
1000c408:	81 e2 ff fd ff ff    	and    $0xfffffdff,%edx
1000c40e:	e9 e8 f9 ff ff       	jmp    0x1000bdfb
1000c413:	83 7d dc 00          	cmpl   $0x0,-0x24(%ebp)
1000c417:	0f 84 87 01 00 00    	je     0x1000c5a4
1000c41d:	8b 45 d0             	mov    -0x30(%ebp),%eax
1000c420:	8b c8                	mov    %eax,%ecx
1000c422:	f7 d9                	neg    %ecx
1000c424:	81 e2 00 10 00 00    	and    $0x1000,%edx
1000c42a:	0f 45 c1             	cmovne %ecx,%eax
1000c42d:	50                   	push   %eax
1000c42e:	51                   	push   %ecx
1000c42f:	51                   	push   %ecx
1000c430:	dd 1c 24             	fstpl  (%esp)
1000c433:	e8 0d 02 00 00       	call   0x1000c645
1000c438:	8b 75 f4             	mov    -0xc(%ebp),%esi
1000c43b:	83 c4 0c             	add    $0xc,%esp
1000c43e:	8b 55 f8             	mov    -0x8(%ebp),%edx
1000c441:	dc 4e 08             	fmull  0x8(%esi)
1000c444:	dd 5e 08             	fstpl  0x8(%esi)
1000c447:	f7 c2 00 01 00 00    	test   $0x100,%edx
1000c44d:	74 25                	je     0x1000c474
1000c44f:	8b 45 08             	mov    0x8(%ebp),%eax
1000c452:	83 38 03             	cmpl   $0x3,(%eax)
1000c455:	75 15                	jne    0x1000c46c
1000c457:	8b 4e 08             	mov    0x8(%esi),%ecx
1000c45a:	8b 46 0c             	mov    0xc(%esi),%eax
1000c45d:	f7 d9                	neg    %ecx
1000c45f:	89 4e 08             	mov    %ecx,0x8(%esi)
1000c462:	83 d0 00             	adc    $0x0,%eax
1000c465:	f7 d8                	neg    %eax
1000c467:	89 46 0c             	mov    %eax,0xc(%esi)
1000c46a:	eb 08                	jmp    0x1000c474
1000c46c:	dd 46 08             	fldl   0x8(%esi)
1000c46f:	d9 e0                	fchs   
1000c471:	dd 5e 08             	fstpl  0x8(%esi)
1000c474:	83 ca 03             	or     $0x3,%edx
1000c477:	89 55 f8             	mov    %edx,-0x8(%ebp)
1000c47a:	eb 7a                	jmp    0x1000c4f6
1000c47c:	0f be c1             	movsbl %cl,%eax
1000c47f:	dd d8                	fstp   %st(0)
1000c481:	83 e8 09             	sub    $0x9,%eax
1000c484:	0f 84 ed 00 00 00    	je     0x1000c577
1000c48a:	83 e8 01             	sub    $0x1,%eax
1000c48d:	0f 84 dd 00 00 00    	je     0x1000c570
1000c493:	83 e8 03             	sub    $0x3,%eax
1000c496:	0f 84 db 00 00 00    	je     0x1000c577
1000c49c:	83 e8 13             	sub    $0x13,%eax
1000c49f:	0f 84 d2 00 00 00    	je     0x1000c577
1000c4a5:	48                   	dec    %eax
1000c4a6:	83 e8 01             	sub    $0x1,%eax
1000c4a9:	74 27                	je     0x1000c4d2
1000c4ab:	83 e8 0a             	sub    $0xa,%eax
1000c4ae:	74 14                	je     0x1000c4c4
1000c4b0:	83 e8 51             	sub    $0x51,%eax
1000c4b3:	0f 85 ed 00 00 00    	jne    0x1000c5a6
1000c4b9:	83 e2 fb             	and    $0xfffffffb,%edx
1000c4bc:	83 ca 01             	or     $0x1,%edx
1000c4bf:	89 55 f8             	mov    %edx,-0x8(%ebp)
1000c4c2:	eb 2f                	jmp    0x1000c4f3
1000c4c4:	f6 c2 04             	test   $0x4,%dl
1000c4c7:	0f 84 d9 00 00 00    	je     0x1000c5a6
1000c4cd:	83 e2 fb             	and    $0xfffffffb,%edx
1000c4d0:	eb ed                	jmp    0x1000c4bf
1000c4d2:	f6 c2 04             	test   $0x4,%dl
1000c4d5:	0f 85 cb 00 00 00    	jne    0x1000c5a6
1000c4db:	8b 75 f4             	mov    -0xc(%ebp),%esi
1000c4de:	83 ca 20             	or     $0x20,%edx
1000c4e1:	33 ff                	xor    %edi,%edi
1000c4e3:	89 55 f8             	mov    %edx,-0x8(%ebp)
1000c4e6:	89 7d 10             	mov    %edi,0x10(%ebp)
1000c4e9:	8b 46 10             	mov    0x10(%esi),%eax
1000c4ec:	89 45 ec             	mov    %eax,-0x14(%ebp)
1000c4ef:	eb 05                	jmp    0x1000c4f6
1000c4f1:	dd d8                	fstp   %st(0)
1000c4f3:	8b 75 f4             	mov    -0xc(%ebp),%esi
1000c4f6:	f6 c2 02             	test   $0x2,%dl
1000c4f9:	74 0a                	je     0x1000c505
1000c4fb:	83 e2 fd             	and    $0xfffffffd,%edx
1000c4fe:	4b                   	dec    %ebx
1000c4ff:	89 55 f8             	mov    %edx,-0x8(%ebp)
1000c502:	89 5d b8             	mov    %ebx,-0x48(%ebp)
1000c505:	f6 c2 01             	test   $0x1,%dl
1000c508:	74 70                	je     0x1000c57a
1000c50a:	8b 06                	mov    (%esi),%eax
1000c50c:	83 e2 fe             	and    $0xfffffffe,%edx
1000c50f:	83 ca 04             	or     $0x4,%edx
1000c512:	8b ca                	mov    %edx,%ecx
1000c514:	85 c0                	test   %eax,%eax
1000c516:	75 0b                	jne    0x1000c523
1000c518:	81 ca 80 00 00 00    	or     $0x80,%edx
1000c51e:	e9 d8 f8 ff ff       	jmp    0x1000bdfb
1000c523:	83 ca 08             	or     $0x8,%edx
1000c526:	83 78 04 02          	cmpl   $0x2,0x4(%eax)
1000c52a:	0f 45 d1             	cmovne %ecx,%edx
1000c52d:	83 7d b4 00          	cmpl   $0x0,-0x4c(%ebp)
1000c531:	89 55 f8             	mov    %edx,-0x8(%ebp)
1000c534:	75 23                	jne    0x1000c559
1000c536:	8b 48 04             	mov    0x4(%eax),%ecx
1000c539:	83 e9 01             	sub    $0x1,%ecx
1000c53c:	74 10                	je     0x1000c54e
1000c53e:	83 e9 01             	sub    $0x1,%ecx
1000c541:	75 16                	jne    0x1000c559
1000c543:	8b 48 08             	mov    0x8(%eax),%ecx
1000c546:	8b 40 0c             	mov    0xc(%eax),%eax
1000c549:	89 34 88             	mov    %esi,(%eax,%ecx,4)
1000c54c:	eb 0b                	jmp    0x1000c559
1000c54e:	6b 48 08 0c          	imul   $0xc,0x8(%eax),%ecx
1000c552:	8b 40 0c             	mov    0xc(%eax),%eax
1000c555:	89 74 01 08          	mov    %esi,0x8(%ecx,%eax,1)
1000c559:	8b 06                	mov    (%esi),%eax
1000c55b:	ff 40 08             	incl   0x8(%eax)
1000c55e:	8b 40 08             	mov    0x8(%eax),%eax
1000c561:	3b 45 94             	cmp    -0x6c(%ebp),%eax
1000c564:	77 40                	ja     0x1000c5a6
1000c566:	8b 36                	mov    (%esi),%esi
1000c568:	89 75 f4             	mov    %esi,-0xc(%ebp)
1000c56b:	89 75 f0             	mov    %esi,-0x10(%ebp)
1000c56e:	eb 0a                	jmp    0x1000c57a
1000c570:	ff 45 bc             	incl   -0x44(%ebp)
1000c573:	83 65 c0 00          	andl   $0x0,-0x40(%ebp)
1000c577:	8b 75 f4             	mov    -0xc(%ebp),%esi
1000c57a:	8b 45 b4             	mov    -0x4c(%ebp),%eax
1000c57d:	dd 05 d8 fd 00 10    	fldl   0x1000fdd8
1000c583:	43                   	inc    %ebx
1000c584:	e9 aa f4 ff ff       	jmp    0x1000ba33
1000c589:	83 6d b4 01          	subl   $0x1,-0x4c(%ebp)
1000c58d:	8b 45 e8             	mov    -0x18(%ebp),%eax
1000c590:	89 45 e0             	mov    %eax,-0x20(%ebp)
1000c593:	78 0b                	js     0x1000c5a0
1000c595:	8b 45 b4             	mov    -0x4c(%ebp),%eax
1000c598:	8b 5d cc             	mov    -0x34(%ebp),%ebx
1000c59b:	e9 72 f4 ff ff       	jmp    0x1000ba12
1000c5a0:	dd d8                	fstp   %st(0)
1000c5a2:	eb 34                	jmp    0x1000c5d8
1000c5a4:	dd d8                	fstp   %st(0)
1000c5a6:	8b 5d b4             	mov    -0x4c(%ebp),%ebx
1000c5a9:	85 db                	test   %ebx,%ebx
1000c5ab:	8b 45 e0             	mov    -0x20(%ebp),%eax
1000c5ae:	0f 45 45 e8          	cmovne -0x18(%ebp),%eax
1000c5b2:	85 c0                	test   %eax,%eax
1000c5b4:	74 0e                	je     0x1000c5c4
1000c5b6:	8b 70 10             	mov    0x10(%eax),%esi
1000c5b9:	50                   	push   %eax
1000c5ba:	ff 55 a8             	call   *-0x58(%ebp)
1000c5bd:	8b c6                	mov    %esi,%eax
1000c5bf:	59                   	pop    %ecx
1000c5c0:	85 f6                	test   %esi,%esi
1000c5c2:	75 f2                	jne    0x1000c5b6
1000c5c4:	85 db                	test   %ebx,%ebx
1000c5c6:	75 0e                	jne    0x1000c5d6
1000c5c8:	ff 75 e8             	pushl  -0x18(%ebp)
1000c5cb:	8d 45 9c             	lea    -0x64(%ebp),%eax
1000c5ce:	50                   	push   %eax
1000c5cf:	e8 0b 00 00 00       	call   0x1000c5df
1000c5d4:	59                   	pop    %ecx
1000c5d5:	59                   	pop    %ecx
1000c5d6:	33 c0                	xor    %eax,%eax
1000c5d8:	5f                   	pop    %edi
1000c5d9:	5e                   	pop    %esi
1000c5da:	5b                   	pop    %ebx
1000c5db:	8b e5                	mov    %ebp,%esp
1000c5dd:	5d                   	pop    %ebp
1000c5de:	c3                   	ret    
1000c5df:	55                   	push   %ebp
1000c5e0:	8b ec                	mov    %esp,%ebp
1000c5e2:	56                   	push   %esi
1000c5e3:	8b 75 0c             	mov    0xc(%ebp),%esi
1000c5e6:	85 f6                	test   %esi,%esi
1000c5e8:	74 58                	je     0x1000c642
1000c5ea:	83 26 00             	andl   $0x0,(%esi)
1000c5ed:	57                   	push   %edi
1000c5ee:	8b 7d 08             	mov    0x8(%ebp),%edi
1000c5f1:	8b 46 04             	mov    0x4(%esi),%eax
1000c5f4:	83 e8 01             	sub    $0x1,%eax
1000c5f7:	74 1f                	je     0x1000c618
1000c5f9:	83 e8 01             	sub    $0x1,%eax
1000c5fc:	74 07                	je     0x1000c605
1000c5fe:	83 e8 03             	sub    $0x3,%eax
1000c601:	75 23                	jne    0x1000c626
1000c603:	eb 1a                	jmp    0x1000c61f
1000c605:	8b 4e 08             	mov    0x8(%esi),%ecx
1000c608:	85 c9                	test   %ecx,%ecx
1000c60a:	74 13                	je     0x1000c61f
1000c60c:	8b 46 0c             	mov    0xc(%esi),%eax
1000c60f:	49                   	dec    %ecx
1000c610:	89 4e 08             	mov    %ecx,0x8(%esi)
1000c613:	8b 34 88             	mov    (%eax,%ecx,4),%esi
1000c616:	eb 25                	jmp    0x1000c63d
1000c618:	8b 46 08             	mov    0x8(%esi),%eax
1000c61b:	85 c0                	test   %eax,%eax
1000c61d:	75 10                	jne    0x1000c62f
1000c61f:	ff 76 0c             	pushl  0xc(%esi)
1000c622:	ff 57 0c             	call   *0xc(%edi)
1000c625:	59                   	pop    %ecx
1000c626:	56                   	push   %esi
1000c627:	8b 36                	mov    (%esi),%esi
1000c629:	ff 57 0c             	call   *0xc(%edi)
1000c62c:	59                   	pop    %ecx
1000c62d:	eb 0e                	jmp    0x1000c63d
1000c62f:	48                   	dec    %eax
1000c630:	6b c8 0c             	imul   $0xc,%eax,%ecx
1000c633:	89 46 08             	mov    %eax,0x8(%esi)
1000c636:	8b 46 0c             	mov    0xc(%esi),%eax
1000c639:	8b 74 01 08          	mov    0x8(%ecx,%eax,1),%esi
1000c63d:	85 f6                	test   %esi,%esi
1000c63f:	75 b0                	jne    0x1000c5f1
1000c641:	5f                   	pop    %edi
1000c642:	5e                   	pop    %esi
1000c643:	5d                   	pop    %ebp
1000c644:	c3                   	ret    
1000c645:	55                   	push   %ebp
1000c646:	8b ec                	mov    %esp,%ebp
1000c648:	53                   	push   %ebx
1000c649:	8b 5d 10             	mov    0x10(%ebp),%ebx
1000c64c:	85 db                	test   %ebx,%ebx
1000c64e:	75 04                	jne    0x1000c654
1000c650:	d9 e8                	fld1   
1000c652:	eb 33                	jmp    0x1000c687
1000c654:	dd 45 08             	fldl   0x8(%ebp)
1000c657:	8b c3                	mov    %ebx,%eax
1000c659:	99                   	cltd   
1000c65a:	2b c2                	sub    %edx,%eax
1000c65c:	d1 f8                	sar    %eax
1000c65e:	50                   	push   %eax
1000c65f:	51                   	push   %ecx
1000c660:	51                   	push   %ecx
1000c661:	dd 1c 24             	fstpl  (%esp)
1000c664:	e8 dc ff ff ff       	call   0x1000c645
1000c669:	83 c4 0c             	add    $0xc,%esp
1000c66c:	f6 c3 01             	test   $0x1,%bl
1000c66f:	75 04                	jne    0x1000c675
1000c671:	dc c8                	fmul   %st,%st(0)
1000c673:	eb 12                	jmp    0x1000c687
1000c675:	85 db                	test   %ebx,%ebx
1000c677:	7e 09                	jle    0x1000c682
1000c679:	d9 c0                	fld    %st(0)
1000c67b:	dc 4d 08             	fmull  0x8(%ebp)
1000c67e:	de c9                	fmulp  %st,%st(1)
1000c680:	eb 05                	jmp    0x1000c687
1000c682:	dc c8                	fmul   %st,%st(0)
1000c684:	dc 75 08             	fdivl  0x8(%ebp)
1000c687:	5b                   	pop    %ebx
1000c688:	5d                   	pop    %ebp
1000c689:	c3                   	ret    
1000c68a:	55                   	push   %ebp
1000c68b:	8b ec                	mov    %esp,%ebp
1000c68d:	8b 55 08             	mov    0x8(%ebp),%edx
1000c690:	53                   	push   %ebx
1000c691:	33 db                	xor    %ebx,%ebx
1000c693:	56                   	push   %esi
1000c694:	57                   	push   %edi
1000c695:	39 5a 24             	cmp    %ebx,0x24(%edx)
1000c698:	0f 85 85 00 00 00    	jne    0x1000c723
1000c69e:	8b 4d 14             	mov    0x14(%ebp),%ecx
1000c6a1:	8b 45 0c             	mov    0xc(%ebp),%eax
1000c6a4:	8b 31                	mov    (%ecx),%esi
1000c6a6:	89 30                	mov    %esi,(%eax)
1000c6a8:	8b 01                	mov    (%ecx),%eax
1000c6aa:	8b 40 10             	mov    0x10(%eax),%eax
1000c6ad:	89 01                	mov    %eax,(%ecx)
1000c6af:	8b 45 10             	mov    0x10(%ebp),%eax
1000c6b2:	39 18                	cmp    %ebx,(%eax)
1000c6b4:	75 02                	jne    0x1000c6b8
1000c6b6:	89 30                	mov    %esi,(%eax)
1000c6b8:	8b 46 04             	mov    0x4(%esi),%eax
1000c6bb:	83 e8 01             	sub    $0x1,%eax
1000c6be:	74 38                	je     0x1000c6f8
1000c6c0:	83 e8 01             	sub    $0x1,%eax
1000c6c3:	74 0f                	je     0x1000c6d4
1000c6c5:	83 e8 03             	sub    $0x3,%eax
1000c6c8:	0f 85 93 00 00 00    	jne    0x1000c761
1000c6ce:	8b 46 08             	mov    0x8(%esi),%eax
1000c6d1:	40                   	inc    %eax
1000c6d2:	eb 0e                	jmp    0x1000c6e2
1000c6d4:	8b 46 08             	mov    0x8(%esi),%eax
1000c6d7:	85 c0                	test   %eax,%eax
1000c6d9:	0f 84 82 00 00 00    	je     0x1000c761
1000c6df:	c1 e0 02             	shl    $0x2,%eax
1000c6e2:	53                   	push   %ebx
1000c6e3:	50                   	push   %eax
1000c6e4:	52                   	push   %edx
1000c6e5:	e8 7a f2 ff ff       	call   0x1000b964
1000c6ea:	83 c4 0c             	add    $0xc,%esp
1000c6ed:	89 46 0c             	mov    %eax,0xc(%esi)
1000c6f0:	85 c0                	test   %eax,%eax
1000c6f2:	75 2a                	jne    0x1000c71e
1000c6f4:	33 c0                	xor    %eax,%eax
1000c6f6:	eb 6c                	jmp    0x1000c764
1000c6f8:	8b 46 08             	mov    0x8(%esi),%eax
1000c6fb:	85 c0                	test   %eax,%eax
1000c6fd:	74 62                	je     0x1000c761
1000c6ff:	6b f8 0c             	imul   $0xc,%eax,%edi
1000c702:	8b 46 0c             	mov    0xc(%esi),%eax
1000c705:	53                   	push   %ebx
1000c706:	03 c7                	add    %edi,%eax
1000c708:	50                   	push   %eax
1000c709:	52                   	push   %edx
1000c70a:	e8 55 f2 ff ff       	call   0x1000b964
1000c70f:	83 c4 0c             	add    $0xc,%esp
1000c712:	89 46 0c             	mov    %eax,0xc(%esi)
1000c715:	85 c0                	test   %eax,%eax
1000c717:	74 db                	je     0x1000c6f4
1000c719:	03 c7                	add    %edi,%eax
1000c71b:	89 46 10             	mov    %eax,0x10(%esi)
1000c71e:	89 5e 08             	mov    %ebx,0x8(%esi)
1000c721:	eb 3e                	jmp    0x1000c761
1000c723:	8b 42 20             	mov    0x20(%edx),%eax
1000c726:	6a 01                	push   $0x1
1000c728:	83 c0 18             	add    $0x18,%eax
1000c72b:	50                   	push   %eax
1000c72c:	52                   	push   %edx
1000c72d:	e8 32 f2 ff ff       	call   0x1000b964
1000c732:	8b c8                	mov    %eax,%ecx
1000c734:	83 c4 0c             	add    $0xc,%esp
1000c737:	85 c9                	test   %ecx,%ecx
1000c739:	74 b9                	je     0x1000c6f4
1000c73b:	8b 45 10             	mov    0x10(%ebp),%eax
1000c73e:	39 18                	cmp    %ebx,(%eax)
1000c740:	75 02                	jne    0x1000c744
1000c742:	89 08                	mov    %ecx,(%eax)
1000c744:	8b 75 0c             	mov    0xc(%ebp),%esi
1000c747:	8b 45 18             	mov    0x18(%ebp),%eax
1000c74a:	8b 7d 14             	mov    0x14(%ebp),%edi
1000c74d:	89 41 04             	mov    %eax,0x4(%ecx)
1000c750:	8b 06                	mov    (%esi),%eax
1000c752:	89 01                	mov    %eax,(%ecx)
1000c754:	8b 17                	mov    (%edi),%edx
1000c756:	85 d2                	test   %edx,%edx
1000c758:	74 03                	je     0x1000c75d
1000c75a:	89 4a 10             	mov    %ecx,0x10(%edx)
1000c75d:	89 0e                	mov    %ecx,(%esi)
1000c75f:	89 0f                	mov    %ecx,(%edi)
1000c761:	33 c0                	xor    %eax,%eax
1000c763:	40                   	inc    %eax
1000c764:	5f                   	pop    %edi
1000c765:	5e                   	pop    %esi
1000c766:	5b                   	pop    %ebx
1000c767:	5d                   	pop    %ebp
1000c768:	c3                   	ret    
1000c769:	cc                   	int3   
1000c76a:	cc                   	int3   
1000c76b:	cc                   	int3   
1000c76c:	cc                   	int3   
1000c76d:	cc                   	int3   
1000c76e:	cc                   	int3   
1000c76f:	cc                   	int3   
1000c770:	51                   	push   %ecx
1000c771:	8d 4c 24 04          	lea    0x4(%esp),%ecx
1000c775:	2b c8                	sub    %eax,%ecx
1000c777:	1b c0                	sbb    %eax,%eax
1000c779:	f7 d0                	not    %eax
1000c77b:	23 c8                	and    %eax,%ecx
1000c77d:	8b c4                	mov    %esp,%eax
1000c77f:	25 00 f0 ff ff       	and    $0xfffff000,%eax
1000c784:	3b c8                	cmp    %eax,%ecx
1000c786:	f2 72 0b             	bnd jb 0x1000c794
1000c789:	8b c1                	mov    %ecx,%eax
1000c78b:	59                   	pop    %ecx
1000c78c:	94                   	xchg   %eax,%esp
1000c78d:	8b 00                	mov    (%eax),%eax
1000c78f:	89 04 24             	mov    %eax,(%esp)
1000c792:	f2 c3                	bnd ret 
1000c794:	2d 00 10 00 00       	sub    $0x1000,%eax
1000c799:	85 00                	test   %eax,(%eax)
1000c79b:	eb e7                	jmp    0x1000c784
1000c79d:	cc                   	int3   
1000c79e:	cc                   	int3   
1000c79f:	cc                   	int3   
1000c7a0:	83 3d fc 30 01 10 00 	cmpl   $0x0,0x100130fc
1000c7a7:	74 37                	je     0x1000c7e0
1000c7a9:	55                   	push   %ebp
1000c7aa:	8b ec                	mov    %esp,%ebp
1000c7ac:	83 ec 08             	sub    $0x8,%esp
1000c7af:	83 e4 f8             	and    $0xfffffff8,%esp
1000c7b2:	dd 1c 24             	fstpl  (%esp)
1000c7b5:	f2 0f 2c 04 24       	cvttsd2si (%esp),%eax
1000c7ba:	c9                   	leave  
1000c7bb:	c3                   	ret    
1000c7bc:	83 3d fc 30 01 10 00 	cmpl   $0x0,0x100130fc
1000c7c3:	74 1b                	je     0x1000c7e0
1000c7c5:	83 ec 04             	sub    $0x4,%esp
1000c7c8:	d9 3c 24             	fnstcw (%esp)
1000c7cb:	58                   	pop    %eax
1000c7cc:	66 83 e0 7f          	and    $0x7f,%ax
1000c7d0:	66 83 f8 7f          	cmp    $0x7f,%ax
1000c7d4:	74 d3                	je     0x1000c7a9
1000c7d6:	8d a4 24 00 00 00 00 	lea    0x0(%esp),%esp
1000c7dd:	8d 49 00             	lea    0x0(%ecx),%ecx
1000c7e0:	55                   	push   %ebp
1000c7e1:	8b ec                	mov    %esp,%ebp
1000c7e3:	83 ec 20             	sub    $0x20,%esp
1000c7e6:	83 e4 f0             	and    $0xfffffff0,%esp
1000c7e9:	d9 c0                	fld    %st(0)
1000c7eb:	d9 54 24 18          	fsts   0x18(%esp)
1000c7ef:	df 7c 24 10          	fistpll 0x10(%esp)
1000c7f3:	df 6c 24 10          	fildll 0x10(%esp)
1000c7f7:	8b 54 24 18          	mov    0x18(%esp),%edx
1000c7fb:	8b 44 24 10          	mov    0x10(%esp),%eax
1000c7ff:	85 c0                	test   %eax,%eax
1000c801:	74 3c                	je     0x1000c83f
1000c803:	de e9                	fsubrp %st,%st(1)
1000c805:	85 d2                	test   %edx,%edx
1000c807:	79 1e                	jns    0x1000c827
1000c809:	d9 1c 24             	fstps  (%esp)
1000c80c:	8b 0c 24             	mov    (%esp),%ecx
1000c80f:	81 f1 00 00 00 80    	xor    $0x80000000,%ecx
1000c815:	81 c1 ff ff ff 7f    	add    $0x7fffffff,%ecx
1000c81b:	83 d0 00             	adc    $0x0,%eax
1000c81e:	8b 54 24 14          	mov    0x14(%esp),%edx
1000c822:	83 d2 00             	adc    $0x0,%edx
1000c825:	eb 2c                	jmp    0x1000c853
1000c827:	d9 1c 24             	fstps  (%esp)
1000c82a:	8b 0c 24             	mov    (%esp),%ecx
1000c82d:	81 c1 ff ff ff 7f    	add    $0x7fffffff,%ecx
1000c833:	83 d8 00             	sbb    $0x0,%eax
1000c836:	8b 54 24 14          	mov    0x14(%esp),%edx
1000c83a:	83 da 00             	sbb    $0x0,%edx
1000c83d:	eb 14                	jmp    0x1000c853
1000c83f:	8b 54 24 14          	mov    0x14(%esp),%edx
1000c843:	f7 c2 ff ff ff 7f    	test   $0x7fffffff,%edx
1000c849:	75 b8                	jne    0x1000c803
1000c84b:	d9 5c 24 18          	fstps  0x18(%esp)
1000c84f:	d9 5c 24 18          	fstps  0x18(%esp)
1000c853:	c9                   	leave  
1000c854:	c3                   	ret    
1000c855:	cc                   	int3   
1000c856:	cc                   	int3   
1000c857:	cc                   	int3   
1000c858:	cc                   	int3   
1000c859:	cc                   	int3   
1000c85a:	cc                   	int3   
1000c85b:	cc                   	int3   
1000c85c:	cc                   	int3   
1000c85d:	cc                   	int3   
1000c85e:	cc                   	int3   
1000c85f:	cc                   	int3   
1000c860:	8b 44 24 08          	mov    0x8(%esp),%eax
1000c864:	8b 4c 24 10          	mov    0x10(%esp),%ecx
1000c868:	0b c8                	or     %eax,%ecx
1000c86a:	8b 4c 24 0c          	mov    0xc(%esp),%ecx
1000c86e:	75 09                	jne    0x1000c879
1000c870:	8b 44 24 04          	mov    0x4(%esp),%eax
1000c874:	f7 e1                	mul    %ecx
1000c876:	c2 10 00             	ret    $0x10
1000c879:	53                   	push   %ebx
1000c87a:	f7 e1                	mul    %ecx
1000c87c:	8b d8                	mov    %eax,%ebx
1000c87e:	8b 44 24 08          	mov    0x8(%esp),%eax
1000c882:	f7 64 24 14          	mull   0x14(%esp)
1000c886:	03 d8                	add    %eax,%ebx
1000c888:	8b 44 24 08          	mov    0x8(%esp),%eax
1000c88c:	f7 e1                	mul    %ecx
1000c88e:	03 d3                	add    %ebx,%edx
1000c890:	5b                   	pop    %ebx
1000c891:	c2 10 00             	ret    $0x10
